(dp0
Vis_builtin
p1
I01
sVchilds
p2
(lp3
(dp4
g1
I01
sg2
(lp5
(dp6
g1
I01
sVname
p7
V__delattr__
p8
sVtype
p9
L5L
sa(dp10
g1
I01
sg7
V__dict__
p11
sg9
L5L
sa(dp12
g1
I01
sVdoc
p13
V__dir__() -> list\u000adefault dir() implementation
p14
sg7
V__dir__
p15
sg9
L2L
sa(dp16
g1
I01
sg7
V__doc__
p17
sg9
L5L
sa(dp18
g1
I01
sg7
V__eq__
p19
sg9
L5L
sa(dp20
g1
I01
sg13
Vdefault object formatter
p21
sg7
V__format__
p22
sg9
L2L
sa(dp23
g1
I01
sg7
V__ge__
p24
sg9
L5L
sa(dp25
g1
I01
sg7
V__getattribute__
p26
sg9
L5L
sa(dp27
g1
I01
sg7
V__gt__
p28
sg9
L5L
sa(dp29
g1
I01
sg7
V__hash__
p30
sg9
L5L
sa(dp31
g1
I01
sg7
V__init__
p32
sg9
L5L
sa(dp33
g1
I01
sg7
V__le__
p34
sg9
L5L
sa(dp35
g1
I01
sg7
V__lt__
p36
sg9
L5L
sa(dp37
g1
I01
sg7
V__ne__
p38
sg9
L5L
sa(dp39
g1
I01
sg13
VCreate and return a new object.  See help(type) for accurate signature.
p40
sg7
V__new__
p41
sg9
L2L
sa(dp42
g1
I01
sg13
Nsg7
V__reduce__
p43
sg9
L2L
sa(dp44
g1
I01
sg13
Vhelper for pickle
p45
sg7
V__reduce_ex__
p46
sg9
L2L
sa(dp47
g1
I01
sg7
V__repr__
p48
sg9
L5L
sa(dp49
g1
I01
sg7
V__setattr__
p50
sg9
L5L
sa(dp51
g1
I01
sg13
V__sizeof__() -> int\u000asize of object in memory, in bytes
p52
sg7
V__sizeof__
p53
sg9
L2L
sa(dp54
g1
I01
sg7
V__str__
p55
sg9
L5L
sa(dp56
g1
I01
sg13
VAbstract classes can override this to customize issubclass().\u000a\u000aThis is invoked early on by abc.ABCMeta.__subclasscheck__().\u000aIt should return True, False or NotImplemented.  If it returns\u000aNotImplemented, the normal algorithm is used.  Otherwise, it\u000aoverrides the normal algorithm (and the outcome is cached).\u000a
p57
sg7
V__subclasshook__
p58
sg9
L2L
sa(dp59
g1
I01
sg7
V_attributes
p60
sg9
L5L
sa(dp61
g1
I01
sg7
V_fields
p62
sg9
L5L
sasg13
Nsg7
VAST
p63
sg9
L3L
sa(dp64
g1
I01
sg2
(lp65
(dp66
g1
I01
sg7
g8
sg9
L5L
sa(dp67
g1
I01
sg7
g11
sg9
L5L
sa(dp68
g1
I01
sg13
V__dir__() -> list\u000adefault dir() implementation
p69
sg7
g15
sg9
L2L
sa(dp70
g1
I01
sg7
g17
sg9
L5L
sa(dp71
g1
I01
sg7
g19
sg9
L5L
sa(dp72
g1
I01
sg13
Vdefault object formatter
p73
sg7
g22
sg9
L2L
sa(dp74
g1
I01
sg7
g24
sg9
L5L
sa(dp75
g1
I01
sg7
g26
sg9
L5L
sa(dp76
g1
I01
sg7
g28
sg9
L5L
sa(dp77
g1
I01
sg7
g30
sg9
L5L
sa(dp78
g1
I01
sg7
g32
sg9
L5L
sa(dp79
g1
I01
sg7
g34
sg9
L5L
sa(dp80
g1
I01
sg7
g36
sg9
L5L
sa(dp81
g1
I01
sg7
V__module__
p82
sg9
L5L
sa(dp83
g1
I01
sg7
g38
sg9
L5L
sa(dp84
g1
I01
sg13
VCreate and return a new object.  See help(type) for accurate signature.
p85
sg7
g41
sg9
L2L
sa(dp86
g1
I01
sg13
Nsg7
g43
sg9
L2L
sa(dp87
g1
I01
sg13
Vhelper for pickle
p88
sg7
g46
sg9
L2L
sa(dp89
g1
I01
sg7
g48
sg9
L5L
sa(dp90
g1
I01
sg7
g50
sg9
L5L
sa(dp91
g1
I01
sg13
V__sizeof__() -> int\u000asize of object in memory, in bytes
p92
sg7
g53
sg9
L2L
sa(dp93
g1
I01
sg7
g55
sg9
L5L
sa(dp94
g1
I01
sg13
VAbstract classes can override this to customize issubclass().\u000a\u000aThis is invoked early on by abc.ABCMeta.__subclasscheck__().\u000aIt should return True, False or NotImplemented.  If it returns\u000aNotImplemented, the normal algorithm is used.  Otherwise, it\u000aoverrides the normal algorithm (and the outcome is cached).\u000a
p95
sg7
g58
sg9
L2L
sa(dp96
g1
I01
sg7
V__weakref__
p97
sg9
L5L
sa(dp98
g1
I01
sg7
g60
sg9
L5L
sa(dp99
g1
I01
sg7
V_fields
p100
sg9
L5L
sasg13
Nsg7
VAdd
p101
sg9
L3L
sa(dp102
g1
I01
sg2
(lp103
(dp104
g1
I01
sg7
g8
sg9
L5L
sa(dp105
g1
I01
sg7
g11
sg9
L5L
sa(dp106
g1
I01
sg13
V__dir__() -> list\u000adefault dir() implementation
p107
sg7
g15
sg9
L2L
sa(dp108
g1
I01
sg7
g17
sg9
L5L
sa(dp109
g1
I01
sg7
g19
sg9
L5L
sa(dp110
g1
I01
sg13
Vdefault object formatter
p111
sg7
g22
sg9
L2L
sa(dp112
g1
I01
sg7
g24
sg9
L5L
sa(dp113
g1
I01
sg7
g26
sg9
L5L
sa(dp114
g1
I01
sg7
g28
sg9
L5L
sa(dp115
g1
I01
sg7
g30
sg9
L5L
sa(dp116
g1
I01
sg7
g32
sg9
L5L
sa(dp117
g1
I01
sg7
g34
sg9
L5L
sa(dp118
g1
I01
sg7
g36
sg9
L5L
sa(dp119
g1
I01
sg7
V__module__
p120
sg9
L5L
sa(dp121
g1
I01
sg7
g38
sg9
L5L
sa(dp122
g1
I01
sg13
VCreate and return a new object.  See help(type) for accurate signature.
p123
sg7
g41
sg9
L2L
sa(dp124
g1
I01
sg13
Nsg7
g43
sg9
L2L
sa(dp125
g1
I01
sg13
Vhelper for pickle
p126
sg7
g46
sg9
L2L
sa(dp127
g1
I01
sg7
g48
sg9
L5L
sa(dp128
g1
I01
sg7
g50
sg9
L5L
sa(dp129
g1
I01
sg13
V__sizeof__() -> int\u000asize of object in memory, in bytes
p130
sg7
g53
sg9
L2L
sa(dp131
g1
I01
sg7
g55
sg9
L5L
sa(dp132
g1
I01
sg13
VAbstract classes can override this to customize issubclass().\u000a\u000aThis is invoked early on by abc.ABCMeta.__subclasscheck__().\u000aIt should return True, False or NotImplemented.  If it returns\u000aNotImplemented, the normal algorithm is used.  Otherwise, it\u000aoverrides the normal algorithm (and the outcome is cached).\u000a
p133
sg7
g58
sg9
L2L
sa(dp134
g1
I01
sg7
g97
sg9
L5L
sa(dp135
g1
I01
sg7
g60
sg9
L5L
sa(dp136
g1
I01
sg7
V_fields
p137
sg9
L5L
sasg13
Nsg7
VAnd
p138
sg9
L3L
sa(dp139
g1
I01
sg2
(lp140
(dp141
g1
I01
sg7
g8
sg9
L5L
sa(dp142
g1
I01
sg7
g11
sg9
L5L
sa(dp143
g1
I01
sg13
V__dir__() -> list\u000adefault dir() implementation
p144
sg7
g15
sg9
L2L
sa(dp145
g1
I01
sg7
g17
sg9
L5L
sa(dp146
g1
I01
sg7
g19
sg9
L5L
sa(dp147
g1
I01
sg13
Vdefault object formatter
p148
sg7
g22
sg9
L2L
sa(dp149
g1
I01
sg7
g24
sg9
L5L
sa(dp150
g1
I01
sg7
g26
sg9
L5L
sa(dp151
g1
I01
sg7
g28
sg9
L5L
sa(dp152
g1
I01
sg7
g30
sg9
L5L
sa(dp153
g1
I01
sg7
g32
sg9
L5L
sa(dp154
g1
I01
sg7
g34
sg9
L5L
sa(dp155
g1
I01
sg7
g36
sg9
L5L
sa(dp156
g1
I01
sg7
V__module__
p157
sg9
L5L
sa(dp158
g1
I01
sg7
g38
sg9
L5L
sa(dp159
g1
I01
sg13
VCreate and return a new object.  See help(type) for accurate signature.
p160
sg7
g41
sg9
L2L
sa(dp161
g1
I01
sg13
Nsg7
g43
sg9
L2L
sa(dp162
g1
I01
sg13
Vhelper for pickle
p163
sg7
g46
sg9
L2L
sa(dp164
g1
I01
sg7
g48
sg9
L5L
sa(dp165
g1
I01
sg7
g50
sg9
L5L
sa(dp166
g1
I01
sg13
V__sizeof__() -> int\u000asize of object in memory, in bytes
p167
sg7
g53
sg9
L2L
sa(dp168
g1
I01
sg7
g55
sg9
L5L
sa(dp169
g1
I01
sg13
VAbstract classes can override this to customize issubclass().\u000a\u000aThis is invoked early on by abc.ABCMeta.__subclasscheck__().\u000aIt should return True, False or NotImplemented.  If it returns\u000aNotImplemented, the normal algorithm is used.  Otherwise, it\u000aoverrides the normal algorithm (and the outcome is cached).\u000a
p170
sg7
g58
sg9
L2L
sa(dp171
g1
I01
sg7
g97
sg9
L5L
sa(dp172
g1
I01
sg7
g60
sg9
L5L
sa(dp173
g1
I01
sg7
V_fields
p174
sg9
L5L
sasg13
Nsg7
VAssert
p175
sg9
L3L
sa(dp176
g1
I01
sg2
(lp177
(dp178
g1
I01
sg7
g8
sg9
L5L
sa(dp179
g1
I01
sg7
g11
sg9
L5L
sa(dp180
g1
I01
sg13
V__dir__() -> list\u000adefault dir() implementation
p181
sg7
g15
sg9
L2L
sa(dp182
g1
I01
sg7
g17
sg9
L5L
sa(dp183
g1
I01
sg7
g19
sg9
L5L
sa(dp184
g1
I01
sg13
Vdefault object formatter
p185
sg7
g22
sg9
L2L
sa(dp186
g1
I01
sg7
g24
sg9
L5L
sa(dp187
g1
I01
sg7
g26
sg9
L5L
sa(dp188
g1
I01
sg7
g28
sg9
L5L
sa(dp189
g1
I01
sg7
g30
sg9
L5L
sa(dp190
g1
I01
sg7
g32
sg9
L5L
sa(dp191
g1
I01
sg7
g34
sg9
L5L
sa(dp192
g1
I01
sg7
g36
sg9
L5L
sa(dp193
g1
I01
sg7
V__module__
p194
sg9
L5L
sa(dp195
g1
I01
sg7
g38
sg9
L5L
sa(dp196
g1
I01
sg13
VCreate and return a new object.  See help(type) for accurate signature.
p197
sg7
g41
sg9
L2L
sa(dp198
g1
I01
sg13
Nsg7
g43
sg9
L2L
sa(dp199
g1
I01
sg13
Vhelper for pickle
p200
sg7
g46
sg9
L2L
sa(dp201
g1
I01
sg7
g48
sg9
L5L
sa(dp202
g1
I01
sg7
g50
sg9
L5L
sa(dp203
g1
I01
sg13
V__sizeof__() -> int\u000asize of object in memory, in bytes
p204
sg7
g53
sg9
L2L
sa(dp205
g1
I01
sg7
g55
sg9
L5L
sa(dp206
g1
I01
sg13
VAbstract classes can override this to customize issubclass().\u000a\u000aThis is invoked early on by abc.ABCMeta.__subclasscheck__().\u000aIt should return True, False or NotImplemented.  If it returns\u000aNotImplemented, the normal algorithm is used.  Otherwise, it\u000aoverrides the normal algorithm (and the outcome is cached).\u000a
p207
sg7
g58
sg9
L2L
sa(dp208
g1
I01
sg7
g97
sg9
L5L
sa(dp209
g1
I01
sg7
g60
sg9
L5L
sa(dp210
g1
I01
sg7
V_fields
p211
sg9
L5L
sasg13
Nsg7
VAssign
p212
sg9
L3L
sa(dp213
g1
I01
sg2
(lp214
(dp215
g1
I01
sg7
g8
sg9
L5L
sa(dp216
g1
I01
sg7
g11
sg9
L5L
sa(dp217
g1
I01
sg13
V__dir__() -> list\u000adefault dir() implementation
p218
sg7
g15
sg9
L2L
sa(dp219
g1
I01
sg7
g17
sg9
L5L
sa(dp220
g1
I01
sg7
g19
sg9
L5L
sa(dp221
g1
I01
sg13
Vdefault object formatter
p222
sg7
g22
sg9
L2L
sa(dp223
g1
I01
sg7
g24
sg9
L5L
sa(dp224
g1
I01
sg7
g26
sg9
L5L
sa(dp225
g1
I01
sg7
g28
sg9
L5L
sa(dp226
g1
I01
sg7
g30
sg9
L5L
sa(dp227
g1
I01
sg7
g32
sg9
L5L
sa(dp228
g1
I01
sg7
g34
sg9
L5L
sa(dp229
g1
I01
sg7
g36
sg9
L5L
sa(dp230
g1
I01
sg7
V__module__
p231
sg9
L5L
sa(dp232
g1
I01
sg7
g38
sg9
L5L
sa(dp233
g1
I01
sg13
VCreate and return a new object.  See help(type) for accurate signature.
p234
sg7
g41
sg9
L2L
sa(dp235
g1
I01
sg13
Nsg7
g43
sg9
L2L
sa(dp236
g1
I01
sg13
Vhelper for pickle
p237
sg7
g46
sg9
L2L
sa(dp238
g1
I01
sg7
g48
sg9
L5L
sa(dp239
g1
I01
sg7
g50
sg9
L5L
sa(dp240
g1
I01
sg13
V__sizeof__() -> int\u000asize of object in memory, in bytes
p241
sg7
g53
sg9
L2L
sa(dp242
g1
I01
sg7
g55
sg9
L5L
sa(dp243
g1
I01
sg13
VAbstract classes can override this to customize issubclass().\u000a\u000aThis is invoked early on by abc.ABCMeta.__subclasscheck__().\u000aIt should return True, False or NotImplemented.  If it returns\u000aNotImplemented, the normal algorithm is used.  Otherwise, it\u000aoverrides the normal algorithm (and the outcome is cached).\u000a
p244
sg7
g58
sg9
L2L
sa(dp245
g1
I01
sg7
g97
sg9
L5L
sa(dp246
g1
I01
sg7
g60
sg9
L5L
sa(dp247
g1
I01
sg7
V_fields
p248
sg9
L5L
sasg13
Nsg7
VAsyncFor
p249
sg9
L3L
sa(dp250
g1
I01
sg2
(lp251
(dp252
g1
I01
sg7
g8
sg9
L5L
sa(dp253
g1
I01
sg7
g11
sg9
L5L
sa(dp254
g1
I01
sg13
V__dir__() -> list\u000adefault dir() implementation
p255
sg7
g15
sg9
L2L
sa(dp256
g1
I01
sg7
g17
sg9
L5L
sa(dp257
g1
I01
sg7
g19
sg9
L5L
sa(dp258
g1
I01
sg13
Vdefault object formatter
p259
sg7
g22
sg9
L2L
sa(dp260
g1
I01
sg7
g24
sg9
L5L
sa(dp261
g1
I01
sg7
g26
sg9
L5L
sa(dp262
g1
I01
sg7
g28
sg9
L5L
sa(dp263
g1
I01
sg7
g30
sg9
L5L
sa(dp264
g1
I01
sg7
g32
sg9
L5L
sa(dp265
g1
I01
sg7
g34
sg9
L5L
sa(dp266
g1
I01
sg7
g36
sg9
L5L
sa(dp267
g1
I01
sg7
V__module__
p268
sg9
L5L
sa(dp269
g1
I01
sg7
g38
sg9
L5L
sa(dp270
g1
I01
sg13
VCreate and return a new object.  See help(type) for accurate signature.
p271
sg7
g41
sg9
L2L
sa(dp272
g1
I01
sg13
Nsg7
g43
sg9
L2L
sa(dp273
g1
I01
sg13
Vhelper for pickle
p274
sg7
g46
sg9
L2L
sa(dp275
g1
I01
sg7
g48
sg9
L5L
sa(dp276
g1
I01
sg7
g50
sg9
L5L
sa(dp277
g1
I01
sg13
V__sizeof__() -> int\u000asize of object in memory, in bytes
p278
sg7
g53
sg9
L2L
sa(dp279
g1
I01
sg7
g55
sg9
L5L
sa(dp280
g1
I01
sg13
VAbstract classes can override this to customize issubclass().\u000a\u000aThis is invoked early on by abc.ABCMeta.__subclasscheck__().\u000aIt should return True, False or NotImplemented.  If it returns\u000aNotImplemented, the normal algorithm is used.  Otherwise, it\u000aoverrides the normal algorithm (and the outcome is cached).\u000a
p281
sg7
g58
sg9
L2L
sa(dp282
g1
I01
sg7
g97
sg9
L5L
sa(dp283
g1
I01
sg7
g60
sg9
L5L
sa(dp284
g1
I01
sg7
V_fields
p285
sg9
L5L
sasg13
Nsg7
VAsyncFunctionDef
p286
sg9
L3L
sa(dp287
g1
I01
sg2
(lp288
(dp289
g1
I01
sg7
g8
sg9
L5L
sa(dp290
g1
I01
sg7
g11
sg9
L5L
sa(dp291
g1
I01
sg13
V__dir__() -> list\u000adefault dir() implementation
p292
sg7
g15
sg9
L2L
sa(dp293
g1
I01
sg7
g17
sg9
L5L
sa(dp294
g1
I01
sg7
g19
sg9
L5L
sa(dp295
g1
I01
sg13
Vdefault object formatter
p296
sg7
g22
sg9
L2L
sa(dp297
g1
I01
sg7
g24
sg9
L5L
sa(dp298
g1
I01
sg7
g26
sg9
L5L
sa(dp299
g1
I01
sg7
g28
sg9
L5L
sa(dp300
g1
I01
sg7
g30
sg9
L5L
sa(dp301
g1
I01
sg7
g32
sg9
L5L
sa(dp302
g1
I01
sg7
g34
sg9
L5L
sa(dp303
g1
I01
sg7
g36
sg9
L5L
sa(dp304
g1
I01
sg7
V__module__
p305
sg9
L5L
sa(dp306
g1
I01
sg7
g38
sg9
L5L
sa(dp307
g1
I01
sg13
VCreate and return a new object.  See help(type) for accurate signature.
p308
sg7
g41
sg9
L2L
sa(dp309
g1
I01
sg13
Nsg7
g43
sg9
L2L
sa(dp310
g1
I01
sg13
Vhelper for pickle
p311
sg7
g46
sg9
L2L
sa(dp312
g1
I01
sg7
g48
sg9
L5L
sa(dp313
g1
I01
sg7
g50
sg9
L5L
sa(dp314
g1
I01
sg13
V__sizeof__() -> int\u000asize of object in memory, in bytes
p315
sg7
g53
sg9
L2L
sa(dp316
g1
I01
sg7
g55
sg9
L5L
sa(dp317
g1
I01
sg13
VAbstract classes can override this to customize issubclass().\u000a\u000aThis is invoked early on by abc.ABCMeta.__subclasscheck__().\u000aIt should return True, False or NotImplemented.  If it returns\u000aNotImplemented, the normal algorithm is used.  Otherwise, it\u000aoverrides the normal algorithm (and the outcome is cached).\u000a
p318
sg7
g58
sg9
L2L
sa(dp319
g1
I01
sg7
g97
sg9
L5L
sa(dp320
g1
I01
sg7
g60
sg9
L5L
sa(dp321
g1
I01
sg7
V_fields
p322
sg9
L5L
sasg13
Nsg7
VAsyncWith
p323
sg9
L3L
sa(dp324
g1
I01
sg2
(lp325
(dp326
g1
I01
sg7
g8
sg9
L5L
sa(dp327
g1
I01
sg7
g11
sg9
L5L
sa(dp328
g1
I01
sg13
V__dir__() -> list\u000adefault dir() implementation
p329
sg7
g15
sg9
L2L
sa(dp330
g1
I01
sg7
g17
sg9
L5L
sa(dp331
g1
I01
sg7
g19
sg9
L5L
sa(dp332
g1
I01
sg13
Vdefault object formatter
p333
sg7
g22
sg9
L2L
sa(dp334
g1
I01
sg7
g24
sg9
L5L
sa(dp335
g1
I01
sg7
g26
sg9
L5L
sa(dp336
g1
I01
sg7
g28
sg9
L5L
sa(dp337
g1
I01
sg7
g30
sg9
L5L
sa(dp338
g1
I01
sg7
g32
sg9
L5L
sa(dp339
g1
I01
sg7
g34
sg9
L5L
sa(dp340
g1
I01
sg7
g36
sg9
L5L
sa(dp341
g1
I01
sg7
V__module__
p342
sg9
L5L
sa(dp343
g1
I01
sg7
g38
sg9
L5L
sa(dp344
g1
I01
sg13
VCreate and return a new object.  See help(type) for accurate signature.
p345
sg7
g41
sg9
L2L
sa(dp346
g1
I01
sg13
Nsg7
g43
sg9
L2L
sa(dp347
g1
I01
sg13
Vhelper for pickle
p348
sg7
g46
sg9
L2L
sa(dp349
g1
I01
sg7
g48
sg9
L5L
sa(dp350
g1
I01
sg7
g50
sg9
L5L
sa(dp351
g1
I01
sg13
V__sizeof__() -> int\u000asize of object in memory, in bytes
p352
sg7
g53
sg9
L2L
sa(dp353
g1
I01
sg7
g55
sg9
L5L
sa(dp354
g1
I01
sg13
VAbstract classes can override this to customize issubclass().\u000a\u000aThis is invoked early on by abc.ABCMeta.__subclasscheck__().\u000aIt should return True, False or NotImplemented.  If it returns\u000aNotImplemented, the normal algorithm is used.  Otherwise, it\u000aoverrides the normal algorithm (and the outcome is cached).\u000a
p355
sg7
g58
sg9
L2L
sa(dp356
g1
I01
sg7
g97
sg9
L5L
sa(dp357
g1
I01
sg7
g60
sg9
L5L
sa(dp358
g1
I01
sg7
V_fields
p359
sg9
L5L
sasg13
Nsg7
VAttribute
p360
sg9
L3L
sa(dp361
g1
I01
sg2
(lp362
(dp363
g1
I01
sg7
g8
sg9
L5L
sa(dp364
g1
I01
sg7
g11
sg9
L5L
sa(dp365
g1
I01
sg13
V__dir__() -> list\u000adefault dir() implementation
p366
sg7
g15
sg9
L2L
sa(dp367
g1
I01
sg7
g17
sg9
L5L
sa(dp368
g1
I01
sg7
g19
sg9
L5L
sa(dp369
g1
I01
sg13
Vdefault object formatter
p370
sg7
g22
sg9
L2L
sa(dp371
g1
I01
sg7
g24
sg9
L5L
sa(dp372
g1
I01
sg7
g26
sg9
L5L
sa(dp373
g1
I01
sg7
g28
sg9
L5L
sa(dp374
g1
I01
sg7
g30
sg9
L5L
sa(dp375
g1
I01
sg7
g32
sg9
L5L
sa(dp376
g1
I01
sg7
g34
sg9
L5L
sa(dp377
g1
I01
sg7
g36
sg9
L5L
sa(dp378
g1
I01
sg7
V__module__
p379
sg9
L5L
sa(dp380
g1
I01
sg7
g38
sg9
L5L
sa(dp381
g1
I01
sg13
VCreate and return a new object.  See help(type) for accurate signature.
p382
sg7
g41
sg9
L2L
sa(dp383
g1
I01
sg13
Nsg7
g43
sg9
L2L
sa(dp384
g1
I01
sg13
Vhelper for pickle
p385
sg7
g46
sg9
L2L
sa(dp386
g1
I01
sg7
g48
sg9
L5L
sa(dp387
g1
I01
sg7
g50
sg9
L5L
sa(dp388
g1
I01
sg13
V__sizeof__() -> int\u000asize of object in memory, in bytes
p389
sg7
g53
sg9
L2L
sa(dp390
g1
I01
sg7
g55
sg9
L5L
sa(dp391
g1
I01
sg13
VAbstract classes can override this to customize issubclass().\u000a\u000aThis is invoked early on by abc.ABCMeta.__subclasscheck__().\u000aIt should return True, False or NotImplemented.  If it returns\u000aNotImplemented, the normal algorithm is used.  Otherwise, it\u000aoverrides the normal algorithm (and the outcome is cached).\u000a
p392
sg7
g58
sg9
L2L
sa(dp393
g1
I01
sg7
g97
sg9
L5L
sa(dp394
g1
I01
sg7
g60
sg9
L5L
sa(dp395
g1
I01
sg7
V_fields
p396
sg9
L5L
sasg13
Nsg7
VAugAssign
p397
sg9
L3L
sa(dp398
g1
I01
sg2
(lp399
(dp400
g1
I01
sg7
g8
sg9
L5L
sa(dp401
g1
I01
sg7
g11
sg9
L5L
sa(dp402
g1
I01
sg13
V__dir__() -> list\u000adefault dir() implementation
p403
sg7
g15
sg9
L2L
sa(dp404
g1
I01
sg7
g17
sg9
L5L
sa(dp405
g1
I01
sg7
g19
sg9
L5L
sa(dp406
g1
I01
sg13
Vdefault object formatter
p407
sg7
g22
sg9
L2L
sa(dp408
g1
I01
sg7
g24
sg9
L5L
sa(dp409
g1
I01
sg7
g26
sg9
L5L
sa(dp410
g1
I01
sg7
g28
sg9
L5L
sa(dp411
g1
I01
sg7
g30
sg9
L5L
sa(dp412
g1
I01
sg7
g32
sg9
L5L
sa(dp413
g1
I01
sg7
g34
sg9
L5L
sa(dp414
g1
I01
sg7
g36
sg9
L5L
sa(dp415
g1
I01
sg7
V__module__
p416
sg9
L5L
sa(dp417
g1
I01
sg7
g38
sg9
L5L
sa(dp418
g1
I01
sg13
VCreate and return a new object.  See help(type) for accurate signature.
p419
sg7
g41
sg9
L2L
sa(dp420
g1
I01
sg13
Nsg7
g43
sg9
L2L
sa(dp421
g1
I01
sg13
Vhelper for pickle
p422
sg7
g46
sg9
L2L
sa(dp423
g1
I01
sg7
g48
sg9
L5L
sa(dp424
g1
I01
sg7
g50
sg9
L5L
sa(dp425
g1
I01
sg13
V__sizeof__() -> int\u000asize of object in memory, in bytes
p426
sg7
g53
sg9
L2L
sa(dp427
g1
I01
sg7
g55
sg9
L5L
sa(dp428
g1
I01
sg13
VAbstract classes can override this to customize issubclass().\u000a\u000aThis is invoked early on by abc.ABCMeta.__subclasscheck__().\u000aIt should return True, False or NotImplemented.  If it returns\u000aNotImplemented, the normal algorithm is used.  Otherwise, it\u000aoverrides the normal algorithm (and the outcome is cached).\u000a
p429
sg7
g58
sg9
L2L
sa(dp430
g1
I01
sg7
g97
sg9
L5L
sa(dp431
g1
I01
sg7
g60
sg9
L5L
sa(dp432
g1
I01
sg7
V_fields
p433
sg9
L5L
sasg13
Nsg7
VAugLoad
p434
sg9
L3L
sa(dp435
g1
I01
sg2
(lp436
(dp437
g1
I01
sg7
g8
sg9
L5L
sa(dp438
g1
I01
sg7
g11
sg9
L5L
sa(dp439
g1
I01
sg13
V__dir__() -> list\u000adefault dir() implementation
p440
sg7
g15
sg9
L2L
sa(dp441
g1
I01
sg7
g17
sg9
L5L
sa(dp442
g1
I01
sg7
g19
sg9
L5L
sa(dp443
g1
I01
sg13
Vdefault object formatter
p444
sg7
g22
sg9
L2L
sa(dp445
g1
I01
sg7
g24
sg9
L5L
sa(dp446
g1
I01
sg7
g26
sg9
L5L
sa(dp447
g1
I01
sg7
g28
sg9
L5L
sa(dp448
g1
I01
sg7
g30
sg9
L5L
sa(dp449
g1
I01
sg7
g32
sg9
L5L
sa(dp450
g1
I01
sg7
g34
sg9
L5L
sa(dp451
g1
I01
sg7
g36
sg9
L5L
sa(dp452
g1
I01
sg7
V__module__
p453
sg9
L5L
sa(dp454
g1
I01
sg7
g38
sg9
L5L
sa(dp455
g1
I01
sg13
VCreate and return a new object.  See help(type) for accurate signature.
p456
sg7
g41
sg9
L2L
sa(dp457
g1
I01
sg13
Nsg7
g43
sg9
L2L
sa(dp458
g1
I01
sg13
Vhelper for pickle
p459
sg7
g46
sg9
L2L
sa(dp460
g1
I01
sg7
g48
sg9
L5L
sa(dp461
g1
I01
sg7
g50
sg9
L5L
sa(dp462
g1
I01
sg13
V__sizeof__() -> int\u000asize of object in memory, in bytes
p463
sg7
g53
sg9
L2L
sa(dp464
g1
I01
sg7
g55
sg9
L5L
sa(dp465
g1
I01
sg13
VAbstract classes can override this to customize issubclass().\u000a\u000aThis is invoked early on by abc.ABCMeta.__subclasscheck__().\u000aIt should return True, False or NotImplemented.  If it returns\u000aNotImplemented, the normal algorithm is used.  Otherwise, it\u000aoverrides the normal algorithm (and the outcome is cached).\u000a
p466
sg7
g58
sg9
L2L
sa(dp467
g1
I01
sg7
g97
sg9
L5L
sa(dp468
g1
I01
sg7
g60
sg9
L5L
sa(dp469
g1
I01
sg7
V_fields
p470
sg9
L5L
sasg13
Nsg7
VAugStore
p471
sg9
L3L
sa(dp472
g1
I01
sg2
(lp473
(dp474
g1
I01
sg7
g8
sg9
L5L
sa(dp475
g1
I01
sg7
g11
sg9
L5L
sa(dp476
g1
I01
sg13
V__dir__() -> list\u000adefault dir() implementation
p477
sg7
g15
sg9
L2L
sa(dp478
g1
I01
sg7
g17
sg9
L5L
sa(dp479
g1
I01
sg7
g19
sg9
L5L
sa(dp480
g1
I01
sg13
Vdefault object formatter
p481
sg7
g22
sg9
L2L
sa(dp482
g1
I01
sg7
g24
sg9
L5L
sa(dp483
g1
I01
sg7
g26
sg9
L5L
sa(dp484
g1
I01
sg7
g28
sg9
L5L
sa(dp485
g1
I01
sg7
g30
sg9
L5L
sa(dp486
g1
I01
sg7
g32
sg9
L5L
sa(dp487
g1
I01
sg7
g34
sg9
L5L
sa(dp488
g1
I01
sg7
g36
sg9
L5L
sa(dp489
g1
I01
sg7
V__module__
p490
sg9
L5L
sa(dp491
g1
I01
sg7
g38
sg9
L5L
sa(dp492
g1
I01
sg13
VCreate and return a new object.  See help(type) for accurate signature.
p493
sg7
g41
sg9
L2L
sa(dp494
g1
I01
sg13
Nsg7
g43
sg9
L2L
sa(dp495
g1
I01
sg13
Vhelper for pickle
p496
sg7
g46
sg9
L2L
sa(dp497
g1
I01
sg7
g48
sg9
L5L
sa(dp498
g1
I01
sg7
g50
sg9
L5L
sa(dp499
g1
I01
sg13
V__sizeof__() -> int\u000asize of object in memory, in bytes
p500
sg7
g53
sg9
L2L
sa(dp501
g1
I01
sg7
g55
sg9
L5L
sa(dp502
g1
I01
sg13
VAbstract classes can override this to customize issubclass().\u000a\u000aThis is invoked early on by abc.ABCMeta.__subclasscheck__().\u000aIt should return True, False or NotImplemented.  If it returns\u000aNotImplemented, the normal algorithm is used.  Otherwise, it\u000aoverrides the normal algorithm (and the outcome is cached).\u000a
p503
sg7
g58
sg9
L2L
sa(dp504
g1
I01
sg7
g97
sg9
L5L
sa(dp505
g1
I01
sg7
g60
sg9
L5L
sa(dp506
g1
I01
sg7
V_fields
p507
sg9
L5L
sasg13
Nsg7
VAwait
p508
sg9
L3L
sa(dp509
g1
I01
sg2
(lp510
(dp511
g1
I01
sg7
g8
sg9
L5L
sa(dp512
g1
I01
sg7
g11
sg9
L5L
sa(dp513
g1
I01
sg13
V__dir__() -> list\u000adefault dir() implementation
p514
sg7
g15
sg9
L2L
sa(dp515
g1
I01
sg7
g17
sg9
L5L
sa(dp516
g1
I01
sg7
g19
sg9
L5L
sa(dp517
g1
I01
sg13
Vdefault object formatter
p518
sg7
g22
sg9
L2L
sa(dp519
g1
I01
sg7
g24
sg9
L5L
sa(dp520
g1
I01
sg7
g26
sg9
L5L
sa(dp521
g1
I01
sg7
g28
sg9
L5L
sa(dp522
g1
I01
sg7
g30
sg9
L5L
sa(dp523
g1
I01
sg7
g32
sg9
L5L
sa(dp524
g1
I01
sg7
g34
sg9
L5L
sa(dp525
g1
I01
sg7
g36
sg9
L5L
sa(dp526
g1
I01
sg7
V__module__
p527
sg9
L5L
sa(dp528
g1
I01
sg7
g38
sg9
L5L
sa(dp529
g1
I01
sg13
VCreate and return a new object.  See help(type) for accurate signature.
p530
sg7
g41
sg9
L2L
sa(dp531
g1
I01
sg13
Nsg7
g43
sg9
L2L
sa(dp532
g1
I01
sg13
Vhelper for pickle
p533
sg7
g46
sg9
L2L
sa(dp534
g1
I01
sg7
g48
sg9
L5L
sa(dp535
g1
I01
sg7
g50
sg9
L5L
sa(dp536
g1
I01
sg13
V__sizeof__() -> int\u000asize of object in memory, in bytes
p537
sg7
g53
sg9
L2L
sa(dp538
g1
I01
sg7
g55
sg9
L5L
sa(dp539
g1
I01
sg13
VAbstract classes can override this to customize issubclass().\u000a\u000aThis is invoked early on by abc.ABCMeta.__subclasscheck__().\u000aIt should return True, False or NotImplemented.  If it returns\u000aNotImplemented, the normal algorithm is used.  Otherwise, it\u000aoverrides the normal algorithm (and the outcome is cached).\u000a
p540
sg7
g58
sg9
L2L
sa(dp541
g1
I01
sg7
g97
sg9
L5L
sa(dp542
g1
I01
sg7
g60
sg9
L5L
sa(dp543
g1
I01
sg7
V_fields
p544
sg9
L5L
sasg13
Nsg7
VBinOp
p545
sg9
L3L
sa(dp546
g1
I01
sg2
(lp547
(dp548
g1
I01
sg7
g8
sg9
L5L
sa(dp549
g1
I01
sg7
g11
sg9
L5L
sa(dp550
g1
I01
sg13
V__dir__() -> list\u000adefault dir() implementation
p551
sg7
g15
sg9
L2L
sa(dp552
g1
I01
sg7
g17
sg9
L5L
sa(dp553
g1
I01
sg7
g19
sg9
L5L
sa(dp554
g1
I01
sg13
Vdefault object formatter
p555
sg7
g22
sg9
L2L
sa(dp556
g1
I01
sg7
g24
sg9
L5L
sa(dp557
g1
I01
sg7
g26
sg9
L5L
sa(dp558
g1
I01
sg7
g28
sg9
L5L
sa(dp559
g1
I01
sg7
g30
sg9
L5L
sa(dp560
g1
I01
sg7
g32
sg9
L5L
sa(dp561
g1
I01
sg7
g34
sg9
L5L
sa(dp562
g1
I01
sg7
g36
sg9
L5L
sa(dp563
g1
I01
sg7
V__module__
p564
sg9
L5L
sa(dp565
g1
I01
sg7
g38
sg9
L5L
sa(dp566
g1
I01
sg13
VCreate and return a new object.  See help(type) for accurate signature.
p567
sg7
g41
sg9
L2L
sa(dp568
g1
I01
sg13
Nsg7
g43
sg9
L2L
sa(dp569
g1
I01
sg13
Vhelper for pickle
p570
sg7
g46
sg9
L2L
sa(dp571
g1
I01
sg7
g48
sg9
L5L
sa(dp572
g1
I01
sg7
g50
sg9
L5L
sa(dp573
g1
I01
sg13
V__sizeof__() -> int\u000asize of object in memory, in bytes
p574
sg7
g53
sg9
L2L
sa(dp575
g1
I01
sg7
g55
sg9
L5L
sa(dp576
g1
I01
sg13
VAbstract classes can override this to customize issubclass().\u000a\u000aThis is invoked early on by abc.ABCMeta.__subclasscheck__().\u000aIt should return True, False or NotImplemented.  If it returns\u000aNotImplemented, the normal algorithm is used.  Otherwise, it\u000aoverrides the normal algorithm (and the outcome is cached).\u000a
p577
sg7
g58
sg9
L2L
sa(dp578
g1
I01
sg7
g97
sg9
L5L
sa(dp579
g1
I01
sg7
g60
sg9
L5L
sa(dp580
g1
I01
sg7
V_fields
p581
sg9
L5L
sasg13
Nsg7
VBitAnd
p582
sg9
L3L
sa(dp583
g1
I01
sg2
(lp584
(dp585
g1
I01
sg7
g8
sg9
L5L
sa(dp586
g1
I01
sg7
g11
sg9
L5L
sa(dp587
g1
I01
sg13
V__dir__() -> list\u000adefault dir() implementation
p588
sg7
g15
sg9
L2L
sa(dp589
g1
I01
sg7
g17
sg9
L5L
sa(dp590
g1
I01
sg7
g19
sg9
L5L
sa(dp591
g1
I01
sg13
Vdefault object formatter
p592
sg7
g22
sg9
L2L
sa(dp593
g1
I01
sg7
g24
sg9
L5L
sa(dp594
g1
I01
sg7
g26
sg9
L5L
sa(dp595
g1
I01
sg7
g28
sg9
L5L
sa(dp596
g1
I01
sg7
g30
sg9
L5L
sa(dp597
g1
I01
sg7
g32
sg9
L5L
sa(dp598
g1
I01
sg7
g34
sg9
L5L
sa(dp599
g1
I01
sg7
g36
sg9
L5L
sa(dp600
g1
I01
sg7
V__module__
p601
sg9
L5L
sa(dp602
g1
I01
sg7
g38
sg9
L5L
sa(dp603
g1
I01
sg13
VCreate and return a new object.  See help(type) for accurate signature.
p604
sg7
g41
sg9
L2L
sa(dp605
g1
I01
sg13
Nsg7
g43
sg9
L2L
sa(dp606
g1
I01
sg13
Vhelper for pickle
p607
sg7
g46
sg9
L2L
sa(dp608
g1
I01
sg7
g48
sg9
L5L
sa(dp609
g1
I01
sg7
g50
sg9
L5L
sa(dp610
g1
I01
sg13
V__sizeof__() -> int\u000asize of object in memory, in bytes
p611
sg7
g53
sg9
L2L
sa(dp612
g1
I01
sg7
g55
sg9
L5L
sa(dp613
g1
I01
sg13
VAbstract classes can override this to customize issubclass().\u000a\u000aThis is invoked early on by abc.ABCMeta.__subclasscheck__().\u000aIt should return True, False or NotImplemented.  If it returns\u000aNotImplemented, the normal algorithm is used.  Otherwise, it\u000aoverrides the normal algorithm (and the outcome is cached).\u000a
p614
sg7
g58
sg9
L2L
sa(dp615
g1
I01
sg7
g97
sg9
L5L
sa(dp616
g1
I01
sg7
g60
sg9
L5L
sa(dp617
g1
I01
sg7
V_fields
p618
sg9
L5L
sasg13
Nsg7
VBitOr
p619
sg9
L3L
sa(dp620
g1
I01
sg2
(lp621
(dp622
g1
I01
sg7
g8
sg9
L5L
sa(dp623
g1
I01
sg7
g11
sg9
L5L
sa(dp624
g1
I01
sg13
V__dir__() -> list\u000adefault dir() implementation
p625
sg7
g15
sg9
L2L
sa(dp626
g1
I01
sg7
g17
sg9
L5L
sa(dp627
g1
I01
sg7
g19
sg9
L5L
sa(dp628
g1
I01
sg13
Vdefault object formatter
p629
sg7
g22
sg9
L2L
sa(dp630
g1
I01
sg7
g24
sg9
L5L
sa(dp631
g1
I01
sg7
g26
sg9
L5L
sa(dp632
g1
I01
sg7
g28
sg9
L5L
sa(dp633
g1
I01
sg7
g30
sg9
L5L
sa(dp634
g1
I01
sg7
g32
sg9
L5L
sa(dp635
g1
I01
sg7
g34
sg9
L5L
sa(dp636
g1
I01
sg7
g36
sg9
L5L
sa(dp637
g1
I01
sg7
V__module__
p638
sg9
L5L
sa(dp639
g1
I01
sg7
g38
sg9
L5L
sa(dp640
g1
I01
sg13
VCreate and return a new object.  See help(type) for accurate signature.
p641
sg7
g41
sg9
L2L
sa(dp642
g1
I01
sg13
Nsg7
g43
sg9
L2L
sa(dp643
g1
I01
sg13
Vhelper for pickle
p644
sg7
g46
sg9
L2L
sa(dp645
g1
I01
sg7
g48
sg9
L5L
sa(dp646
g1
I01
sg7
g50
sg9
L5L
sa(dp647
g1
I01
sg13
V__sizeof__() -> int\u000asize of object in memory, in bytes
p648
sg7
g53
sg9
L2L
sa(dp649
g1
I01
sg7
g55
sg9
L5L
sa(dp650
g1
I01
sg13
VAbstract classes can override this to customize issubclass().\u000a\u000aThis is invoked early on by abc.ABCMeta.__subclasscheck__().\u000aIt should return True, False or NotImplemented.  If it returns\u000aNotImplemented, the normal algorithm is used.  Otherwise, it\u000aoverrides the normal algorithm (and the outcome is cached).\u000a
p651
sg7
g58
sg9
L2L
sa(dp652
g1
I01
sg7
g97
sg9
L5L
sa(dp653
g1
I01
sg7
g60
sg9
L5L
sa(dp654
g1
I01
sg7
V_fields
p655
sg9
L5L
sasg13
Nsg7
VBitXor
p656
sg9
L3L
sa(dp657
g1
I01
sg2
(lp658
(dp659
g1
I01
sg7
g8
sg9
L5L
sa(dp660
g1
I01
sg7
g11
sg9
L5L
sa(dp661
g1
I01
sg13
V__dir__() -> list\u000adefault dir() implementation
p662
sg7
g15
sg9
L2L
sa(dp663
g1
I01
sg7
g17
sg9
L5L
sa(dp664
g1
I01
sg7
g19
sg9
L5L
sa(dp665
g1
I01
sg13
Vdefault object formatter
p666
sg7
g22
sg9
L2L
sa(dp667
g1
I01
sg7
g24
sg9
L5L
sa(dp668
g1
I01
sg7
g26
sg9
L5L
sa(dp669
g1
I01
sg7
g28
sg9
L5L
sa(dp670
g1
I01
sg7
g30
sg9
L5L
sa(dp671
g1
I01
sg7
g32
sg9
L5L
sa(dp672
g1
I01
sg7
g34
sg9
L5L
sa(dp673
g1
I01
sg7
g36
sg9
L5L
sa(dp674
g1
I01
sg7
V__module__
p675
sg9
L5L
sa(dp676
g1
I01
sg7
g38
sg9
L5L
sa(dp677
g1
I01
sg13
VCreate and return a new object.  See help(type) for accurate signature.
p678
sg7
g41
sg9
L2L
sa(dp679
g1
I01
sg13
Nsg7
g43
sg9
L2L
sa(dp680
g1
I01
sg13
Vhelper for pickle
p681
sg7
g46
sg9
L2L
sa(dp682
g1
I01
sg7
g48
sg9
L5L
sa(dp683
g1
I01
sg7
g50
sg9
L5L
sa(dp684
g1
I01
sg13
V__sizeof__() -> int\u000asize of object in memory, in bytes
p685
sg7
g53
sg9
L2L
sa(dp686
g1
I01
sg7
g55
sg9
L5L
sa(dp687
g1
I01
sg13
VAbstract classes can override this to customize issubclass().\u000a\u000aThis is invoked early on by abc.ABCMeta.__subclasscheck__().\u000aIt should return True, False or NotImplemented.  If it returns\u000aNotImplemented, the normal algorithm is used.  Otherwise, it\u000aoverrides the normal algorithm (and the outcome is cached).\u000a
p688
sg7
g58
sg9
L2L
sa(dp689
g1
I01
sg7
g97
sg9
L5L
sa(dp690
g1
I01
sg7
g60
sg9
L5L
sa(dp691
g1
I01
sg7
V_fields
p692
sg9
L5L
sasg13
Nsg7
VBoolOp
p693
sg9
L3L
sa(dp694
g1
I01
sg2
(lp695
(dp696
g1
I01
sg7
g8
sg9
L5L
sa(dp697
g1
I01
sg7
g11
sg9
L5L
sa(dp698
g1
I01
sg13
V__dir__() -> list\u000adefault dir() implementation
p699
sg7
g15
sg9
L2L
sa(dp700
g1
I01
sg7
g17
sg9
L5L
sa(dp701
g1
I01
sg7
g19
sg9
L5L
sa(dp702
g1
I01
sg13
Vdefault object formatter
p703
sg7
g22
sg9
L2L
sa(dp704
g1
I01
sg7
g24
sg9
L5L
sa(dp705
g1
I01
sg7
g26
sg9
L5L
sa(dp706
g1
I01
sg7
g28
sg9
L5L
sa(dp707
g1
I01
sg7
g30
sg9
L5L
sa(dp708
g1
I01
sg7
g32
sg9
L5L
sa(dp709
g1
I01
sg7
g34
sg9
L5L
sa(dp710
g1
I01
sg7
g36
sg9
L5L
sa(dp711
g1
I01
sg7
V__module__
p712
sg9
L5L
sa(dp713
g1
I01
sg7
g38
sg9
L5L
sa(dp714
g1
I01
sg13
VCreate and return a new object.  See help(type) for accurate signature.
p715
sg7
g41
sg9
L2L
sa(dp716
g1
I01
sg13
Nsg7
g43
sg9
L2L
sa(dp717
g1
I01
sg13
Vhelper for pickle
p718
sg7
g46
sg9
L2L
sa(dp719
g1
I01
sg7
g48
sg9
L5L
sa(dp720
g1
I01
sg7
g50
sg9
L5L
sa(dp721
g1
I01
sg13
V__sizeof__() -> int\u000asize of object in memory, in bytes
p722
sg7
g53
sg9
L2L
sa(dp723
g1
I01
sg7
g55
sg9
L5L
sa(dp724
g1
I01
sg13
VAbstract classes can override this to customize issubclass().\u000a\u000aThis is invoked early on by abc.ABCMeta.__subclasscheck__().\u000aIt should return True, False or NotImplemented.  If it returns\u000aNotImplemented, the normal algorithm is used.  Otherwise, it\u000aoverrides the normal algorithm (and the outcome is cached).\u000a
p725
sg7
g58
sg9
L2L
sa(dp726
g1
I01
sg7
g97
sg9
L5L
sa(dp727
g1
I01
sg7
g60
sg9
L5L
sa(dp728
g1
I01
sg7
V_fields
p729
sg9
L5L
sasg13
Nsg7
VBreak
p730
sg9
L3L
sa(dp731
g1
I01
sg2
(lp732
(dp733
g1
I01
sg7
g8
sg9
L5L
sa(dp734
g1
I01
sg7
g11
sg9
L5L
sa(dp735
g1
I01
sg13
V__dir__() -> list\u000adefault dir() implementation
p736
sg7
g15
sg9
L2L
sa(dp737
g1
I01
sg7
g17
sg9
L5L
sa(dp738
g1
I01
sg7
g19
sg9
L5L
sa(dp739
g1
I01
sg13
Vdefault object formatter
p740
sg7
g22
sg9
L2L
sa(dp741
g1
I01
sg7
g24
sg9
L5L
sa(dp742
g1
I01
sg7
g26
sg9
L5L
sa(dp743
g1
I01
sg7
g28
sg9
L5L
sa(dp744
g1
I01
sg7
g30
sg9
L5L
sa(dp745
g1
I01
sg7
g32
sg9
L5L
sa(dp746
g1
I01
sg7
g34
sg9
L5L
sa(dp747
g1
I01
sg7
g36
sg9
L5L
sa(dp748
g1
I01
sg7
V__module__
p749
sg9
L5L
sa(dp750
g1
I01
sg7
g38
sg9
L5L
sa(dp751
g1
I01
sg13
VCreate and return a new object.  See help(type) for accurate signature.
p752
sg7
g41
sg9
L2L
sa(dp753
g1
I01
sg13
Nsg7
g43
sg9
L2L
sa(dp754
g1
I01
sg13
Vhelper for pickle
p755
sg7
g46
sg9
L2L
sa(dp756
g1
I01
sg7
g48
sg9
L5L
sa(dp757
g1
I01
sg7
g50
sg9
L5L
sa(dp758
g1
I01
sg13
V__sizeof__() -> int\u000asize of object in memory, in bytes
p759
sg7
g53
sg9
L2L
sa(dp760
g1
I01
sg7
g55
sg9
L5L
sa(dp761
g1
I01
sg13
VAbstract classes can override this to customize issubclass().\u000a\u000aThis is invoked early on by abc.ABCMeta.__subclasscheck__().\u000aIt should return True, False or NotImplemented.  If it returns\u000aNotImplemented, the normal algorithm is used.  Otherwise, it\u000aoverrides the normal algorithm (and the outcome is cached).\u000a
p762
sg7
g58
sg9
L2L
sa(dp763
g1
I01
sg7
g97
sg9
L5L
sa(dp764
g1
I01
sg7
g60
sg9
L5L
sa(dp765
g1
I01
sg7
V_fields
p766
sg9
L5L
sasg13
Nsg7
VBytes
p767
sg9
L3L
sa(dp768
g1
I01
sg2
(lp769
(dp770
g1
I01
sg7
g8
sg9
L5L
sa(dp771
g1
I01
sg7
g11
sg9
L5L
sa(dp772
g1
I01
sg13
V__dir__() -> list\u000adefault dir() implementation
p773
sg7
g15
sg9
L2L
sa(dp774
g1
I01
sg7
g17
sg9
L5L
sa(dp775
g1
I01
sg7
g19
sg9
L5L
sa(dp776
g1
I01
sg13
Vdefault object formatter
p777
sg7
g22
sg9
L2L
sa(dp778
g1
I01
sg7
g24
sg9
L5L
sa(dp779
g1
I01
sg7
g26
sg9
L5L
sa(dp780
g1
I01
sg7
g28
sg9
L5L
sa(dp781
g1
I01
sg7
g30
sg9
L5L
sa(dp782
g1
I01
sg7
g32
sg9
L5L
sa(dp783
g1
I01
sg7
g34
sg9
L5L
sa(dp784
g1
I01
sg7
g36
sg9
L5L
sa(dp785
g1
I01
sg7
V__module__
p786
sg9
L5L
sa(dp787
g1
I01
sg7
g38
sg9
L5L
sa(dp788
g1
I01
sg13
VCreate and return a new object.  See help(type) for accurate signature.
p789
sg7
g41
sg9
L2L
sa(dp790
g1
I01
sg13
Nsg7
g43
sg9
L2L
sa(dp791
g1
I01
sg13
Vhelper for pickle
p792
sg7
g46
sg9
L2L
sa(dp793
g1
I01
sg7
g48
sg9
L5L
sa(dp794
g1
I01
sg7
g50
sg9
L5L
sa(dp795
g1
I01
sg13
V__sizeof__() -> int\u000asize of object in memory, in bytes
p796
sg7
g53
sg9
L2L
sa(dp797
g1
I01
sg7
g55
sg9
L5L
sa(dp798
g1
I01
sg13
VAbstract classes can override this to customize issubclass().\u000a\u000aThis is invoked early on by abc.ABCMeta.__subclasscheck__().\u000aIt should return True, False or NotImplemented.  If it returns\u000aNotImplemented, the normal algorithm is used.  Otherwise, it\u000aoverrides the normal algorithm (and the outcome is cached).\u000a
p799
sg7
g58
sg9
L2L
sa(dp800
g1
I01
sg7
g97
sg9
L5L
sa(dp801
g1
I01
sg7
g60
sg9
L5L
sa(dp802
g1
I01
sg7
V_fields
p803
sg9
L5L
sasg13
Nsg7
VCall
p804
sg9
L3L
sa(dp805
g1
I01
sg2
(lp806
(dp807
g1
I01
sg7
g8
sg9
L5L
sa(dp808
g1
I01
sg7
g11
sg9
L5L
sa(dp809
g1
I01
sg13
V__dir__() -> list\u000adefault dir() implementation
p810
sg7
g15
sg9
L2L
sa(dp811
g1
I01
sg7
g17
sg9
L5L
sa(dp812
g1
I01
sg7
g19
sg9
L5L
sa(dp813
g1
I01
sg13
Vdefault object formatter
p814
sg7
g22
sg9
L2L
sa(dp815
g1
I01
sg7
g24
sg9
L5L
sa(dp816
g1
I01
sg7
g26
sg9
L5L
sa(dp817
g1
I01
sg7
g28
sg9
L5L
sa(dp818
g1
I01
sg7
g30
sg9
L5L
sa(dp819
g1
I01
sg7
g32
sg9
L5L
sa(dp820
g1
I01
sg7
g34
sg9
L5L
sa(dp821
g1
I01
sg7
g36
sg9
L5L
sa(dp822
g1
I01
sg7
V__module__
p823
sg9
L5L
sa(dp824
g1
I01
sg7
g38
sg9
L5L
sa(dp825
g1
I01
sg13
VCreate and return a new object.  See help(type) for accurate signature.
p826
sg7
g41
sg9
L2L
sa(dp827
g1
I01
sg13
Nsg7
g43
sg9
L2L
sa(dp828
g1
I01
sg13
Vhelper for pickle
p829
sg7
g46
sg9
L2L
sa(dp830
g1
I01
sg7
g48
sg9
L5L
sa(dp831
g1
I01
sg7
g50
sg9
L5L
sa(dp832
g1
I01
sg13
V__sizeof__() -> int\u000asize of object in memory, in bytes
p833
sg7
g53
sg9
L2L
sa(dp834
g1
I01
sg7
g55
sg9
L5L
sa(dp835
g1
I01
sg13
VAbstract classes can override this to customize issubclass().\u000a\u000aThis is invoked early on by abc.ABCMeta.__subclasscheck__().\u000aIt should return True, False or NotImplemented.  If it returns\u000aNotImplemented, the normal algorithm is used.  Otherwise, it\u000aoverrides the normal algorithm (and the outcome is cached).\u000a
p836
sg7
g58
sg9
L2L
sa(dp837
g1
I01
sg7
g97
sg9
L5L
sa(dp838
g1
I01
sg7
g60
sg9
L5L
sa(dp839
g1
I01
sg7
V_fields
p840
sg9
L5L
sasg13
Nsg7
VClassDef
p841
sg9
L3L
sa(dp842
g1
I01
sg2
(lp843
(dp844
g1
I01
sg7
g8
sg9
L5L
sa(dp845
g1
I01
sg7
g11
sg9
L5L
sa(dp846
g1
I01
sg13
V__dir__() -> list\u000adefault dir() implementation
p847
sg7
g15
sg9
L2L
sa(dp848
g1
I01
sg7
g17
sg9
L5L
sa(dp849
g1
I01
sg7
g19
sg9
L5L
sa(dp850
g1
I01
sg13
Vdefault object formatter
p851
sg7
g22
sg9
L2L
sa(dp852
g1
I01
sg7
g24
sg9
L5L
sa(dp853
g1
I01
sg7
g26
sg9
L5L
sa(dp854
g1
I01
sg7
g28
sg9
L5L
sa(dp855
g1
I01
sg7
g30
sg9
L5L
sa(dp856
g1
I01
sg7
g32
sg9
L5L
sa(dp857
g1
I01
sg7
g34
sg9
L5L
sa(dp858
g1
I01
sg7
g36
sg9
L5L
sa(dp859
g1
I01
sg7
V__module__
p860
sg9
L5L
sa(dp861
g1
I01
sg7
g38
sg9
L5L
sa(dp862
g1
I01
sg13
VCreate and return a new object.  See help(type) for accurate signature.
p863
sg7
g41
sg9
L2L
sa(dp864
g1
I01
sg13
Nsg7
g43
sg9
L2L
sa(dp865
g1
I01
sg13
Vhelper for pickle
p866
sg7
g46
sg9
L2L
sa(dp867
g1
I01
sg7
g48
sg9
L5L
sa(dp868
g1
I01
sg7
g50
sg9
L5L
sa(dp869
g1
I01
sg13
V__sizeof__() -> int\u000asize of object in memory, in bytes
p870
sg7
g53
sg9
L2L
sa(dp871
g1
I01
sg7
g55
sg9
L5L
sa(dp872
g1
I01
sg13
VAbstract classes can override this to customize issubclass().\u000a\u000aThis is invoked early on by abc.ABCMeta.__subclasscheck__().\u000aIt should return True, False or NotImplemented.  If it returns\u000aNotImplemented, the normal algorithm is used.  Otherwise, it\u000aoverrides the normal algorithm (and the outcome is cached).\u000a
p873
sg7
g58
sg9
L2L
sa(dp874
g1
I01
sg7
g97
sg9
L5L
sa(dp875
g1
I01
sg7
g60
sg9
L5L
sa(dp876
g1
I01
sg7
V_fields
p877
sg9
L5L
sasg13
Nsg7
VCompare
p878
sg9
L3L
sa(dp879
g1
I01
sg2
(lp880
(dp881
g1
I01
sg7
g8
sg9
L5L
sa(dp882
g1
I01
sg7
g11
sg9
L5L
sa(dp883
g1
I01
sg13
V__dir__() -> list\u000adefault dir() implementation
p884
sg7
g15
sg9
L2L
sa(dp885
g1
I01
sg7
g17
sg9
L5L
sa(dp886
g1
I01
sg7
g19
sg9
L5L
sa(dp887
g1
I01
sg13
Vdefault object formatter
p888
sg7
g22
sg9
L2L
sa(dp889
g1
I01
sg7
g24
sg9
L5L
sa(dp890
g1
I01
sg7
g26
sg9
L5L
sa(dp891
g1
I01
sg7
g28
sg9
L5L
sa(dp892
g1
I01
sg7
g30
sg9
L5L
sa(dp893
g1
I01
sg7
g32
sg9
L5L
sa(dp894
g1
I01
sg7
g34
sg9
L5L
sa(dp895
g1
I01
sg7
g36
sg9
L5L
sa(dp896
g1
I01
sg7
V__module__
p897
sg9
L5L
sa(dp898
g1
I01
sg7
g38
sg9
L5L
sa(dp899
g1
I01
sg13
VCreate and return a new object.  See help(type) for accurate signature.
p900
sg7
g41
sg9
L2L
sa(dp901
g1
I01
sg13
Nsg7
g43
sg9
L2L
sa(dp902
g1
I01
sg13
Vhelper for pickle
p903
sg7
g46
sg9
L2L
sa(dp904
g1
I01
sg7
g48
sg9
L5L
sa(dp905
g1
I01
sg7
g50
sg9
L5L
sa(dp906
g1
I01
sg13
V__sizeof__() -> int\u000asize of object in memory, in bytes
p907
sg7
g53
sg9
L2L
sa(dp908
g1
I01
sg7
g55
sg9
L5L
sa(dp909
g1
I01
sg13
VAbstract classes can override this to customize issubclass().\u000a\u000aThis is invoked early on by abc.ABCMeta.__subclasscheck__().\u000aIt should return True, False or NotImplemented.  If it returns\u000aNotImplemented, the normal algorithm is used.  Otherwise, it\u000aoverrides the normal algorithm (and the outcome is cached).\u000a
p910
sg7
g58
sg9
L2L
sa(dp911
g1
I01
sg7
g97
sg9
L5L
sa(dp912
g1
I01
sg7
g60
sg9
L5L
sa(dp913
g1
I01
sg7
V_fields
p914
sg9
L5L
sasg13
Nsg7
VContinue
p915
sg9
L3L
sa(dp916
g1
I01
sg2
(lp917
(dp918
g1
I01
sg7
g8
sg9
L5L
sa(dp919
g1
I01
sg7
g11
sg9
L5L
sa(dp920
g1
I01
sg13
V__dir__() -> list\u000adefault dir() implementation
p921
sg7
g15
sg9
L2L
sa(dp922
g1
I01
sg7
g17
sg9
L5L
sa(dp923
g1
I01
sg7
g19
sg9
L5L
sa(dp924
g1
I01
sg13
Vdefault object formatter
p925
sg7
g22
sg9
L2L
sa(dp926
g1
I01
sg7
g24
sg9
L5L
sa(dp927
g1
I01
sg7
g26
sg9
L5L
sa(dp928
g1
I01
sg7
g28
sg9
L5L
sa(dp929
g1
I01
sg7
g30
sg9
L5L
sa(dp930
g1
I01
sg7
g32
sg9
L5L
sa(dp931
g1
I01
sg7
g34
sg9
L5L
sa(dp932
g1
I01
sg7
g36
sg9
L5L
sa(dp933
g1
I01
sg7
V__module__
p934
sg9
L5L
sa(dp935
g1
I01
sg7
g38
sg9
L5L
sa(dp936
g1
I01
sg13
VCreate and return a new object.  See help(type) for accurate signature.
p937
sg7
g41
sg9
L2L
sa(dp938
g1
I01
sg13
Nsg7
g43
sg9
L2L
sa(dp939
g1
I01
sg13
Vhelper for pickle
p940
sg7
g46
sg9
L2L
sa(dp941
g1
I01
sg7
g48
sg9
L5L
sa(dp942
g1
I01
sg7
g50
sg9
L5L
sa(dp943
g1
I01
sg13
V__sizeof__() -> int\u000asize of object in memory, in bytes
p944
sg7
g53
sg9
L2L
sa(dp945
g1
I01
sg7
g55
sg9
L5L
sa(dp946
g1
I01
sg13
VAbstract classes can override this to customize issubclass().\u000a\u000aThis is invoked early on by abc.ABCMeta.__subclasscheck__().\u000aIt should return True, False or NotImplemented.  If it returns\u000aNotImplemented, the normal algorithm is used.  Otherwise, it\u000aoverrides the normal algorithm (and the outcome is cached).\u000a
p947
sg7
g58
sg9
L2L
sa(dp948
g1
I01
sg7
g97
sg9
L5L
sa(dp949
g1
I01
sg7
g60
sg9
L5L
sa(dp950
g1
I01
sg7
V_fields
p951
sg9
L5L
sasg13
Nsg7
VDel
p952
sg9
L3L
sa(dp953
g1
I01
sg2
(lp954
(dp955
g1
I01
sg7
g8
sg9
L5L
sa(dp956
g1
I01
sg7
g11
sg9
L5L
sa(dp957
g1
I01
sg13
V__dir__() -> list\u000adefault dir() implementation
p958
sg7
g15
sg9
L2L
sa(dp959
g1
I01
sg7
g17
sg9
L5L
sa(dp960
g1
I01
sg7
g19
sg9
L5L
sa(dp961
g1
I01
sg13
Vdefault object formatter
p962
sg7
g22
sg9
L2L
sa(dp963
g1
I01
sg7
g24
sg9
L5L
sa(dp964
g1
I01
sg7
g26
sg9
L5L
sa(dp965
g1
I01
sg7
g28
sg9
L5L
sa(dp966
g1
I01
sg7
g30
sg9
L5L
sa(dp967
g1
I01
sg7
g32
sg9
L5L
sa(dp968
g1
I01
sg7
g34
sg9
L5L
sa(dp969
g1
I01
sg7
g36
sg9
L5L
sa(dp970
g1
I01
sg7
V__module__
p971
sg9
L5L
sa(dp972
g1
I01
sg7
g38
sg9
L5L
sa(dp973
g1
I01
sg13
VCreate and return a new object.  See help(type) for accurate signature.
p974
sg7
g41
sg9
L2L
sa(dp975
g1
I01
sg13
Nsg7
g43
sg9
L2L
sa(dp976
g1
I01
sg13
Vhelper for pickle
p977
sg7
g46
sg9
L2L
sa(dp978
g1
I01
sg7
g48
sg9
L5L
sa(dp979
g1
I01
sg7
g50
sg9
L5L
sa(dp980
g1
I01
sg13
V__sizeof__() -> int\u000asize of object in memory, in bytes
p981
sg7
g53
sg9
L2L
sa(dp982
g1
I01
sg7
g55
sg9
L5L
sa(dp983
g1
I01
sg13
VAbstract classes can override this to customize issubclass().\u000a\u000aThis is invoked early on by abc.ABCMeta.__subclasscheck__().\u000aIt should return True, False or NotImplemented.  If it returns\u000aNotImplemented, the normal algorithm is used.  Otherwise, it\u000aoverrides the normal algorithm (and the outcome is cached).\u000a
p984
sg7
g58
sg9
L2L
sa(dp985
g1
I01
sg7
g97
sg9
L5L
sa(dp986
g1
I01
sg7
g60
sg9
L5L
sa(dp987
g1
I01
sg7
V_fields
p988
sg9
L5L
sasg13
Nsg7
VDelete
p989
sg9
L3L
sa(dp990
g1
I01
sg2
(lp991
(dp992
g1
I01
sg7
g8
sg9
L5L
sa(dp993
g1
I01
sg7
g11
sg9
L5L
sa(dp994
g1
I01
sg13
V__dir__() -> list\u000adefault dir() implementation
p995
sg7
g15
sg9
L2L
sa(dp996
g1
I01
sg7
g17
sg9
L5L
sa(dp997
g1
I01
sg7
g19
sg9
L5L
sa(dp998
g1
I01
sg13
Vdefault object formatter
p999
sg7
g22
sg9
L2L
sa(dp1000
g1
I01
sg7
g24
sg9
L5L
sa(dp1001
g1
I01
sg7
g26
sg9
L5L
sa(dp1002
g1
I01
sg7
g28
sg9
L5L
sa(dp1003
g1
I01
sg7
g30
sg9
L5L
sa(dp1004
g1
I01
sg7
g32
sg9
L5L
sa(dp1005
g1
I01
sg7
g34
sg9
L5L
sa(dp1006
g1
I01
sg7
g36
sg9
L5L
sa(dp1007
g1
I01
sg7
V__module__
p1008
sg9
L5L
sa(dp1009
g1
I01
sg7
g38
sg9
L5L
sa(dp1010
g1
I01
sg13
VCreate and return a new object.  See help(type) for accurate signature.
p1011
sg7
g41
sg9
L2L
sa(dp1012
g1
I01
sg13
Nsg7
g43
sg9
L2L
sa(dp1013
g1
I01
sg13
Vhelper for pickle
p1014
sg7
g46
sg9
L2L
sa(dp1015
g1
I01
sg7
g48
sg9
L5L
sa(dp1016
g1
I01
sg7
g50
sg9
L5L
sa(dp1017
g1
I01
sg13
V__sizeof__() -> int\u000asize of object in memory, in bytes
p1018
sg7
g53
sg9
L2L
sa(dp1019
g1
I01
sg7
g55
sg9
L5L
sa(dp1020
g1
I01
sg13
VAbstract classes can override this to customize issubclass().\u000a\u000aThis is invoked early on by abc.ABCMeta.__subclasscheck__().\u000aIt should return True, False or NotImplemented.  If it returns\u000aNotImplemented, the normal algorithm is used.  Otherwise, it\u000aoverrides the normal algorithm (and the outcome is cached).\u000a
p1021
sg7
g58
sg9
L2L
sa(dp1022
g1
I01
sg7
g97
sg9
L5L
sa(dp1023
g1
I01
sg7
g60
sg9
L5L
sa(dp1024
g1
I01
sg7
V_fields
p1025
sg9
L5L
sasg13
Nsg7
VDict
p1026
sg9
L3L
sa(dp1027
g1
I01
sg2
(lp1028
(dp1029
g1
I01
sg7
g8
sg9
L5L
sa(dp1030
g1
I01
sg7
g11
sg9
L5L
sa(dp1031
g1
I01
sg13
V__dir__() -> list\u000adefault dir() implementation
p1032
sg7
g15
sg9
L2L
sa(dp1033
g1
I01
sg7
g17
sg9
L5L
sa(dp1034
g1
I01
sg7
g19
sg9
L5L
sa(dp1035
g1
I01
sg13
Vdefault object formatter
p1036
sg7
g22
sg9
L2L
sa(dp1037
g1
I01
sg7
g24
sg9
L5L
sa(dp1038
g1
I01
sg7
g26
sg9
L5L
sa(dp1039
g1
I01
sg7
g28
sg9
L5L
sa(dp1040
g1
I01
sg7
g30
sg9
L5L
sa(dp1041
g1
I01
sg7
g32
sg9
L5L
sa(dp1042
g1
I01
sg7
g34
sg9
L5L
sa(dp1043
g1
I01
sg7
g36
sg9
L5L
sa(dp1044
g1
I01
sg7
V__module__
p1045
sg9
L5L
sa(dp1046
g1
I01
sg7
g38
sg9
L5L
sa(dp1047
g1
I01
sg13
VCreate and return a new object.  See help(type) for accurate signature.
p1048
sg7
g41
sg9
L2L
sa(dp1049
g1
I01
sg13
Nsg7
g43
sg9
L2L
sa(dp1050
g1
I01
sg13
Vhelper for pickle
p1051
sg7
g46
sg9
L2L
sa(dp1052
g1
I01
sg7
g48
sg9
L5L
sa(dp1053
g1
I01
sg7
g50
sg9
L5L
sa(dp1054
g1
I01
sg13
V__sizeof__() -> int\u000asize of object in memory, in bytes
p1055
sg7
g53
sg9
L2L
sa(dp1056
g1
I01
sg7
g55
sg9
L5L
sa(dp1057
g1
I01
sg13
VAbstract classes can override this to customize issubclass().\u000a\u000aThis is invoked early on by abc.ABCMeta.__subclasscheck__().\u000aIt should return True, False or NotImplemented.  If it returns\u000aNotImplemented, the normal algorithm is used.  Otherwise, it\u000aoverrides the normal algorithm (and the outcome is cached).\u000a
p1058
sg7
g58
sg9
L2L
sa(dp1059
g1
I01
sg7
g97
sg9
L5L
sa(dp1060
g1
I01
sg7
g60
sg9
L5L
sa(dp1061
g1
I01
sg7
V_fields
p1062
sg9
L5L
sasg13
Nsg7
VDictComp
p1063
sg9
L3L
sa(dp1064
g1
I01
sg2
(lp1065
(dp1066
g1
I01
sg7
g8
sg9
L5L
sa(dp1067
g1
I01
sg7
g11
sg9
L5L
sa(dp1068
g1
I01
sg13
V__dir__() -> list\u000adefault dir() implementation
p1069
sg7
g15
sg9
L2L
sa(dp1070
g1
I01
sg7
g17
sg9
L5L
sa(dp1071
g1
I01
sg7
g19
sg9
L5L
sa(dp1072
g1
I01
sg13
Vdefault object formatter
p1073
sg7
g22
sg9
L2L
sa(dp1074
g1
I01
sg7
g24
sg9
L5L
sa(dp1075
g1
I01
sg7
g26
sg9
L5L
sa(dp1076
g1
I01
sg7
g28
sg9
L5L
sa(dp1077
g1
I01
sg7
g30
sg9
L5L
sa(dp1078
g1
I01
sg7
g32
sg9
L5L
sa(dp1079
g1
I01
sg7
g34
sg9
L5L
sa(dp1080
g1
I01
sg7
g36
sg9
L5L
sa(dp1081
g1
I01
sg7
V__module__
p1082
sg9
L5L
sa(dp1083
g1
I01
sg7
g38
sg9
L5L
sa(dp1084
g1
I01
sg13
VCreate and return a new object.  See help(type) for accurate signature.
p1085
sg7
g41
sg9
L2L
sa(dp1086
g1
I01
sg13
Nsg7
g43
sg9
L2L
sa(dp1087
g1
I01
sg13
Vhelper for pickle
p1088
sg7
g46
sg9
L2L
sa(dp1089
g1
I01
sg7
g48
sg9
L5L
sa(dp1090
g1
I01
sg7
g50
sg9
L5L
sa(dp1091
g1
I01
sg13
V__sizeof__() -> int\u000asize of object in memory, in bytes
p1092
sg7
g53
sg9
L2L
sa(dp1093
g1
I01
sg7
g55
sg9
L5L
sa(dp1094
g1
I01
sg13
VAbstract classes can override this to customize issubclass().\u000a\u000aThis is invoked early on by abc.ABCMeta.__subclasscheck__().\u000aIt should return True, False or NotImplemented.  If it returns\u000aNotImplemented, the normal algorithm is used.  Otherwise, it\u000aoverrides the normal algorithm (and the outcome is cached).\u000a
p1095
sg7
g58
sg9
L2L
sa(dp1096
g1
I01
sg7
g97
sg9
L5L
sa(dp1097
g1
I01
sg7
g60
sg9
L5L
sa(dp1098
g1
I01
sg7
V_fields
p1099
sg9
L5L
sasg13
Nsg7
VDiv
p1100
sg9
L3L
sa(dp1101
g1
I01
sg2
(lp1102
(dp1103
g1
I01
sg7
g8
sg9
L5L
sa(dp1104
g1
I01
sg7
g11
sg9
L5L
sa(dp1105
g1
I01
sg13
V__dir__() -> list\u000adefault dir() implementation
p1106
sg7
g15
sg9
L2L
sa(dp1107
g1
I01
sg7
g17
sg9
L5L
sa(dp1108
g1
I01
sg7
g19
sg9
L5L
sa(dp1109
g1
I01
sg13
Vdefault object formatter
p1110
sg7
g22
sg9
L2L
sa(dp1111
g1
I01
sg7
g24
sg9
L5L
sa(dp1112
g1
I01
sg7
g26
sg9
L5L
sa(dp1113
g1
I01
sg7
g28
sg9
L5L
sa(dp1114
g1
I01
sg7
g30
sg9
L5L
sa(dp1115
g1
I01
sg7
g32
sg9
L5L
sa(dp1116
g1
I01
sg7
g34
sg9
L5L
sa(dp1117
g1
I01
sg7
g36
sg9
L5L
sa(dp1118
g1
I01
sg7
V__module__
p1119
sg9
L5L
sa(dp1120
g1
I01
sg7
g38
sg9
L5L
sa(dp1121
g1
I01
sg13
VCreate and return a new object.  See help(type) for accurate signature.
p1122
sg7
g41
sg9
L2L
sa(dp1123
g1
I01
sg13
Nsg7
g43
sg9
L2L
sa(dp1124
g1
I01
sg13
Vhelper for pickle
p1125
sg7
g46
sg9
L2L
sa(dp1126
g1
I01
sg7
g48
sg9
L5L
sa(dp1127
g1
I01
sg7
g50
sg9
L5L
sa(dp1128
g1
I01
sg13
V__sizeof__() -> int\u000asize of object in memory, in bytes
p1129
sg7
g53
sg9
L2L
sa(dp1130
g1
I01
sg7
g55
sg9
L5L
sa(dp1131
g1
I01
sg13
VAbstract classes can override this to customize issubclass().\u000a\u000aThis is invoked early on by abc.ABCMeta.__subclasscheck__().\u000aIt should return True, False or NotImplemented.  If it returns\u000aNotImplemented, the normal algorithm is used.  Otherwise, it\u000aoverrides the normal algorithm (and the outcome is cached).\u000a
p1132
sg7
g58
sg9
L2L
sa(dp1133
g1
I01
sg7
g97
sg9
L5L
sa(dp1134
g1
I01
sg7
g60
sg9
L5L
sa(dp1135
g1
I01
sg7
V_fields
p1136
sg9
L5L
sasg13
Nsg7
VEllipsis
p1137
sg9
L3L
sa(dp1138
g1
I01
sg2
(lp1139
(dp1140
g1
I01
sg7
g8
sg9
L5L
sa(dp1141
g1
I01
sg7
g11
sg9
L5L
sa(dp1142
g1
I01
sg13
V__dir__() -> list\u000adefault dir() implementation
p1143
sg7
g15
sg9
L2L
sa(dp1144
g1
I01
sg7
g17
sg9
L5L
sa(dp1145
g1
I01
sg7
g19
sg9
L5L
sa(dp1146
g1
I01
sg13
Vdefault object formatter
p1147
sg7
g22
sg9
L2L
sa(dp1148
g1
I01
sg7
g24
sg9
L5L
sa(dp1149
g1
I01
sg7
g26
sg9
L5L
sa(dp1150
g1
I01
sg7
g28
sg9
L5L
sa(dp1151
g1
I01
sg7
g30
sg9
L5L
sa(dp1152
g1
I01
sg7
g32
sg9
L5L
sa(dp1153
g1
I01
sg7
g34
sg9
L5L
sa(dp1154
g1
I01
sg7
g36
sg9
L5L
sa(dp1155
g1
I01
sg7
V__module__
p1156
sg9
L5L
sa(dp1157
g1
I01
sg7
g38
sg9
L5L
sa(dp1158
g1
I01
sg13
VCreate and return a new object.  See help(type) for accurate signature.
p1159
sg7
g41
sg9
L2L
sa(dp1160
g1
I01
sg13
Nsg7
g43
sg9
L2L
sa(dp1161
g1
I01
sg13
Vhelper for pickle
p1162
sg7
g46
sg9
L2L
sa(dp1163
g1
I01
sg7
g48
sg9
L5L
sa(dp1164
g1
I01
sg7
g50
sg9
L5L
sa(dp1165
g1
I01
sg13
V__sizeof__() -> int\u000asize of object in memory, in bytes
p1166
sg7
g53
sg9
L2L
sa(dp1167
g1
I01
sg7
g55
sg9
L5L
sa(dp1168
g1
I01
sg13
VAbstract classes can override this to customize issubclass().\u000a\u000aThis is invoked early on by abc.ABCMeta.__subclasscheck__().\u000aIt should return True, False or NotImplemented.  If it returns\u000aNotImplemented, the normal algorithm is used.  Otherwise, it\u000aoverrides the normal algorithm (and the outcome is cached).\u000a
p1169
sg7
g58
sg9
L2L
sa(dp1170
g1
I01
sg7
g97
sg9
L5L
sa(dp1171
g1
I01
sg7
g60
sg9
L5L
sa(dp1172
g1
I01
sg7
V_fields
p1173
sg9
L5L
sasg13
Nsg7
VEq
p1174
sg9
L3L
sa(dp1175
g1
I01
sg2
(lp1176
(dp1177
g1
I01
sg7
g8
sg9
L5L
sa(dp1178
g1
I01
sg7
g11
sg9
L5L
sa(dp1179
g1
I01
sg13
V__dir__() -> list\u000adefault dir() implementation
p1180
sg7
g15
sg9
L2L
sa(dp1181
g1
I01
sg7
g17
sg9
L5L
sa(dp1182
g1
I01
sg7
g19
sg9
L5L
sa(dp1183
g1
I01
sg13
Vdefault object formatter
p1184
sg7
g22
sg9
L2L
sa(dp1185
g1
I01
sg7
g24
sg9
L5L
sa(dp1186
g1
I01
sg7
g26
sg9
L5L
sa(dp1187
g1
I01
sg7
g28
sg9
L5L
sa(dp1188
g1
I01
sg7
g30
sg9
L5L
sa(dp1189
g1
I01
sg7
g32
sg9
L5L
sa(dp1190
g1
I01
sg7
g34
sg9
L5L
sa(dp1191
g1
I01
sg7
g36
sg9
L5L
sa(dp1192
g1
I01
sg7
V__module__
p1193
sg9
L5L
sa(dp1194
g1
I01
sg7
g38
sg9
L5L
sa(dp1195
g1
I01
sg13
VCreate and return a new object.  See help(type) for accurate signature.
p1196
sg7
g41
sg9
L2L
sa(dp1197
g1
I01
sg13
Nsg7
g43
sg9
L2L
sa(dp1198
g1
I01
sg13
Vhelper for pickle
p1199
sg7
g46
sg9
L2L
sa(dp1200
g1
I01
sg7
g48
sg9
L5L
sa(dp1201
g1
I01
sg7
g50
sg9
L5L
sa(dp1202
g1
I01
sg13
V__sizeof__() -> int\u000asize of object in memory, in bytes
p1203
sg7
g53
sg9
L2L
sa(dp1204
g1
I01
sg7
g55
sg9
L5L
sa(dp1205
g1
I01
sg13
VAbstract classes can override this to customize issubclass().\u000a\u000aThis is invoked early on by abc.ABCMeta.__subclasscheck__().\u000aIt should return True, False or NotImplemented.  If it returns\u000aNotImplemented, the normal algorithm is used.  Otherwise, it\u000aoverrides the normal algorithm (and the outcome is cached).\u000a
p1206
sg7
g58
sg9
L2L
sa(dp1207
g1
I01
sg7
g97
sg9
L5L
sa(dp1208
g1
I01
sg7
g60
sg9
L5L
sa(dp1209
g1
I01
sg7
V_fields
p1210
sg9
L5L
sasg13
Nsg7
VExceptHandler
p1211
sg9
L3L
sa(dp1212
g1
I01
sg2
(lp1213
(dp1214
g1
I01
sg7
g8
sg9
L5L
sa(dp1215
g1
I01
sg7
g11
sg9
L5L
sa(dp1216
g1
I01
sg13
V__dir__() -> list\u000adefault dir() implementation
p1217
sg7
g15
sg9
L2L
sa(dp1218
g1
I01
sg7
g17
sg9
L5L
sa(dp1219
g1
I01
sg7
g19
sg9
L5L
sa(dp1220
g1
I01
sg13
Vdefault object formatter
p1221
sg7
g22
sg9
L2L
sa(dp1222
g1
I01
sg7
g24
sg9
L5L
sa(dp1223
g1
I01
sg7
g26
sg9
L5L
sa(dp1224
g1
I01
sg7
g28
sg9
L5L
sa(dp1225
g1
I01
sg7
g30
sg9
L5L
sa(dp1226
g1
I01
sg7
g32
sg9
L5L
sa(dp1227
g1
I01
sg7
g34
sg9
L5L
sa(dp1228
g1
I01
sg7
g36
sg9
L5L
sa(dp1229
g1
I01
sg7
V__module__
p1230
sg9
L5L
sa(dp1231
g1
I01
sg7
g38
sg9
L5L
sa(dp1232
g1
I01
sg13
VCreate and return a new object.  See help(type) for accurate signature.
p1233
sg7
g41
sg9
L2L
sa(dp1234
g1
I01
sg13
Nsg7
g43
sg9
L2L
sa(dp1235
g1
I01
sg13
Vhelper for pickle
p1236
sg7
g46
sg9
L2L
sa(dp1237
g1
I01
sg7
g48
sg9
L5L
sa(dp1238
g1
I01
sg7
g50
sg9
L5L
sa(dp1239
g1
I01
sg13
V__sizeof__() -> int\u000asize of object in memory, in bytes
p1240
sg7
g53
sg9
L2L
sa(dp1241
g1
I01
sg7
g55
sg9
L5L
sa(dp1242
g1
I01
sg13
VAbstract classes can override this to customize issubclass().\u000a\u000aThis is invoked early on by abc.ABCMeta.__subclasscheck__().\u000aIt should return True, False or NotImplemented.  If it returns\u000aNotImplemented, the normal algorithm is used.  Otherwise, it\u000aoverrides the normal algorithm (and the outcome is cached).\u000a
p1243
sg7
g58
sg9
L2L
sa(dp1244
g1
I01
sg7
g97
sg9
L5L
sa(dp1245
g1
I01
sg7
g60
sg9
L5L
sa(dp1246
g1
I01
sg7
V_fields
p1247
sg9
L5L
sasg13
Nsg7
VExpr
p1248
sg9
L3L
sa(dp1249
g1
I01
sg2
(lp1250
(dp1251
g1
I01
sg7
g8
sg9
L5L
sa(dp1252
g1
I01
sg7
g11
sg9
L5L
sa(dp1253
g1
I01
sg13
V__dir__() -> list\u000adefault dir() implementation
p1254
sg7
g15
sg9
L2L
sa(dp1255
g1
I01
sg7
g17
sg9
L5L
sa(dp1256
g1
I01
sg7
g19
sg9
L5L
sa(dp1257
g1
I01
sg13
Vdefault object formatter
p1258
sg7
g22
sg9
L2L
sa(dp1259
g1
I01
sg7
g24
sg9
L5L
sa(dp1260
g1
I01
sg7
g26
sg9
L5L
sa(dp1261
g1
I01
sg7
g28
sg9
L5L
sa(dp1262
g1
I01
sg7
g30
sg9
L5L
sa(dp1263
g1
I01
sg7
g32
sg9
L5L
sa(dp1264
g1
I01
sg7
g34
sg9
L5L
sa(dp1265
g1
I01
sg7
g36
sg9
L5L
sa(dp1266
g1
I01
sg7
V__module__
p1267
sg9
L5L
sa(dp1268
g1
I01
sg7
g38
sg9
L5L
sa(dp1269
g1
I01
sg13
VCreate and return a new object.  See help(type) for accurate signature.
p1270
sg7
g41
sg9
L2L
sa(dp1271
g1
I01
sg13
Nsg7
g43
sg9
L2L
sa(dp1272
g1
I01
sg13
Vhelper for pickle
p1273
sg7
g46
sg9
L2L
sa(dp1274
g1
I01
sg7
g48
sg9
L5L
sa(dp1275
g1
I01
sg7
g50
sg9
L5L
sa(dp1276
g1
I01
sg13
V__sizeof__() -> int\u000asize of object in memory, in bytes
p1277
sg7
g53
sg9
L2L
sa(dp1278
g1
I01
sg7
g55
sg9
L5L
sa(dp1279
g1
I01
sg13
VAbstract classes can override this to customize issubclass().\u000a\u000aThis is invoked early on by abc.ABCMeta.__subclasscheck__().\u000aIt should return True, False or NotImplemented.  If it returns\u000aNotImplemented, the normal algorithm is used.  Otherwise, it\u000aoverrides the normal algorithm (and the outcome is cached).\u000a
p1280
sg7
g58
sg9
L2L
sa(dp1281
g1
I01
sg7
g97
sg9
L5L
sa(dp1282
g1
I01
sg7
g60
sg9
L5L
sa(dp1283
g1
I01
sg7
V_fields
p1284
sg9
L5L
sasg13
Nsg7
VExpression
p1285
sg9
L3L
sa(dp1286
g1
I01
sg2
(lp1287
(dp1288
g1
I01
sg7
g8
sg9
L5L
sa(dp1289
g1
I01
sg7
g11
sg9
L5L
sa(dp1290
g1
I01
sg13
V__dir__() -> list\u000adefault dir() implementation
p1291
sg7
g15
sg9
L2L
sa(dp1292
g1
I01
sg7
g17
sg9
L5L
sa(dp1293
g1
I01
sg7
g19
sg9
L5L
sa(dp1294
g1
I01
sg13
Vdefault object formatter
p1295
sg7
g22
sg9
L2L
sa(dp1296
g1
I01
sg7
g24
sg9
L5L
sa(dp1297
g1
I01
sg7
g26
sg9
L5L
sa(dp1298
g1
I01
sg7
g28
sg9
L5L
sa(dp1299
g1
I01
sg7
g30
sg9
L5L
sa(dp1300
g1
I01
sg7
g32
sg9
L5L
sa(dp1301
g1
I01
sg7
g34
sg9
L5L
sa(dp1302
g1
I01
sg7
g36
sg9
L5L
sa(dp1303
g1
I01
sg7
V__module__
p1304
sg9
L5L
sa(dp1305
g1
I01
sg7
g38
sg9
L5L
sa(dp1306
g1
I01
sg13
VCreate and return a new object.  See help(type) for accurate signature.
p1307
sg7
g41
sg9
L2L
sa(dp1308
g1
I01
sg13
Nsg7
g43
sg9
L2L
sa(dp1309
g1
I01
sg13
Vhelper for pickle
p1310
sg7
g46
sg9
L2L
sa(dp1311
g1
I01
sg7
g48
sg9
L5L
sa(dp1312
g1
I01
sg7
g50
sg9
L5L
sa(dp1313
g1
I01
sg13
V__sizeof__() -> int\u000asize of object in memory, in bytes
p1314
sg7
g53
sg9
L2L
sa(dp1315
g1
I01
sg7
g55
sg9
L5L
sa(dp1316
g1
I01
sg13
VAbstract classes can override this to customize issubclass().\u000a\u000aThis is invoked early on by abc.ABCMeta.__subclasscheck__().\u000aIt should return True, False or NotImplemented.  If it returns\u000aNotImplemented, the normal algorithm is used.  Otherwise, it\u000aoverrides the normal algorithm (and the outcome is cached).\u000a
p1317
sg7
g58
sg9
L2L
sa(dp1318
g1
I01
sg7
g97
sg9
L5L
sa(dp1319
g1
I01
sg7
g60
sg9
L5L
sa(dp1320
g1
I01
sg7
V_fields
p1321
sg9
L5L
sasg13
Nsg7
VExtSlice
p1322
sg9
L3L
sa(dp1323
g1
I01
sg2
(lp1324
(dp1325
g1
I01
sg7
g8
sg9
L5L
sa(dp1326
g1
I01
sg7
g11
sg9
L5L
sa(dp1327
g1
I01
sg13
V__dir__() -> list\u000adefault dir() implementation
p1328
sg7
g15
sg9
L2L
sa(dp1329
g1
I01
sg7
g17
sg9
L5L
sa(dp1330
g1
I01
sg7
g19
sg9
L5L
sa(dp1331
g1
I01
sg13
Vdefault object formatter
p1332
sg7
g22
sg9
L2L
sa(dp1333
g1
I01
sg7
g24
sg9
L5L
sa(dp1334
g1
I01
sg7
g26
sg9
L5L
sa(dp1335
g1
I01
sg7
g28
sg9
L5L
sa(dp1336
g1
I01
sg7
g30
sg9
L5L
sa(dp1337
g1
I01
sg7
g32
sg9
L5L
sa(dp1338
g1
I01
sg7
g34
sg9
L5L
sa(dp1339
g1
I01
sg7
g36
sg9
L5L
sa(dp1340
g1
I01
sg7
V__module__
p1341
sg9
L5L
sa(dp1342
g1
I01
sg7
g38
sg9
L5L
sa(dp1343
g1
I01
sg13
VCreate and return a new object.  See help(type) for accurate signature.
p1344
sg7
g41
sg9
L2L
sa(dp1345
g1
I01
sg13
Nsg7
g43
sg9
L2L
sa(dp1346
g1
I01
sg13
Vhelper for pickle
p1347
sg7
g46
sg9
L2L
sa(dp1348
g1
I01
sg7
g48
sg9
L5L
sa(dp1349
g1
I01
sg7
g50
sg9
L5L
sa(dp1350
g1
I01
sg13
V__sizeof__() -> int\u000asize of object in memory, in bytes
p1351
sg7
g53
sg9
L2L
sa(dp1352
g1
I01
sg7
g55
sg9
L5L
sa(dp1353
g1
I01
sg13
VAbstract classes can override this to customize issubclass().\u000a\u000aThis is invoked early on by abc.ABCMeta.__subclasscheck__().\u000aIt should return True, False or NotImplemented.  If it returns\u000aNotImplemented, the normal algorithm is used.  Otherwise, it\u000aoverrides the normal algorithm (and the outcome is cached).\u000a
p1354
sg7
g58
sg9
L2L
sa(dp1355
g1
I01
sg7
g97
sg9
L5L
sa(dp1356
g1
I01
sg7
g60
sg9
L5L
sa(dp1357
g1
I01
sg7
V_fields
p1358
sg9
L5L
sasg13
Nsg7
VFloorDiv
p1359
sg9
L3L
sa(dp1360
g1
I01
sg2
(lp1361
(dp1362
g1
I01
sg7
g8
sg9
L5L
sa(dp1363
g1
I01
sg7
g11
sg9
L5L
sa(dp1364
g1
I01
sg13
V__dir__() -> list\u000adefault dir() implementation
p1365
sg7
g15
sg9
L2L
sa(dp1366
g1
I01
sg7
g17
sg9
L5L
sa(dp1367
g1
I01
sg7
g19
sg9
L5L
sa(dp1368
g1
I01
sg13
Vdefault object formatter
p1369
sg7
g22
sg9
L2L
sa(dp1370
g1
I01
sg7
g24
sg9
L5L
sa(dp1371
g1
I01
sg7
g26
sg9
L5L
sa(dp1372
g1
I01
sg7
g28
sg9
L5L
sa(dp1373
g1
I01
sg7
g30
sg9
L5L
sa(dp1374
g1
I01
sg7
g32
sg9
L5L
sa(dp1375
g1
I01
sg7
g34
sg9
L5L
sa(dp1376
g1
I01
sg7
g36
sg9
L5L
sa(dp1377
g1
I01
sg7
V__module__
p1378
sg9
L5L
sa(dp1379
g1
I01
sg7
g38
sg9
L5L
sa(dp1380
g1
I01
sg13
VCreate and return a new object.  See help(type) for accurate signature.
p1381
sg7
g41
sg9
L2L
sa(dp1382
g1
I01
sg13
Nsg7
g43
sg9
L2L
sa(dp1383
g1
I01
sg13
Vhelper for pickle
p1384
sg7
g46
sg9
L2L
sa(dp1385
g1
I01
sg7
g48
sg9
L5L
sa(dp1386
g1
I01
sg7
g50
sg9
L5L
sa(dp1387
g1
I01
sg13
V__sizeof__() -> int\u000asize of object in memory, in bytes
p1388
sg7
g53
sg9
L2L
sa(dp1389
g1
I01
sg7
g55
sg9
L5L
sa(dp1390
g1
I01
sg13
VAbstract classes can override this to customize issubclass().\u000a\u000aThis is invoked early on by abc.ABCMeta.__subclasscheck__().\u000aIt should return True, False or NotImplemented.  If it returns\u000aNotImplemented, the normal algorithm is used.  Otherwise, it\u000aoverrides the normal algorithm (and the outcome is cached).\u000a
p1391
sg7
g58
sg9
L2L
sa(dp1392
g1
I01
sg7
g97
sg9
L5L
sa(dp1393
g1
I01
sg7
g60
sg9
L5L
sa(dp1394
g1
I01
sg7
V_fields
p1395
sg9
L5L
sasg13
Nsg7
VFor
p1396
sg9
L3L
sa(dp1397
g1
I01
sg2
(lp1398
(dp1399
g1
I01
sg7
g8
sg9
L5L
sa(dp1400
g1
I01
sg7
g11
sg9
L5L
sa(dp1401
g1
I01
sg13
V__dir__() -> list\u000adefault dir() implementation
p1402
sg7
g15
sg9
L2L
sa(dp1403
g1
I01
sg7
g17
sg9
L5L
sa(dp1404
g1
I01
sg7
g19
sg9
L5L
sa(dp1405
g1
I01
sg13
Vdefault object formatter
p1406
sg7
g22
sg9
L2L
sa(dp1407
g1
I01
sg7
g24
sg9
L5L
sa(dp1408
g1
I01
sg7
g26
sg9
L5L
sa(dp1409
g1
I01
sg7
g28
sg9
L5L
sa(dp1410
g1
I01
sg7
g30
sg9
L5L
sa(dp1411
g1
I01
sg7
g32
sg9
L5L
sa(dp1412
g1
I01
sg7
g34
sg9
L5L
sa(dp1413
g1
I01
sg7
g36
sg9
L5L
sa(dp1414
g1
I01
sg7
V__module__
p1415
sg9
L5L
sa(dp1416
g1
I01
sg7
g38
sg9
L5L
sa(dp1417
g1
I01
sg13
VCreate and return a new object.  See help(type) for accurate signature.
p1418
sg7
g41
sg9
L2L
sa(dp1419
g1
I01
sg13
Nsg7
g43
sg9
L2L
sa(dp1420
g1
I01
sg13
Vhelper for pickle
p1421
sg7
g46
sg9
L2L
sa(dp1422
g1
I01
sg7
g48
sg9
L5L
sa(dp1423
g1
I01
sg7
g50
sg9
L5L
sa(dp1424
g1
I01
sg13
V__sizeof__() -> int\u000asize of object in memory, in bytes
p1425
sg7
g53
sg9
L2L
sa(dp1426
g1
I01
sg7
g55
sg9
L5L
sa(dp1427
g1
I01
sg13
VAbstract classes can override this to customize issubclass().\u000a\u000aThis is invoked early on by abc.ABCMeta.__subclasscheck__().\u000aIt should return True, False or NotImplemented.  If it returns\u000aNotImplemented, the normal algorithm is used.  Otherwise, it\u000aoverrides the normal algorithm (and the outcome is cached).\u000a
p1428
sg7
g58
sg9
L2L
sa(dp1429
g1
I01
sg7
g97
sg9
L5L
sa(dp1430
g1
I01
sg7
g60
sg9
L5L
sa(dp1431
g1
I01
sg7
V_fields
p1432
sg9
L5L
sasg13
Nsg7
VFunctionDef
p1433
sg9
L3L
sa(dp1434
g1
I01
sg2
(lp1435
(dp1436
g1
I01
sg7
g8
sg9
L5L
sa(dp1437
g1
I01
sg7
g11
sg9
L5L
sa(dp1438
g1
I01
sg13
V__dir__() -> list\u000adefault dir() implementation
p1439
sg7
g15
sg9
L2L
sa(dp1440
g1
I01
sg7
g17
sg9
L5L
sa(dp1441
g1
I01
sg7
g19
sg9
L5L
sa(dp1442
g1
I01
sg13
Vdefault object formatter
p1443
sg7
g22
sg9
L2L
sa(dp1444
g1
I01
sg7
g24
sg9
L5L
sa(dp1445
g1
I01
sg7
g26
sg9
L5L
sa(dp1446
g1
I01
sg7
g28
sg9
L5L
sa(dp1447
g1
I01
sg7
g30
sg9
L5L
sa(dp1448
g1
I01
sg7
g32
sg9
L5L
sa(dp1449
g1
I01
sg7
g34
sg9
L5L
sa(dp1450
g1
I01
sg7
g36
sg9
L5L
sa(dp1451
g1
I01
sg7
V__module__
p1452
sg9
L5L
sa(dp1453
g1
I01
sg7
g38
sg9
L5L
sa(dp1454
g1
I01
sg13
VCreate and return a new object.  See help(type) for accurate signature.
p1455
sg7
g41
sg9
L2L
sa(dp1456
g1
I01
sg13
Nsg7
g43
sg9
L2L
sa(dp1457
g1
I01
sg13
Vhelper for pickle
p1458
sg7
g46
sg9
L2L
sa(dp1459
g1
I01
sg7
g48
sg9
L5L
sa(dp1460
g1
I01
sg7
g50
sg9
L5L
sa(dp1461
g1
I01
sg13
V__sizeof__() -> int\u000asize of object in memory, in bytes
p1462
sg7
g53
sg9
L2L
sa(dp1463
g1
I01
sg7
g55
sg9
L5L
sa(dp1464
g1
I01
sg13
VAbstract classes can override this to customize issubclass().\u000a\u000aThis is invoked early on by abc.ABCMeta.__subclasscheck__().\u000aIt should return True, False or NotImplemented.  If it returns\u000aNotImplemented, the normal algorithm is used.  Otherwise, it\u000aoverrides the normal algorithm (and the outcome is cached).\u000a
p1465
sg7
g58
sg9
L2L
sa(dp1466
g1
I01
sg7
g97
sg9
L5L
sa(dp1467
g1
I01
sg7
g60
sg9
L5L
sa(dp1468
g1
I01
sg7
V_fields
p1469
sg9
L5L
sasg13
Nsg7
VGeneratorExp
p1470
sg9
L3L
sa(dp1471
g1
I01
sg2
(lp1472
(dp1473
g1
I01
sg7
g8
sg9
L5L
sa(dp1474
g1
I01
sg7
g11
sg9
L5L
sa(dp1475
g1
I01
sg13
V__dir__() -> list\u000adefault dir() implementation
p1476
sg7
g15
sg9
L2L
sa(dp1477
g1
I01
sg7
g17
sg9
L5L
sa(dp1478
g1
I01
sg7
g19
sg9
L5L
sa(dp1479
g1
I01
sg13
Vdefault object formatter
p1480
sg7
g22
sg9
L2L
sa(dp1481
g1
I01
sg7
g24
sg9
L5L
sa(dp1482
g1
I01
sg7
g26
sg9
L5L
sa(dp1483
g1
I01
sg7
g28
sg9
L5L
sa(dp1484
g1
I01
sg7
g30
sg9
L5L
sa(dp1485
g1
I01
sg7
g32
sg9
L5L
sa(dp1486
g1
I01
sg7
g34
sg9
L5L
sa(dp1487
g1
I01
sg7
g36
sg9
L5L
sa(dp1488
g1
I01
sg7
V__module__
p1489
sg9
L5L
sa(dp1490
g1
I01
sg7
g38
sg9
L5L
sa(dp1491
g1
I01
sg13
VCreate and return a new object.  See help(type) for accurate signature.
p1492
sg7
g41
sg9
L2L
sa(dp1493
g1
I01
sg13
Nsg7
g43
sg9
L2L
sa(dp1494
g1
I01
sg13
Vhelper for pickle
p1495
sg7
g46
sg9
L2L
sa(dp1496
g1
I01
sg7
g48
sg9
L5L
sa(dp1497
g1
I01
sg7
g50
sg9
L5L
sa(dp1498
g1
I01
sg13
V__sizeof__() -> int\u000asize of object in memory, in bytes
p1499
sg7
g53
sg9
L2L
sa(dp1500
g1
I01
sg7
g55
sg9
L5L
sa(dp1501
g1
I01
sg13
VAbstract classes can override this to customize issubclass().\u000a\u000aThis is invoked early on by abc.ABCMeta.__subclasscheck__().\u000aIt should return True, False or NotImplemented.  If it returns\u000aNotImplemented, the normal algorithm is used.  Otherwise, it\u000aoverrides the normal algorithm (and the outcome is cached).\u000a
p1502
sg7
g58
sg9
L2L
sa(dp1503
g1
I01
sg7
g97
sg9
L5L
sa(dp1504
g1
I01
sg7
g60
sg9
L5L
sa(dp1505
g1
I01
sg7
V_fields
p1506
sg9
L5L
sasg13
Nsg7
VGlobal
p1507
sg9
L3L
sa(dp1508
g1
I01
sg2
(lp1509
(dp1510
g1
I01
sg7
g8
sg9
L5L
sa(dp1511
g1
I01
sg7
g11
sg9
L5L
sa(dp1512
g1
I01
sg13
V__dir__() -> list\u000adefault dir() implementation
p1513
sg7
g15
sg9
L2L
sa(dp1514
g1
I01
sg7
g17
sg9
L5L
sa(dp1515
g1
I01
sg7
g19
sg9
L5L
sa(dp1516
g1
I01
sg13
Vdefault object formatter
p1517
sg7
g22
sg9
L2L
sa(dp1518
g1
I01
sg7
g24
sg9
L5L
sa(dp1519
g1
I01
sg7
g26
sg9
L5L
sa(dp1520
g1
I01
sg7
g28
sg9
L5L
sa(dp1521
g1
I01
sg7
g30
sg9
L5L
sa(dp1522
g1
I01
sg7
g32
sg9
L5L
sa(dp1523
g1
I01
sg7
g34
sg9
L5L
sa(dp1524
g1
I01
sg7
g36
sg9
L5L
sa(dp1525
g1
I01
sg7
V__module__
p1526
sg9
L5L
sa(dp1527
g1
I01
sg7
g38
sg9
L5L
sa(dp1528
g1
I01
sg13
VCreate and return a new object.  See help(type) for accurate signature.
p1529
sg7
g41
sg9
L2L
sa(dp1530
g1
I01
sg13
Nsg7
g43
sg9
L2L
sa(dp1531
g1
I01
sg13
Vhelper for pickle
p1532
sg7
g46
sg9
L2L
sa(dp1533
g1
I01
sg7
g48
sg9
L5L
sa(dp1534
g1
I01
sg7
g50
sg9
L5L
sa(dp1535
g1
I01
sg13
V__sizeof__() -> int\u000asize of object in memory, in bytes
p1536
sg7
g53
sg9
L2L
sa(dp1537
g1
I01
sg7
g55
sg9
L5L
sa(dp1538
g1
I01
sg13
VAbstract classes can override this to customize issubclass().\u000a\u000aThis is invoked early on by abc.ABCMeta.__subclasscheck__().\u000aIt should return True, False or NotImplemented.  If it returns\u000aNotImplemented, the normal algorithm is used.  Otherwise, it\u000aoverrides the normal algorithm (and the outcome is cached).\u000a
p1539
sg7
g58
sg9
L2L
sa(dp1540
g1
I01
sg7
g97
sg9
L5L
sa(dp1541
g1
I01
sg7
g60
sg9
L5L
sa(dp1542
g1
I01
sg7
V_fields
p1543
sg9
L5L
sasg13
Nsg7
VGt
p1544
sg9
L3L
sa(dp1545
g1
I01
sg2
(lp1546
(dp1547
g1
I01
sg7
g8
sg9
L5L
sa(dp1548
g1
I01
sg7
g11
sg9
L5L
sa(dp1549
g1
I01
sg13
V__dir__() -> list\u000adefault dir() implementation
p1550
sg7
g15
sg9
L2L
sa(dp1551
g1
I01
sg7
g17
sg9
L5L
sa(dp1552
g1
I01
sg7
g19
sg9
L5L
sa(dp1553
g1
I01
sg13
Vdefault object formatter
p1554
sg7
g22
sg9
L2L
sa(dp1555
g1
I01
sg7
g24
sg9
L5L
sa(dp1556
g1
I01
sg7
g26
sg9
L5L
sa(dp1557
g1
I01
sg7
g28
sg9
L5L
sa(dp1558
g1
I01
sg7
g30
sg9
L5L
sa(dp1559
g1
I01
sg7
g32
sg9
L5L
sa(dp1560
g1
I01
sg7
g34
sg9
L5L
sa(dp1561
g1
I01
sg7
g36
sg9
L5L
sa(dp1562
g1
I01
sg7
V__module__
p1563
sg9
L5L
sa(dp1564
g1
I01
sg7
g38
sg9
L5L
sa(dp1565
g1
I01
sg13
VCreate and return a new object.  See help(type) for accurate signature.
p1566
sg7
g41
sg9
L2L
sa(dp1567
g1
I01
sg13
Nsg7
g43
sg9
L2L
sa(dp1568
g1
I01
sg13
Vhelper for pickle
p1569
sg7
g46
sg9
L2L
sa(dp1570
g1
I01
sg7
g48
sg9
L5L
sa(dp1571
g1
I01
sg7
g50
sg9
L5L
sa(dp1572
g1
I01
sg13
V__sizeof__() -> int\u000asize of object in memory, in bytes
p1573
sg7
g53
sg9
L2L
sa(dp1574
g1
I01
sg7
g55
sg9
L5L
sa(dp1575
g1
I01
sg13
VAbstract classes can override this to customize issubclass().\u000a\u000aThis is invoked early on by abc.ABCMeta.__subclasscheck__().\u000aIt should return True, False or NotImplemented.  If it returns\u000aNotImplemented, the normal algorithm is used.  Otherwise, it\u000aoverrides the normal algorithm (and the outcome is cached).\u000a
p1576
sg7
g58
sg9
L2L
sa(dp1577
g1
I01
sg7
g97
sg9
L5L
sa(dp1578
g1
I01
sg7
g60
sg9
L5L
sa(dp1579
g1
I01
sg7
V_fields
p1580
sg9
L5L
sasg13
Nsg7
VGtE
p1581
sg9
L3L
sa(dp1582
g1
I01
sg2
(lp1583
(dp1584
g1
I01
sg7
g8
sg9
L5L
sa(dp1585
g1
I01
sg7
g11
sg9
L5L
sa(dp1586
g1
I01
sg13
V__dir__() -> list\u000adefault dir() implementation
p1587
sg7
g15
sg9
L2L
sa(dp1588
g1
I01
sg7
g17
sg9
L5L
sa(dp1589
g1
I01
sg7
g19
sg9
L5L
sa(dp1590
g1
I01
sg13
Vdefault object formatter
p1591
sg7
g22
sg9
L2L
sa(dp1592
g1
I01
sg7
g24
sg9
L5L
sa(dp1593
g1
I01
sg7
g26
sg9
L5L
sa(dp1594
g1
I01
sg7
g28
sg9
L5L
sa(dp1595
g1
I01
sg7
g30
sg9
L5L
sa(dp1596
g1
I01
sg7
g32
sg9
L5L
sa(dp1597
g1
I01
sg7
g34
sg9
L5L
sa(dp1598
g1
I01
sg7
g36
sg9
L5L
sa(dp1599
g1
I01
sg7
V__module__
p1600
sg9
L5L
sa(dp1601
g1
I01
sg7
g38
sg9
L5L
sa(dp1602
g1
I01
sg13
VCreate and return a new object.  See help(type) for accurate signature.
p1603
sg7
g41
sg9
L2L
sa(dp1604
g1
I01
sg13
Nsg7
g43
sg9
L2L
sa(dp1605
g1
I01
sg13
Vhelper for pickle
p1606
sg7
g46
sg9
L2L
sa(dp1607
g1
I01
sg7
g48
sg9
L5L
sa(dp1608
g1
I01
sg7
g50
sg9
L5L
sa(dp1609
g1
I01
sg13
V__sizeof__() -> int\u000asize of object in memory, in bytes
p1610
sg7
g53
sg9
L2L
sa(dp1611
g1
I01
sg7
g55
sg9
L5L
sa(dp1612
g1
I01
sg13
VAbstract classes can override this to customize issubclass().\u000a\u000aThis is invoked early on by abc.ABCMeta.__subclasscheck__().\u000aIt should return True, False or NotImplemented.  If it returns\u000aNotImplemented, the normal algorithm is used.  Otherwise, it\u000aoverrides the normal algorithm (and the outcome is cached).\u000a
p1613
sg7
g58
sg9
L2L
sa(dp1614
g1
I01
sg7
g97
sg9
L5L
sa(dp1615
g1
I01
sg7
g60
sg9
L5L
sa(dp1616
g1
I01
sg7
V_fields
p1617
sg9
L5L
sasg13
Nsg7
VIf
p1618
sg9
L3L
sa(dp1619
g1
I01
sg2
(lp1620
(dp1621
g1
I01
sg7
g8
sg9
L5L
sa(dp1622
g1
I01
sg7
g11
sg9
L5L
sa(dp1623
g1
I01
sg13
V__dir__() -> list\u000adefault dir() implementation
p1624
sg7
g15
sg9
L2L
sa(dp1625
g1
I01
sg7
g17
sg9
L5L
sa(dp1626
g1
I01
sg7
g19
sg9
L5L
sa(dp1627
g1
I01
sg13
Vdefault object formatter
p1628
sg7
g22
sg9
L2L
sa(dp1629
g1
I01
sg7
g24
sg9
L5L
sa(dp1630
g1
I01
sg7
g26
sg9
L5L
sa(dp1631
g1
I01
sg7
g28
sg9
L5L
sa(dp1632
g1
I01
sg7
g30
sg9
L5L
sa(dp1633
g1
I01
sg7
g32
sg9
L5L
sa(dp1634
g1
I01
sg7
g34
sg9
L5L
sa(dp1635
g1
I01
sg7
g36
sg9
L5L
sa(dp1636
g1
I01
sg7
V__module__
p1637
sg9
L5L
sa(dp1638
g1
I01
sg7
g38
sg9
L5L
sa(dp1639
g1
I01
sg13
VCreate and return a new object.  See help(type) for accurate signature.
p1640
sg7
g41
sg9
L2L
sa(dp1641
g1
I01
sg13
Nsg7
g43
sg9
L2L
sa(dp1642
g1
I01
sg13
Vhelper for pickle
p1643
sg7
g46
sg9
L2L
sa(dp1644
g1
I01
sg7
g48
sg9
L5L
sa(dp1645
g1
I01
sg7
g50
sg9
L5L
sa(dp1646
g1
I01
sg13
V__sizeof__() -> int\u000asize of object in memory, in bytes
p1647
sg7
g53
sg9
L2L
sa(dp1648
g1
I01
sg7
g55
sg9
L5L
sa(dp1649
g1
I01
sg13
VAbstract classes can override this to customize issubclass().\u000a\u000aThis is invoked early on by abc.ABCMeta.__subclasscheck__().\u000aIt should return True, False or NotImplemented.  If it returns\u000aNotImplemented, the normal algorithm is used.  Otherwise, it\u000aoverrides the normal algorithm (and the outcome is cached).\u000a
p1650
sg7
g58
sg9
L2L
sa(dp1651
g1
I01
sg7
g97
sg9
L5L
sa(dp1652
g1
I01
sg7
g60
sg9
L5L
sa(dp1653
g1
I01
sg7
V_fields
p1654
sg9
L5L
sasg13
Nsg7
VIfExp
p1655
sg9
L3L
sa(dp1656
g1
I01
sg2
(lp1657
(dp1658
g1
I01
sg7
g8
sg9
L5L
sa(dp1659
g1
I01
sg7
g11
sg9
L5L
sa(dp1660
g1
I01
sg13
V__dir__() -> list\u000adefault dir() implementation
p1661
sg7
g15
sg9
L2L
sa(dp1662
g1
I01
sg7
g17
sg9
L5L
sa(dp1663
g1
I01
sg7
g19
sg9
L5L
sa(dp1664
g1
I01
sg13
Vdefault object formatter
p1665
sg7
g22
sg9
L2L
sa(dp1666
g1
I01
sg7
g24
sg9
L5L
sa(dp1667
g1
I01
sg7
g26
sg9
L5L
sa(dp1668
g1
I01
sg7
g28
sg9
L5L
sa(dp1669
g1
I01
sg7
g30
sg9
L5L
sa(dp1670
g1
I01
sg7
g32
sg9
L5L
sa(dp1671
g1
I01
sg7
g34
sg9
L5L
sa(dp1672
g1
I01
sg7
g36
sg9
L5L
sa(dp1673
g1
I01
sg7
V__module__
p1674
sg9
L5L
sa(dp1675
g1
I01
sg7
g38
sg9
L5L
sa(dp1676
g1
I01
sg13
VCreate and return a new object.  See help(type) for accurate signature.
p1677
sg7
g41
sg9
L2L
sa(dp1678
g1
I01
sg13
Nsg7
g43
sg9
L2L
sa(dp1679
g1
I01
sg13
Vhelper for pickle
p1680
sg7
g46
sg9
L2L
sa(dp1681
g1
I01
sg7
g48
sg9
L5L
sa(dp1682
g1
I01
sg7
g50
sg9
L5L
sa(dp1683
g1
I01
sg13
V__sizeof__() -> int\u000asize of object in memory, in bytes
p1684
sg7
g53
sg9
L2L
sa(dp1685
g1
I01
sg7
g55
sg9
L5L
sa(dp1686
g1
I01
sg13
VAbstract classes can override this to customize issubclass().\u000a\u000aThis is invoked early on by abc.ABCMeta.__subclasscheck__().\u000aIt should return True, False or NotImplemented.  If it returns\u000aNotImplemented, the normal algorithm is used.  Otherwise, it\u000aoverrides the normal algorithm (and the outcome is cached).\u000a
p1687
sg7
g58
sg9
L2L
sa(dp1688
g1
I01
sg7
g97
sg9
L5L
sa(dp1689
g1
I01
sg7
g60
sg9
L5L
sa(dp1690
g1
I01
sg7
V_fields
p1691
sg9
L5L
sasg13
Nsg7
VImport
p1692
sg9
L3L
sa(dp1693
g1
I01
sg2
(lp1694
(dp1695
g1
I01
sg7
g8
sg9
L5L
sa(dp1696
g1
I01
sg7
g11
sg9
L5L
sa(dp1697
g1
I01
sg13
V__dir__() -> list\u000adefault dir() implementation
p1698
sg7
g15
sg9
L2L
sa(dp1699
g1
I01
sg7
g17
sg9
L5L
sa(dp1700
g1
I01
sg7
g19
sg9
L5L
sa(dp1701
g1
I01
sg13
Vdefault object formatter
p1702
sg7
g22
sg9
L2L
sa(dp1703
g1
I01
sg7
g24
sg9
L5L
sa(dp1704
g1
I01
sg7
g26
sg9
L5L
sa(dp1705
g1
I01
sg7
g28
sg9
L5L
sa(dp1706
g1
I01
sg7
g30
sg9
L5L
sa(dp1707
g1
I01
sg7
g32
sg9
L5L
sa(dp1708
g1
I01
sg7
g34
sg9
L5L
sa(dp1709
g1
I01
sg7
g36
sg9
L5L
sa(dp1710
g1
I01
sg7
V__module__
p1711
sg9
L5L
sa(dp1712
g1
I01
sg7
g38
sg9
L5L
sa(dp1713
g1
I01
sg13
VCreate and return a new object.  See help(type) for accurate signature.
p1714
sg7
g41
sg9
L2L
sa(dp1715
g1
I01
sg13
Nsg7
g43
sg9
L2L
sa(dp1716
g1
I01
sg13
Vhelper for pickle
p1717
sg7
g46
sg9
L2L
sa(dp1718
g1
I01
sg7
g48
sg9
L5L
sa(dp1719
g1
I01
sg7
g50
sg9
L5L
sa(dp1720
g1
I01
sg13
V__sizeof__() -> int\u000asize of object in memory, in bytes
p1721
sg7
g53
sg9
L2L
sa(dp1722
g1
I01
sg7
g55
sg9
L5L
sa(dp1723
g1
I01
sg13
VAbstract classes can override this to customize issubclass().\u000a\u000aThis is invoked early on by abc.ABCMeta.__subclasscheck__().\u000aIt should return True, False or NotImplemented.  If it returns\u000aNotImplemented, the normal algorithm is used.  Otherwise, it\u000aoverrides the normal algorithm (and the outcome is cached).\u000a
p1724
sg7
g58
sg9
L2L
sa(dp1725
g1
I01
sg7
g97
sg9
L5L
sa(dp1726
g1
I01
sg7
g60
sg9
L5L
sa(dp1727
g1
I01
sg7
V_fields
p1728
sg9
L5L
sasg13
Nsg7
VImportFrom
p1729
sg9
L3L
sa(dp1730
g1
I01
sg2
(lp1731
(dp1732
g1
I01
sg7
g8
sg9
L5L
sa(dp1733
g1
I01
sg7
g11
sg9
L5L
sa(dp1734
g1
I01
sg13
V__dir__() -> list\u000adefault dir() implementation
p1735
sg7
g15
sg9
L2L
sa(dp1736
g1
I01
sg7
g17
sg9
L5L
sa(dp1737
g1
I01
sg7
g19
sg9
L5L
sa(dp1738
g1
I01
sg13
Vdefault object formatter
p1739
sg7
g22
sg9
L2L
sa(dp1740
g1
I01
sg7
g24
sg9
L5L
sa(dp1741
g1
I01
sg7
g26
sg9
L5L
sa(dp1742
g1
I01
sg7
g28
sg9
L5L
sa(dp1743
g1
I01
sg7
g30
sg9
L5L
sa(dp1744
g1
I01
sg7
g32
sg9
L5L
sa(dp1745
g1
I01
sg7
g34
sg9
L5L
sa(dp1746
g1
I01
sg7
g36
sg9
L5L
sa(dp1747
g1
I01
sg7
V__module__
p1748
sg9
L5L
sa(dp1749
g1
I01
sg7
g38
sg9
L5L
sa(dp1750
g1
I01
sg13
VCreate and return a new object.  See help(type) for accurate signature.
p1751
sg7
g41
sg9
L2L
sa(dp1752
g1
I01
sg13
Nsg7
g43
sg9
L2L
sa(dp1753
g1
I01
sg13
Vhelper for pickle
p1754
sg7
g46
sg9
L2L
sa(dp1755
g1
I01
sg7
g48
sg9
L5L
sa(dp1756
g1
I01
sg7
g50
sg9
L5L
sa(dp1757
g1
I01
sg13
V__sizeof__() -> int\u000asize of object in memory, in bytes
p1758
sg7
g53
sg9
L2L
sa(dp1759
g1
I01
sg7
g55
sg9
L5L
sa(dp1760
g1
I01
sg13
VAbstract classes can override this to customize issubclass().\u000a\u000aThis is invoked early on by abc.ABCMeta.__subclasscheck__().\u000aIt should return True, False or NotImplemented.  If it returns\u000aNotImplemented, the normal algorithm is used.  Otherwise, it\u000aoverrides the normal algorithm (and the outcome is cached).\u000a
p1761
sg7
g58
sg9
L2L
sa(dp1762
g1
I01
sg7
g97
sg9
L5L
sa(dp1763
g1
I01
sg7
g60
sg9
L5L
sa(dp1764
g1
I01
sg7
V_fields
p1765
sg9
L5L
sasg13
Nsg7
VIn
p1766
sg9
L3L
sa(dp1767
g1
I01
sg2
(lp1768
(dp1769
g1
I01
sg7
g8
sg9
L5L
sa(dp1770
g1
I01
sg7
g11
sg9
L5L
sa(dp1771
g1
I01
sg13
V__dir__() -> list\u000adefault dir() implementation
p1772
sg7
g15
sg9
L2L
sa(dp1773
g1
I01
sg7
g17
sg9
L5L
sa(dp1774
g1
I01
sg7
g19
sg9
L5L
sa(dp1775
g1
I01
sg13
Vdefault object formatter
p1776
sg7
g22
sg9
L2L
sa(dp1777
g1
I01
sg7
g24
sg9
L5L
sa(dp1778
g1
I01
sg7
g26
sg9
L5L
sa(dp1779
g1
I01
sg7
g28
sg9
L5L
sa(dp1780
g1
I01
sg7
g30
sg9
L5L
sa(dp1781
g1
I01
sg7
g32
sg9
L5L
sa(dp1782
g1
I01
sg7
g34
sg9
L5L
sa(dp1783
g1
I01
sg7
g36
sg9
L5L
sa(dp1784
g1
I01
sg7
V__module__
p1785
sg9
L5L
sa(dp1786
g1
I01
sg7
g38
sg9
L5L
sa(dp1787
g1
I01
sg13
VCreate and return a new object.  See help(type) for accurate signature.
p1788
sg7
g41
sg9
L2L
sa(dp1789
g1
I01
sg13
Nsg7
g43
sg9
L2L
sa(dp1790
g1
I01
sg13
Vhelper for pickle
p1791
sg7
g46
sg9
L2L
sa(dp1792
g1
I01
sg7
g48
sg9
L5L
sa(dp1793
g1
I01
sg7
g50
sg9
L5L
sa(dp1794
g1
I01
sg13
V__sizeof__() -> int\u000asize of object in memory, in bytes
p1795
sg7
g53
sg9
L2L
sa(dp1796
g1
I01
sg7
g55
sg9
L5L
sa(dp1797
g1
I01
sg13
VAbstract classes can override this to customize issubclass().\u000a\u000aThis is invoked early on by abc.ABCMeta.__subclasscheck__().\u000aIt should return True, False or NotImplemented.  If it returns\u000aNotImplemented, the normal algorithm is used.  Otherwise, it\u000aoverrides the normal algorithm (and the outcome is cached).\u000a
p1798
sg7
g58
sg9
L2L
sa(dp1799
g1
I01
sg7
g97
sg9
L5L
sa(dp1800
g1
I01
sg7
g60
sg9
L5L
sa(dp1801
g1
I01
sg7
V_fields
p1802
sg9
L5L
sasg13
Nsg7
VIndex
p1803
sg9
L3L
sa(dp1804
g1
I01
sg2
(lp1805
(dp1806
g1
I01
sg7
g8
sg9
L5L
sa(dp1807
g1
I01
sg7
g11
sg9
L5L
sa(dp1808
g1
I01
sg13
V__dir__() -> list\u000adefault dir() implementation
p1809
sg7
g15
sg9
L2L
sa(dp1810
g1
I01
sg7
g17
sg9
L5L
sa(dp1811
g1
I01
sg7
g19
sg9
L5L
sa(dp1812
g1
I01
sg13
Vdefault object formatter
p1813
sg7
g22
sg9
L2L
sa(dp1814
g1
I01
sg7
g24
sg9
L5L
sa(dp1815
g1
I01
sg7
g26
sg9
L5L
sa(dp1816
g1
I01
sg7
g28
sg9
L5L
sa(dp1817
g1
I01
sg7
g30
sg9
L5L
sa(dp1818
g1
I01
sg7
g32
sg9
L5L
sa(dp1819
g1
I01
sg7
g34
sg9
L5L
sa(dp1820
g1
I01
sg7
g36
sg9
L5L
sa(dp1821
g1
I01
sg7
V__module__
p1822
sg9
L5L
sa(dp1823
g1
I01
sg7
g38
sg9
L5L
sa(dp1824
g1
I01
sg13
VCreate and return a new object.  See help(type) for accurate signature.
p1825
sg7
g41
sg9
L2L
sa(dp1826
g1
I01
sg13
Nsg7
g43
sg9
L2L
sa(dp1827
g1
I01
sg13
Vhelper for pickle
p1828
sg7
g46
sg9
L2L
sa(dp1829
g1
I01
sg7
g48
sg9
L5L
sa(dp1830
g1
I01
sg7
g50
sg9
L5L
sa(dp1831
g1
I01
sg13
V__sizeof__() -> int\u000asize of object in memory, in bytes
p1832
sg7
g53
sg9
L2L
sa(dp1833
g1
I01
sg7
g55
sg9
L5L
sa(dp1834
g1
I01
sg13
VAbstract classes can override this to customize issubclass().\u000a\u000aThis is invoked early on by abc.ABCMeta.__subclasscheck__().\u000aIt should return True, False or NotImplemented.  If it returns\u000aNotImplemented, the normal algorithm is used.  Otherwise, it\u000aoverrides the normal algorithm (and the outcome is cached).\u000a
p1835
sg7
g58
sg9
L2L
sa(dp1836
g1
I01
sg7
g97
sg9
L5L
sa(dp1837
g1
I01
sg7
g60
sg9
L5L
sa(dp1838
g1
I01
sg7
V_fields
p1839
sg9
L5L
sasg13
Nsg7
VInteractive
p1840
sg9
L3L
sa(dp1841
g1
I01
sg2
(lp1842
(dp1843
g1
I01
sg7
g8
sg9
L5L
sa(dp1844
g1
I01
sg7
g11
sg9
L5L
sa(dp1845
g1
I01
sg13
V__dir__() -> list\u000adefault dir() implementation
p1846
sg7
g15
sg9
L2L
sa(dp1847
g1
I01
sg7
g17
sg9
L5L
sa(dp1848
g1
I01
sg7
g19
sg9
L5L
sa(dp1849
g1
I01
sg13
Vdefault object formatter
p1850
sg7
g22
sg9
L2L
sa(dp1851
g1
I01
sg7
g24
sg9
L5L
sa(dp1852
g1
I01
sg7
g26
sg9
L5L
sa(dp1853
g1
I01
sg7
g28
sg9
L5L
sa(dp1854
g1
I01
sg7
g30
sg9
L5L
sa(dp1855
g1
I01
sg7
g32
sg9
L5L
sa(dp1856
g1
I01
sg7
g34
sg9
L5L
sa(dp1857
g1
I01
sg7
g36
sg9
L5L
sa(dp1858
g1
I01
sg7
V__module__
p1859
sg9
L5L
sa(dp1860
g1
I01
sg7
g38
sg9
L5L
sa(dp1861
g1
I01
sg13
VCreate and return a new object.  See help(type) for accurate signature.
p1862
sg7
g41
sg9
L2L
sa(dp1863
g1
I01
sg13
Nsg7
g43
sg9
L2L
sa(dp1864
g1
I01
sg13
Vhelper for pickle
p1865
sg7
g46
sg9
L2L
sa(dp1866
g1
I01
sg7
g48
sg9
L5L
sa(dp1867
g1
I01
sg7
g50
sg9
L5L
sa(dp1868
g1
I01
sg13
V__sizeof__() -> int\u000asize of object in memory, in bytes
p1869
sg7
g53
sg9
L2L
sa(dp1870
g1
I01
sg7
g55
sg9
L5L
sa(dp1871
g1
I01
sg13
VAbstract classes can override this to customize issubclass().\u000a\u000aThis is invoked early on by abc.ABCMeta.__subclasscheck__().\u000aIt should return True, False or NotImplemented.  If it returns\u000aNotImplemented, the normal algorithm is used.  Otherwise, it\u000aoverrides the normal algorithm (and the outcome is cached).\u000a
p1872
sg7
g58
sg9
L2L
sa(dp1873
g1
I01
sg7
g97
sg9
L5L
sa(dp1874
g1
I01
sg7
g60
sg9
L5L
sa(dp1875
g1
I01
sg7
V_fields
p1876
sg9
L5L
sasg13
Nsg7
VInvert
p1877
sg9
L3L
sa(dp1878
g1
I01
sg2
(lp1879
(dp1880
g1
I01
sg7
g8
sg9
L5L
sa(dp1881
g1
I01
sg7
g11
sg9
L5L
sa(dp1882
g1
I01
sg13
V__dir__() -> list\u000adefault dir() implementation
p1883
sg7
g15
sg9
L2L
sa(dp1884
g1
I01
sg7
g17
sg9
L5L
sa(dp1885
g1
I01
sg7
g19
sg9
L5L
sa(dp1886
g1
I01
sg13
Vdefault object formatter
p1887
sg7
g22
sg9
L2L
sa(dp1888
g1
I01
sg7
g24
sg9
L5L
sa(dp1889
g1
I01
sg7
g26
sg9
L5L
sa(dp1890
g1
I01
sg7
g28
sg9
L5L
sa(dp1891
g1
I01
sg7
g30
sg9
L5L
sa(dp1892
g1
I01
sg7
g32
sg9
L5L
sa(dp1893
g1
I01
sg7
g34
sg9
L5L
sa(dp1894
g1
I01
sg7
g36
sg9
L5L
sa(dp1895
g1
I01
sg7
V__module__
p1896
sg9
L5L
sa(dp1897
g1
I01
sg7
g38
sg9
L5L
sa(dp1898
g1
I01
sg13
VCreate and return a new object.  See help(type) for accurate signature.
p1899
sg7
g41
sg9
L2L
sa(dp1900
g1
I01
sg13
Nsg7
g43
sg9
L2L
sa(dp1901
g1
I01
sg13
Vhelper for pickle
p1902
sg7
g46
sg9
L2L
sa(dp1903
g1
I01
sg7
g48
sg9
L5L
sa(dp1904
g1
I01
sg7
g50
sg9
L5L
sa(dp1905
g1
I01
sg13
V__sizeof__() -> int\u000asize of object in memory, in bytes
p1906
sg7
g53
sg9
L2L
sa(dp1907
g1
I01
sg7
g55
sg9
L5L
sa(dp1908
g1
I01
sg13
VAbstract classes can override this to customize issubclass().\u000a\u000aThis is invoked early on by abc.ABCMeta.__subclasscheck__().\u000aIt should return True, False or NotImplemented.  If it returns\u000aNotImplemented, the normal algorithm is used.  Otherwise, it\u000aoverrides the normal algorithm (and the outcome is cached).\u000a
p1909
sg7
g58
sg9
L2L
sa(dp1910
g1
I01
sg7
g97
sg9
L5L
sa(dp1911
g1
I01
sg7
g60
sg9
L5L
sa(dp1912
g1
I01
sg7
V_fields
p1913
sg9
L5L
sasg13
Nsg7
VIs
p1914
sg9
L3L
sa(dp1915
g1
I01
sg2
(lp1916
(dp1917
g1
I01
sg7
g8
sg9
L5L
sa(dp1918
g1
I01
sg7
g11
sg9
L5L
sa(dp1919
g1
I01
sg13
V__dir__() -> list\u000adefault dir() implementation
p1920
sg7
g15
sg9
L2L
sa(dp1921
g1
I01
sg7
g17
sg9
L5L
sa(dp1922
g1
I01
sg7
g19
sg9
L5L
sa(dp1923
g1
I01
sg13
Vdefault object formatter
p1924
sg7
g22
sg9
L2L
sa(dp1925
g1
I01
sg7
g24
sg9
L5L
sa(dp1926
g1
I01
sg7
g26
sg9
L5L
sa(dp1927
g1
I01
sg7
g28
sg9
L5L
sa(dp1928
g1
I01
sg7
g30
sg9
L5L
sa(dp1929
g1
I01
sg7
g32
sg9
L5L
sa(dp1930
g1
I01
sg7
g34
sg9
L5L
sa(dp1931
g1
I01
sg7
g36
sg9
L5L
sa(dp1932
g1
I01
sg7
V__module__
p1933
sg9
L5L
sa(dp1934
g1
I01
sg7
g38
sg9
L5L
sa(dp1935
g1
I01
sg13
VCreate and return a new object.  See help(type) for accurate signature.
p1936
sg7
g41
sg9
L2L
sa(dp1937
g1
I01
sg13
Nsg7
g43
sg9
L2L
sa(dp1938
g1
I01
sg13
Vhelper for pickle
p1939
sg7
g46
sg9
L2L
sa(dp1940
g1
I01
sg7
g48
sg9
L5L
sa(dp1941
g1
I01
sg7
g50
sg9
L5L
sa(dp1942
g1
I01
sg13
V__sizeof__() -> int\u000asize of object in memory, in bytes
p1943
sg7
g53
sg9
L2L
sa(dp1944
g1
I01
sg7
g55
sg9
L5L
sa(dp1945
g1
I01
sg13
VAbstract classes can override this to customize issubclass().\u000a\u000aThis is invoked early on by abc.ABCMeta.__subclasscheck__().\u000aIt should return True, False or NotImplemented.  If it returns\u000aNotImplemented, the normal algorithm is used.  Otherwise, it\u000aoverrides the normal algorithm (and the outcome is cached).\u000a
p1946
sg7
g58
sg9
L2L
sa(dp1947
g1
I01
sg7
g97
sg9
L5L
sa(dp1948
g1
I01
sg7
g60
sg9
L5L
sa(dp1949
g1
I01
sg7
V_fields
p1950
sg9
L5L
sasg13
Nsg7
VIsNot
p1951
sg9
L3L
sa(dp1952
g1
I01
sg2
(lp1953
(dp1954
g1
I01
sg7
g8
sg9
L5L
sa(dp1955
g1
I01
sg7
g11
sg9
L5L
sa(dp1956
g1
I01
sg13
V__dir__() -> list\u000adefault dir() implementation
p1957
sg7
g15
sg9
L2L
sa(dp1958
g1
I01
sg7
g17
sg9
L5L
sa(dp1959
g1
I01
sg7
g19
sg9
L5L
sa(dp1960
g1
I01
sg13
Vdefault object formatter
p1961
sg7
g22
sg9
L2L
sa(dp1962
g1
I01
sg7
g24
sg9
L5L
sa(dp1963
g1
I01
sg7
g26
sg9
L5L
sa(dp1964
g1
I01
sg7
g28
sg9
L5L
sa(dp1965
g1
I01
sg7
g30
sg9
L5L
sa(dp1966
g1
I01
sg7
g32
sg9
L5L
sa(dp1967
g1
I01
sg7
g34
sg9
L5L
sa(dp1968
g1
I01
sg7
g36
sg9
L5L
sa(dp1969
g1
I01
sg7
V__module__
p1970
sg9
L5L
sa(dp1971
g1
I01
sg7
g38
sg9
L5L
sa(dp1972
g1
I01
sg13
VCreate and return a new object.  See help(type) for accurate signature.
p1973
sg7
g41
sg9
L2L
sa(dp1974
g1
I01
sg13
Nsg7
g43
sg9
L2L
sa(dp1975
g1
I01
sg13
Vhelper for pickle
p1976
sg7
g46
sg9
L2L
sa(dp1977
g1
I01
sg7
g48
sg9
L5L
sa(dp1978
g1
I01
sg7
g50
sg9
L5L
sa(dp1979
g1
I01
sg13
V__sizeof__() -> int\u000asize of object in memory, in bytes
p1980
sg7
g53
sg9
L2L
sa(dp1981
g1
I01
sg7
g55
sg9
L5L
sa(dp1982
g1
I01
sg13
VAbstract classes can override this to customize issubclass().\u000a\u000aThis is invoked early on by abc.ABCMeta.__subclasscheck__().\u000aIt should return True, False or NotImplemented.  If it returns\u000aNotImplemented, the normal algorithm is used.  Otherwise, it\u000aoverrides the normal algorithm (and the outcome is cached).\u000a
p1983
sg7
g58
sg9
L2L
sa(dp1984
g1
I01
sg7
g97
sg9
L5L
sa(dp1985
g1
I01
sg7
g60
sg9
L5L
sa(dp1986
g1
I01
sg7
V_fields
p1987
sg9
L5L
sasg13
Nsg7
VLShift
p1988
sg9
L3L
sa(dp1989
g1
I01
sg2
(lp1990
(dp1991
g1
I01
sg7
g8
sg9
L5L
sa(dp1992
g1
I01
sg7
g11
sg9
L5L
sa(dp1993
g1
I01
sg13
V__dir__() -> list\u000adefault dir() implementation
p1994
sg7
g15
sg9
L2L
sa(dp1995
g1
I01
sg7
g17
sg9
L5L
sa(dp1996
g1
I01
sg7
g19
sg9
L5L
sa(dp1997
g1
I01
sg13
Vdefault object formatter
p1998
sg7
g22
sg9
L2L
sa(dp1999
g1
I01
sg7
g24
sg9
L5L
sa(dp2000
g1
I01
sg7
g26
sg9
L5L
sa(dp2001
g1
I01
sg7
g28
sg9
L5L
sa(dp2002
g1
I01
sg7
g30
sg9
L5L
sa(dp2003
g1
I01
sg7
g32
sg9
L5L
sa(dp2004
g1
I01
sg7
g34
sg9
L5L
sa(dp2005
g1
I01
sg7
g36
sg9
L5L
sa(dp2006
g1
I01
sg7
V__module__
p2007
sg9
L5L
sa(dp2008
g1
I01
sg7
g38
sg9
L5L
sa(dp2009
g1
I01
sg13
VCreate and return a new object.  See help(type) for accurate signature.
p2010
sg7
g41
sg9
L2L
sa(dp2011
g1
I01
sg13
Nsg7
g43
sg9
L2L
sa(dp2012
g1
I01
sg13
Vhelper for pickle
p2013
sg7
g46
sg9
L2L
sa(dp2014
g1
I01
sg7
g48
sg9
L5L
sa(dp2015
g1
I01
sg7
g50
sg9
L5L
sa(dp2016
g1
I01
sg13
V__sizeof__() -> int\u000asize of object in memory, in bytes
p2017
sg7
g53
sg9
L2L
sa(dp2018
g1
I01
sg7
g55
sg9
L5L
sa(dp2019
g1
I01
sg13
VAbstract classes can override this to customize issubclass().\u000a\u000aThis is invoked early on by abc.ABCMeta.__subclasscheck__().\u000aIt should return True, False or NotImplemented.  If it returns\u000aNotImplemented, the normal algorithm is used.  Otherwise, it\u000aoverrides the normal algorithm (and the outcome is cached).\u000a
p2020
sg7
g58
sg9
L2L
sa(dp2021
g1
I01
sg7
g97
sg9
L5L
sa(dp2022
g1
I01
sg7
g60
sg9
L5L
sa(dp2023
g1
I01
sg7
V_fields
p2024
sg9
L5L
sasg13
Nsg7
VLambda
p2025
sg9
L3L
sa(dp2026
g1
I01
sg2
(lp2027
(dp2028
g1
I01
sg7
g8
sg9
L5L
sa(dp2029
g1
I01
sg7
g11
sg9
L5L
sa(dp2030
g1
I01
sg13
V__dir__() -> list\u000adefault dir() implementation
p2031
sg7
g15
sg9
L2L
sa(dp2032
g1
I01
sg7
g17
sg9
L5L
sa(dp2033
g1
I01
sg7
g19
sg9
L5L
sa(dp2034
g1
I01
sg13
Vdefault object formatter
p2035
sg7
g22
sg9
L2L
sa(dp2036
g1
I01
sg7
g24
sg9
L5L
sa(dp2037
g1
I01
sg7
g26
sg9
L5L
sa(dp2038
g1
I01
sg7
g28
sg9
L5L
sa(dp2039
g1
I01
sg7
g30
sg9
L5L
sa(dp2040
g1
I01
sg7
g32
sg9
L5L
sa(dp2041
g1
I01
sg7
g34
sg9
L5L
sa(dp2042
g1
I01
sg7
g36
sg9
L5L
sa(dp2043
g1
I01
sg7
V__module__
p2044
sg9
L5L
sa(dp2045
g1
I01
sg7
g38
sg9
L5L
sa(dp2046
g1
I01
sg13
VCreate and return a new object.  See help(type) for accurate signature.
p2047
sg7
g41
sg9
L2L
sa(dp2048
g1
I01
sg13
Nsg7
g43
sg9
L2L
sa(dp2049
g1
I01
sg13
Vhelper for pickle
p2050
sg7
g46
sg9
L2L
sa(dp2051
g1
I01
sg7
g48
sg9
L5L
sa(dp2052
g1
I01
sg7
g50
sg9
L5L
sa(dp2053
g1
I01
sg13
V__sizeof__() -> int\u000asize of object in memory, in bytes
p2054
sg7
g53
sg9
L2L
sa(dp2055
g1
I01
sg7
g55
sg9
L5L
sa(dp2056
g1
I01
sg13
VAbstract classes can override this to customize issubclass().\u000a\u000aThis is invoked early on by abc.ABCMeta.__subclasscheck__().\u000aIt should return True, False or NotImplemented.  If it returns\u000aNotImplemented, the normal algorithm is used.  Otherwise, it\u000aoverrides the normal algorithm (and the outcome is cached).\u000a
p2057
sg7
g58
sg9
L2L
sa(dp2058
g1
I01
sg7
g97
sg9
L5L
sa(dp2059
g1
I01
sg7
g60
sg9
L5L
sa(dp2060
g1
I01
sg7
V_fields
p2061
sg9
L5L
sasg13
Nsg7
VList
p2062
sg9
L3L
sa(dp2063
g1
I01
sg2
(lp2064
(dp2065
g1
I01
sg7
g8
sg9
L5L
sa(dp2066
g1
I01
sg7
g11
sg9
L5L
sa(dp2067
g1
I01
sg13
V__dir__() -> list\u000adefault dir() implementation
p2068
sg7
g15
sg9
L2L
sa(dp2069
g1
I01
sg7
g17
sg9
L5L
sa(dp2070
g1
I01
sg7
g19
sg9
L5L
sa(dp2071
g1
I01
sg13
Vdefault object formatter
p2072
sg7
g22
sg9
L2L
sa(dp2073
g1
I01
sg7
g24
sg9
L5L
sa(dp2074
g1
I01
sg7
g26
sg9
L5L
sa(dp2075
g1
I01
sg7
g28
sg9
L5L
sa(dp2076
g1
I01
sg7
g30
sg9
L5L
sa(dp2077
g1
I01
sg7
g32
sg9
L5L
sa(dp2078
g1
I01
sg7
g34
sg9
L5L
sa(dp2079
g1
I01
sg7
g36
sg9
L5L
sa(dp2080
g1
I01
sg7
V__module__
p2081
sg9
L5L
sa(dp2082
g1
I01
sg7
g38
sg9
L5L
sa(dp2083
g1
I01
sg13
VCreate and return a new object.  See help(type) for accurate signature.
p2084
sg7
g41
sg9
L2L
sa(dp2085
g1
I01
sg13
Nsg7
g43
sg9
L2L
sa(dp2086
g1
I01
sg13
Vhelper for pickle
p2087
sg7
g46
sg9
L2L
sa(dp2088
g1
I01
sg7
g48
sg9
L5L
sa(dp2089
g1
I01
sg7
g50
sg9
L5L
sa(dp2090
g1
I01
sg13
V__sizeof__() -> int\u000asize of object in memory, in bytes
p2091
sg7
g53
sg9
L2L
sa(dp2092
g1
I01
sg7
g55
sg9
L5L
sa(dp2093
g1
I01
sg13
VAbstract classes can override this to customize issubclass().\u000a\u000aThis is invoked early on by abc.ABCMeta.__subclasscheck__().\u000aIt should return True, False or NotImplemented.  If it returns\u000aNotImplemented, the normal algorithm is used.  Otherwise, it\u000aoverrides the normal algorithm (and the outcome is cached).\u000a
p2094
sg7
g58
sg9
L2L
sa(dp2095
g1
I01
sg7
g97
sg9
L5L
sa(dp2096
g1
I01
sg7
g60
sg9
L5L
sa(dp2097
g1
I01
sg7
V_fields
p2098
sg9
L5L
sasg13
Nsg7
VListComp
p2099
sg9
L3L
sa(dp2100
g1
I01
sg2
(lp2101
(dp2102
g1
I01
sg7
g8
sg9
L5L
sa(dp2103
g1
I01
sg7
g11
sg9
L5L
sa(dp2104
g1
I01
sg13
V__dir__() -> list\u000adefault dir() implementation
p2105
sg7
g15
sg9
L2L
sa(dp2106
g1
I01
sg7
g17
sg9
L5L
sa(dp2107
g1
I01
sg7
g19
sg9
L5L
sa(dp2108
g1
I01
sg13
Vdefault object formatter
p2109
sg7
g22
sg9
L2L
sa(dp2110
g1
I01
sg7
g24
sg9
L5L
sa(dp2111
g1
I01
sg7
g26
sg9
L5L
sa(dp2112
g1
I01
sg7
g28
sg9
L5L
sa(dp2113
g1
I01
sg7
g30
sg9
L5L
sa(dp2114
g1
I01
sg7
g32
sg9
L5L
sa(dp2115
g1
I01
sg7
g34
sg9
L5L
sa(dp2116
g1
I01
sg7
g36
sg9
L5L
sa(dp2117
g1
I01
sg7
V__module__
p2118
sg9
L5L
sa(dp2119
g1
I01
sg7
g38
sg9
L5L
sa(dp2120
g1
I01
sg13
VCreate and return a new object.  See help(type) for accurate signature.
p2121
sg7
g41
sg9
L2L
sa(dp2122
g1
I01
sg13
Nsg7
g43
sg9
L2L
sa(dp2123
g1
I01
sg13
Vhelper for pickle
p2124
sg7
g46
sg9
L2L
sa(dp2125
g1
I01
sg7
g48
sg9
L5L
sa(dp2126
g1
I01
sg7
g50
sg9
L5L
sa(dp2127
g1
I01
sg13
V__sizeof__() -> int\u000asize of object in memory, in bytes
p2128
sg7
g53
sg9
L2L
sa(dp2129
g1
I01
sg7
g55
sg9
L5L
sa(dp2130
g1
I01
sg13
VAbstract classes can override this to customize issubclass().\u000a\u000aThis is invoked early on by abc.ABCMeta.__subclasscheck__().\u000aIt should return True, False or NotImplemented.  If it returns\u000aNotImplemented, the normal algorithm is used.  Otherwise, it\u000aoverrides the normal algorithm (and the outcome is cached).\u000a
p2131
sg7
g58
sg9
L2L
sa(dp2132
g1
I01
sg7
g97
sg9
L5L
sa(dp2133
g1
I01
sg7
g60
sg9
L5L
sa(dp2134
g1
I01
sg7
V_fields
p2135
sg9
L5L
sasg13
Nsg7
VLoad
p2136
sg9
L3L
sa(dp2137
g1
I01
sg2
(lp2138
(dp2139
g1
I01
sg7
g8
sg9
L5L
sa(dp2140
g1
I01
sg7
g11
sg9
L5L
sa(dp2141
g1
I01
sg13
V__dir__() -> list\u000adefault dir() implementation
p2142
sg7
g15
sg9
L2L
sa(dp2143
g1
I01
sg7
g17
sg9
L5L
sa(dp2144
g1
I01
sg7
g19
sg9
L5L
sa(dp2145
g1
I01
sg13
Vdefault object formatter
p2146
sg7
g22
sg9
L2L
sa(dp2147
g1
I01
sg7
g24
sg9
L5L
sa(dp2148
g1
I01
sg7
g26
sg9
L5L
sa(dp2149
g1
I01
sg7
g28
sg9
L5L
sa(dp2150
g1
I01
sg7
g30
sg9
L5L
sa(dp2151
g1
I01
sg7
g32
sg9
L5L
sa(dp2152
g1
I01
sg7
g34
sg9
L5L
sa(dp2153
g1
I01
sg7
g36
sg9
L5L
sa(dp2154
g1
I01
sg7
V__module__
p2155
sg9
L5L
sa(dp2156
g1
I01
sg7
g38
sg9
L5L
sa(dp2157
g1
I01
sg13
VCreate and return a new object.  See help(type) for accurate signature.
p2158
sg7
g41
sg9
L2L
sa(dp2159
g1
I01
sg13
Nsg7
g43
sg9
L2L
sa(dp2160
g1
I01
sg13
Vhelper for pickle
p2161
sg7
g46
sg9
L2L
sa(dp2162
g1
I01
sg7
g48
sg9
L5L
sa(dp2163
g1
I01
sg7
g50
sg9
L5L
sa(dp2164
g1
I01
sg13
V__sizeof__() -> int\u000asize of object in memory, in bytes
p2165
sg7
g53
sg9
L2L
sa(dp2166
g1
I01
sg7
g55
sg9
L5L
sa(dp2167
g1
I01
sg13
VAbstract classes can override this to customize issubclass().\u000a\u000aThis is invoked early on by abc.ABCMeta.__subclasscheck__().\u000aIt should return True, False or NotImplemented.  If it returns\u000aNotImplemented, the normal algorithm is used.  Otherwise, it\u000aoverrides the normal algorithm (and the outcome is cached).\u000a
p2168
sg7
g58
sg9
L2L
sa(dp2169
g1
I01
sg7
g97
sg9
L5L
sa(dp2170
g1
I01
sg7
g60
sg9
L5L
sa(dp2171
g1
I01
sg7
V_fields
p2172
sg9
L5L
sasg13
Nsg7
VLt
p2173
sg9
L3L
sa(dp2174
g1
I01
sg2
(lp2175
(dp2176
g1
I01
sg7
g8
sg9
L5L
sa(dp2177
g1
I01
sg7
g11
sg9
L5L
sa(dp2178
g1
I01
sg13
V__dir__() -> list\u000adefault dir() implementation
p2179
sg7
g15
sg9
L2L
sa(dp2180
g1
I01
sg7
g17
sg9
L5L
sa(dp2181
g1
I01
sg7
g19
sg9
L5L
sa(dp2182
g1
I01
sg13
Vdefault object formatter
p2183
sg7
g22
sg9
L2L
sa(dp2184
g1
I01
sg7
g24
sg9
L5L
sa(dp2185
g1
I01
sg7
g26
sg9
L5L
sa(dp2186
g1
I01
sg7
g28
sg9
L5L
sa(dp2187
g1
I01
sg7
g30
sg9
L5L
sa(dp2188
g1
I01
sg7
g32
sg9
L5L
sa(dp2189
g1
I01
sg7
g34
sg9
L5L
sa(dp2190
g1
I01
sg7
g36
sg9
L5L
sa(dp2191
g1
I01
sg7
V__module__
p2192
sg9
L5L
sa(dp2193
g1
I01
sg7
g38
sg9
L5L
sa(dp2194
g1
I01
sg13
VCreate and return a new object.  See help(type) for accurate signature.
p2195
sg7
g41
sg9
L2L
sa(dp2196
g1
I01
sg13
Nsg7
g43
sg9
L2L
sa(dp2197
g1
I01
sg13
Vhelper for pickle
p2198
sg7
g46
sg9
L2L
sa(dp2199
g1
I01
sg7
g48
sg9
L5L
sa(dp2200
g1
I01
sg7
g50
sg9
L5L
sa(dp2201
g1
I01
sg13
V__sizeof__() -> int\u000asize of object in memory, in bytes
p2202
sg7
g53
sg9
L2L
sa(dp2203
g1
I01
sg7
g55
sg9
L5L
sa(dp2204
g1
I01
sg13
VAbstract classes can override this to customize issubclass().\u000a\u000aThis is invoked early on by abc.ABCMeta.__subclasscheck__().\u000aIt should return True, False or NotImplemented.  If it returns\u000aNotImplemented, the normal algorithm is used.  Otherwise, it\u000aoverrides the normal algorithm (and the outcome is cached).\u000a
p2205
sg7
g58
sg9
L2L
sa(dp2206
g1
I01
sg7
g97
sg9
L5L
sa(dp2207
g1
I01
sg7
g60
sg9
L5L
sa(dp2208
g1
I01
sg7
V_fields
p2209
sg9
L5L
sasg13
Nsg7
VLtE
p2210
sg9
L3L
sa(dp2211
g1
I01
sg2
(lp2212
(dp2213
g1
I01
sg7
g8
sg9
L5L
sa(dp2214
g1
I01
sg7
g11
sg9
L5L
sa(dp2215
g1
I01
sg13
V__dir__() -> list\u000adefault dir() implementation
p2216
sg7
g15
sg9
L2L
sa(dp2217
g1
I01
sg7
g17
sg9
L5L
sa(dp2218
g1
I01
sg7
g19
sg9
L5L
sa(dp2219
g1
I01
sg13
Vdefault object formatter
p2220
sg7
g22
sg9
L2L
sa(dp2221
g1
I01
sg7
g24
sg9
L5L
sa(dp2222
g1
I01
sg7
g26
sg9
L5L
sa(dp2223
g1
I01
sg7
g28
sg9
L5L
sa(dp2224
g1
I01
sg7
g30
sg9
L5L
sa(dp2225
g1
I01
sg7
g32
sg9
L5L
sa(dp2226
g1
I01
sg7
g34
sg9
L5L
sa(dp2227
g1
I01
sg7
g36
sg9
L5L
sa(dp2228
g1
I01
sg7
V__module__
p2229
sg9
L5L
sa(dp2230
g1
I01
sg7
g38
sg9
L5L
sa(dp2231
g1
I01
sg13
VCreate and return a new object.  See help(type) for accurate signature.
p2232
sg7
g41
sg9
L2L
sa(dp2233
g1
I01
sg13
Nsg7
g43
sg9
L2L
sa(dp2234
g1
I01
sg13
Vhelper for pickle
p2235
sg7
g46
sg9
L2L
sa(dp2236
g1
I01
sg7
g48
sg9
L5L
sa(dp2237
g1
I01
sg7
g50
sg9
L5L
sa(dp2238
g1
I01
sg13
V__sizeof__() -> int\u000asize of object in memory, in bytes
p2239
sg7
g53
sg9
L2L
sa(dp2240
g1
I01
sg7
g55
sg9
L5L
sa(dp2241
g1
I01
sg13
VAbstract classes can override this to customize issubclass().\u000a\u000aThis is invoked early on by abc.ABCMeta.__subclasscheck__().\u000aIt should return True, False or NotImplemented.  If it returns\u000aNotImplemented, the normal algorithm is used.  Otherwise, it\u000aoverrides the normal algorithm (and the outcome is cached).\u000a
p2242
sg7
g58
sg9
L2L
sa(dp2243
g1
I01
sg7
g97
sg9
L5L
sa(dp2244
g1
I01
sg7
g60
sg9
L5L
sa(dp2245
g1
I01
sg7
V_fields
p2246
sg9
L5L
sasg13
Nsg7
VMatMult
p2247
sg9
L3L
sa(dp2248
g1
I01
sg2
(lp2249
(dp2250
g1
I01
sg7
g8
sg9
L5L
sa(dp2251
g1
I01
sg7
g11
sg9
L5L
sa(dp2252
g1
I01
sg13
V__dir__() -> list\u000adefault dir() implementation
p2253
sg7
g15
sg9
L2L
sa(dp2254
g1
I01
sg7
g17
sg9
L5L
sa(dp2255
g1
I01
sg7
g19
sg9
L5L
sa(dp2256
g1
I01
sg13
Vdefault object formatter
p2257
sg7
g22
sg9
L2L
sa(dp2258
g1
I01
sg7
g24
sg9
L5L
sa(dp2259
g1
I01
sg7
g26
sg9
L5L
sa(dp2260
g1
I01
sg7
g28
sg9
L5L
sa(dp2261
g1
I01
sg7
g30
sg9
L5L
sa(dp2262
g1
I01
sg7
g32
sg9
L5L
sa(dp2263
g1
I01
sg7
g34
sg9
L5L
sa(dp2264
g1
I01
sg7
g36
sg9
L5L
sa(dp2265
g1
I01
sg7
V__module__
p2266
sg9
L5L
sa(dp2267
g1
I01
sg7
g38
sg9
L5L
sa(dp2268
g1
I01
sg13
VCreate and return a new object.  See help(type) for accurate signature.
p2269
sg7
g41
sg9
L2L
sa(dp2270
g1
I01
sg13
Nsg7
g43
sg9
L2L
sa(dp2271
g1
I01
sg13
Vhelper for pickle
p2272
sg7
g46
sg9
L2L
sa(dp2273
g1
I01
sg7
g48
sg9
L5L
sa(dp2274
g1
I01
sg7
g50
sg9
L5L
sa(dp2275
g1
I01
sg13
V__sizeof__() -> int\u000asize of object in memory, in bytes
p2276
sg7
g53
sg9
L2L
sa(dp2277
g1
I01
sg7
g55
sg9
L5L
sa(dp2278
g1
I01
sg13
VAbstract classes can override this to customize issubclass().\u000a\u000aThis is invoked early on by abc.ABCMeta.__subclasscheck__().\u000aIt should return True, False or NotImplemented.  If it returns\u000aNotImplemented, the normal algorithm is used.  Otherwise, it\u000aoverrides the normal algorithm (and the outcome is cached).\u000a
p2279
sg7
g58
sg9
L2L
sa(dp2280
g1
I01
sg7
g97
sg9
L5L
sa(dp2281
g1
I01
sg7
g60
sg9
L5L
sa(dp2282
g1
I01
sg7
V_fields
p2283
sg9
L5L
sasg13
Nsg7
VMod
p2284
sg9
L3L
sa(dp2285
g1
I01
sg2
(lp2286
(dp2287
g1
I01
sg7
g8
sg9
L5L
sa(dp2288
g1
I01
sg7
g11
sg9
L5L
sa(dp2289
g1
I01
sg13
V__dir__() -> list\u000adefault dir() implementation
p2290
sg7
g15
sg9
L2L
sa(dp2291
g1
I01
sg7
g17
sg9
L5L
sa(dp2292
g1
I01
sg7
g19
sg9
L5L
sa(dp2293
g1
I01
sg13
Vdefault object formatter
p2294
sg7
g22
sg9
L2L
sa(dp2295
g1
I01
sg7
g24
sg9
L5L
sa(dp2296
g1
I01
sg7
g26
sg9
L5L
sa(dp2297
g1
I01
sg7
g28
sg9
L5L
sa(dp2298
g1
I01
sg7
g30
sg9
L5L
sa(dp2299
g1
I01
sg7
g32
sg9
L5L
sa(dp2300
g1
I01
sg7
g34
sg9
L5L
sa(dp2301
g1
I01
sg7
g36
sg9
L5L
sa(dp2302
g1
I01
sg7
V__module__
p2303
sg9
L5L
sa(dp2304
g1
I01
sg7
g38
sg9
L5L
sa(dp2305
g1
I01
sg13
VCreate and return a new object.  See help(type) for accurate signature.
p2306
sg7
g41
sg9
L2L
sa(dp2307
g1
I01
sg13
Nsg7
g43
sg9
L2L
sa(dp2308
g1
I01
sg13
Vhelper for pickle
p2309
sg7
g46
sg9
L2L
sa(dp2310
g1
I01
sg7
g48
sg9
L5L
sa(dp2311
g1
I01
sg7
g50
sg9
L5L
sa(dp2312
g1
I01
sg13
V__sizeof__() -> int\u000asize of object in memory, in bytes
p2313
sg7
g53
sg9
L2L
sa(dp2314
g1
I01
sg7
g55
sg9
L5L
sa(dp2315
g1
I01
sg13
VAbstract classes can override this to customize issubclass().\u000a\u000aThis is invoked early on by abc.ABCMeta.__subclasscheck__().\u000aIt should return True, False or NotImplemented.  If it returns\u000aNotImplemented, the normal algorithm is used.  Otherwise, it\u000aoverrides the normal algorithm (and the outcome is cached).\u000a
p2316
sg7
g58
sg9
L2L
sa(dp2317
g1
I01
sg7
g97
sg9
L5L
sa(dp2318
g1
I01
sg7
g60
sg9
L5L
sa(dp2319
g1
I01
sg7
V_fields
p2320
sg9
L5L
sasg13
Nsg7
VModule
p2321
sg9
L3L
sa(dp2322
g1
I01
sg2
(lp2323
(dp2324
g1
I01
sg7
g8
sg9
L5L
sa(dp2325
g1
I01
sg7
g11
sg9
L5L
sa(dp2326
g1
I01
sg13
V__dir__() -> list\u000adefault dir() implementation
p2327
sg7
g15
sg9
L2L
sa(dp2328
g1
I01
sg7
g17
sg9
L5L
sa(dp2329
g1
I01
sg7
g19
sg9
L5L
sa(dp2330
g1
I01
sg13
Vdefault object formatter
p2331
sg7
g22
sg9
L2L
sa(dp2332
g1
I01
sg7
g24
sg9
L5L
sa(dp2333
g1
I01
sg7
g26
sg9
L5L
sa(dp2334
g1
I01
sg7
g28
sg9
L5L
sa(dp2335
g1
I01
sg7
g30
sg9
L5L
sa(dp2336
g1
I01
sg7
g32
sg9
L5L
sa(dp2337
g1
I01
sg7
g34
sg9
L5L
sa(dp2338
g1
I01
sg7
g36
sg9
L5L
sa(dp2339
g1
I01
sg7
V__module__
p2340
sg9
L5L
sa(dp2341
g1
I01
sg7
g38
sg9
L5L
sa(dp2342
g1
I01
sg13
VCreate and return a new object.  See help(type) for accurate signature.
p2343
sg7
g41
sg9
L2L
sa(dp2344
g1
I01
sg13
Nsg7
g43
sg9
L2L
sa(dp2345
g1
I01
sg13
Vhelper for pickle
p2346
sg7
g46
sg9
L2L
sa(dp2347
g1
I01
sg7
g48
sg9
L5L
sa(dp2348
g1
I01
sg7
g50
sg9
L5L
sa(dp2349
g1
I01
sg13
V__sizeof__() -> int\u000asize of object in memory, in bytes
p2350
sg7
g53
sg9
L2L
sa(dp2351
g1
I01
sg7
g55
sg9
L5L
sa(dp2352
g1
I01
sg13
VAbstract classes can override this to customize issubclass().\u000a\u000aThis is invoked early on by abc.ABCMeta.__subclasscheck__().\u000aIt should return True, False or NotImplemented.  If it returns\u000aNotImplemented, the normal algorithm is used.  Otherwise, it\u000aoverrides the normal algorithm (and the outcome is cached).\u000a
p2353
sg7
g58
sg9
L2L
sa(dp2354
g1
I01
sg7
g97
sg9
L5L
sa(dp2355
g1
I01
sg7
g60
sg9
L5L
sa(dp2356
g1
I01
sg7
V_fields
p2357
sg9
L5L
sasg13
Nsg7
VMult
p2358
sg9
L3L
sa(dp2359
g1
I01
sg2
(lp2360
(dp2361
g1
I01
sg7
g8
sg9
L5L
sa(dp2362
g1
I01
sg7
g11
sg9
L5L
sa(dp2363
g1
I01
sg13
V__dir__() -> list\u000adefault dir() implementation
p2364
sg7
g15
sg9
L2L
sa(dp2365
g1
I01
sg7
g17
sg9
L5L
sa(dp2366
g1
I01
sg7
g19
sg9
L5L
sa(dp2367
g1
I01
sg13
Vdefault object formatter
p2368
sg7
g22
sg9
L2L
sa(dp2369
g1
I01
sg7
g24
sg9
L5L
sa(dp2370
g1
I01
sg7
g26
sg9
L5L
sa(dp2371
g1
I01
sg7
g28
sg9
L5L
sa(dp2372
g1
I01
sg7
g30
sg9
L5L
sa(dp2373
g1
I01
sg7
g32
sg9
L5L
sa(dp2374
g1
I01
sg7
g34
sg9
L5L
sa(dp2375
g1
I01
sg7
g36
sg9
L5L
sa(dp2376
g1
I01
sg7
V__module__
p2377
sg9
L5L
sa(dp2378
g1
I01
sg7
g38
sg9
L5L
sa(dp2379
g1
I01
sg13
VCreate and return a new object.  See help(type) for accurate signature.
p2380
sg7
g41
sg9
L2L
sa(dp2381
g1
I01
sg13
Nsg7
g43
sg9
L2L
sa(dp2382
g1
I01
sg13
Vhelper for pickle
p2383
sg7
g46
sg9
L2L
sa(dp2384
g1
I01
sg7
g48
sg9
L5L
sa(dp2385
g1
I01
sg7
g50
sg9
L5L
sa(dp2386
g1
I01
sg13
V__sizeof__() -> int\u000asize of object in memory, in bytes
p2387
sg7
g53
sg9
L2L
sa(dp2388
g1
I01
sg7
g55
sg9
L5L
sa(dp2389
g1
I01
sg13
VAbstract classes can override this to customize issubclass().\u000a\u000aThis is invoked early on by abc.ABCMeta.__subclasscheck__().\u000aIt should return True, False or NotImplemented.  If it returns\u000aNotImplemented, the normal algorithm is used.  Otherwise, it\u000aoverrides the normal algorithm (and the outcome is cached).\u000a
p2390
sg7
g58
sg9
L2L
sa(dp2391
g1
I01
sg7
g97
sg9
L5L
sa(dp2392
g1
I01
sg7
g60
sg9
L5L
sa(dp2393
g1
I01
sg7
V_fields
p2394
sg9
L5L
sasg13
Nsg7
VName
p2395
sg9
L3L
sa(dp2396
g1
I01
sg2
(lp2397
(dp2398
g1
I01
sg7
g8
sg9
L5L
sa(dp2399
g1
I01
sg7
g11
sg9
L5L
sa(dp2400
g1
I01
sg13
V__dir__() -> list\u000adefault dir() implementation
p2401
sg7
g15
sg9
L2L
sa(dp2402
g1
I01
sg7
g17
sg9
L5L
sa(dp2403
g1
I01
sg7
g19
sg9
L5L
sa(dp2404
g1
I01
sg13
Vdefault object formatter
p2405
sg7
g22
sg9
L2L
sa(dp2406
g1
I01
sg7
g24
sg9
L5L
sa(dp2407
g1
I01
sg7
g26
sg9
L5L
sa(dp2408
g1
I01
sg7
g28
sg9
L5L
sa(dp2409
g1
I01
sg7
g30
sg9
L5L
sa(dp2410
g1
I01
sg7
g32
sg9
L5L
sa(dp2411
g1
I01
sg7
g34
sg9
L5L
sa(dp2412
g1
I01
sg7
g36
sg9
L5L
sa(dp2413
g1
I01
sg7
V__module__
p2414
sg9
L5L
sa(dp2415
g1
I01
sg7
g38
sg9
L5L
sa(dp2416
g1
I01
sg13
VCreate and return a new object.  See help(type) for accurate signature.
p2417
sg7
g41
sg9
L2L
sa(dp2418
g1
I01
sg13
Nsg7
g43
sg9
L2L
sa(dp2419
g1
I01
sg13
Vhelper for pickle
p2420
sg7
g46
sg9
L2L
sa(dp2421
g1
I01
sg7
g48
sg9
L5L
sa(dp2422
g1
I01
sg7
g50
sg9
L5L
sa(dp2423
g1
I01
sg13
V__sizeof__() -> int\u000asize of object in memory, in bytes
p2424
sg7
g53
sg9
L2L
sa(dp2425
g1
I01
sg7
g55
sg9
L5L
sa(dp2426
g1
I01
sg13
VAbstract classes can override this to customize issubclass().\u000a\u000aThis is invoked early on by abc.ABCMeta.__subclasscheck__().\u000aIt should return True, False or NotImplemented.  If it returns\u000aNotImplemented, the normal algorithm is used.  Otherwise, it\u000aoverrides the normal algorithm (and the outcome is cached).\u000a
p2427
sg7
g58
sg9
L2L
sa(dp2428
g1
I01
sg7
g97
sg9
L5L
sa(dp2429
g1
I01
sg7
g60
sg9
L5L
sa(dp2430
g1
I01
sg7
V_fields
p2431
sg9
L5L
sasg13
Nsg7
VNameConstant
p2432
sg9
L3L
sa(dp2433
g1
I01
sg2
(lp2434
(dp2435
g1
I01
sg7
g8
sg9
L5L
sa(dp2436
g1
I01
sg7
g11
sg9
L5L
sa(dp2437
g1
I01
sg13
V__dir__() -> list\u000adefault dir() implementation
p2438
sg7
g15
sg9
L2L
sa(dp2439
g1
I01
sg7
g17
sg9
L5L
sa(dp2440
g1
I01
sg7
g19
sg9
L5L
sa(dp2441
g1
I01
sg13
Vdefault object formatter
p2442
sg7
g22
sg9
L2L
sa(dp2443
g1
I01
sg7
g24
sg9
L5L
sa(dp2444
g1
I01
sg7
g26
sg9
L5L
sa(dp2445
g1
I01
sg7
g28
sg9
L5L
sa(dp2446
g1
I01
sg7
g30
sg9
L5L
sa(dp2447
g1
I01
sg7
g32
sg9
L5L
sa(dp2448
g1
I01
sg7
g34
sg9
L5L
sa(dp2449
g1
I01
sg7
g36
sg9
L5L
sa(dp2450
g1
I01
sg7
V__module__
p2451
sg9
L5L
sa(dp2452
g1
I01
sg7
g38
sg9
L5L
sa(dp2453
g1
I01
sg13
VCreate and return a new object.  See help(type) for accurate signature.
p2454
sg7
g41
sg9
L2L
sa(dp2455
g1
I01
sg13
Nsg7
g43
sg9
L2L
sa(dp2456
g1
I01
sg13
Vhelper for pickle
p2457
sg7
g46
sg9
L2L
sa(dp2458
g1
I01
sg7
g48
sg9
L5L
sa(dp2459
g1
I01
sg7
g50
sg9
L5L
sa(dp2460
g1
I01
sg13
V__sizeof__() -> int\u000asize of object in memory, in bytes
p2461
sg7
g53
sg9
L2L
sa(dp2462
g1
I01
sg7
g55
sg9
L5L
sa(dp2463
g1
I01
sg13
VAbstract classes can override this to customize issubclass().\u000a\u000aThis is invoked early on by abc.ABCMeta.__subclasscheck__().\u000aIt should return True, False or NotImplemented.  If it returns\u000aNotImplemented, the normal algorithm is used.  Otherwise, it\u000aoverrides the normal algorithm (and the outcome is cached).\u000a
p2464
sg7
g58
sg9
L2L
sa(dp2465
g1
I01
sg7
g97
sg9
L5L
sa(dp2466
g1
I01
sg7
g60
sg9
L5L
sa(dp2467
g1
I01
sg7
V_fields
p2468
sg9
L5L
sasg13
Nsg7
VNonlocal
p2469
sg9
L3L
sa(dp2470
g1
I01
sg2
(lp2471
(dp2472
g1
I01
sg7
g8
sg9
L5L
sa(dp2473
g1
I01
sg7
g11
sg9
L5L
sa(dp2474
g1
I01
sg13
V__dir__() -> list\u000adefault dir() implementation
p2475
sg7
g15
sg9
L2L
sa(dp2476
g1
I01
sg7
g17
sg9
L5L
sa(dp2477
g1
I01
sg7
g19
sg9
L5L
sa(dp2478
g1
I01
sg13
Vdefault object formatter
p2479
sg7
g22
sg9
L2L
sa(dp2480
g1
I01
sg7
g24
sg9
L5L
sa(dp2481
g1
I01
sg7
g26
sg9
L5L
sa(dp2482
g1
I01
sg7
g28
sg9
L5L
sa(dp2483
g1
I01
sg7
g30
sg9
L5L
sa(dp2484
g1
I01
sg7
g32
sg9
L5L
sa(dp2485
g1
I01
sg7
g34
sg9
L5L
sa(dp2486
g1
I01
sg7
g36
sg9
L5L
sa(dp2487
g1
I01
sg7
V__module__
p2488
sg9
L5L
sa(dp2489
g1
I01
sg7
g38
sg9
L5L
sa(dp2490
g1
I01
sg13
VCreate and return a new object.  See help(type) for accurate signature.
p2491
sg7
g41
sg9
L2L
sa(dp2492
g1
I01
sg13
Nsg7
g43
sg9
L2L
sa(dp2493
g1
I01
sg13
Vhelper for pickle
p2494
sg7
g46
sg9
L2L
sa(dp2495
g1
I01
sg7
g48
sg9
L5L
sa(dp2496
g1
I01
sg7
g50
sg9
L5L
sa(dp2497
g1
I01
sg13
V__sizeof__() -> int\u000asize of object in memory, in bytes
p2498
sg7
g53
sg9
L2L
sa(dp2499
g1
I01
sg7
g55
sg9
L5L
sa(dp2500
g1
I01
sg13
VAbstract classes can override this to customize issubclass().\u000a\u000aThis is invoked early on by abc.ABCMeta.__subclasscheck__().\u000aIt should return True, False or NotImplemented.  If it returns\u000aNotImplemented, the normal algorithm is used.  Otherwise, it\u000aoverrides the normal algorithm (and the outcome is cached).\u000a
p2501
sg7
g58
sg9
L2L
sa(dp2502
g1
I01
sg7
g97
sg9
L5L
sa(dp2503
g1
I01
sg7
g60
sg9
L5L
sa(dp2504
g1
I01
sg7
V_fields
p2505
sg9
L5L
sasg13
Nsg7
VNot
p2506
sg9
L3L
sa(dp2507
g1
I01
sg2
(lp2508
(dp2509
g1
I01
sg7
g8
sg9
L5L
sa(dp2510
g1
I01
sg7
g11
sg9
L5L
sa(dp2511
g1
I01
sg13
V__dir__() -> list\u000adefault dir() implementation
p2512
sg7
g15
sg9
L2L
sa(dp2513
g1
I01
sg7
g17
sg9
L5L
sa(dp2514
g1
I01
sg7
g19
sg9
L5L
sa(dp2515
g1
I01
sg13
Vdefault object formatter
p2516
sg7
g22
sg9
L2L
sa(dp2517
g1
I01
sg7
g24
sg9
L5L
sa(dp2518
g1
I01
sg7
g26
sg9
L5L
sa(dp2519
g1
I01
sg7
g28
sg9
L5L
sa(dp2520
g1
I01
sg7
g30
sg9
L5L
sa(dp2521
g1
I01
sg7
g32
sg9
L5L
sa(dp2522
g1
I01
sg7
g34
sg9
L5L
sa(dp2523
g1
I01
sg7
g36
sg9
L5L
sa(dp2524
g1
I01
sg7
V__module__
p2525
sg9
L5L
sa(dp2526
g1
I01
sg7
g38
sg9
L5L
sa(dp2527
g1
I01
sg13
VCreate and return a new object.  See help(type) for accurate signature.
p2528
sg7
g41
sg9
L2L
sa(dp2529
g1
I01
sg13
Nsg7
g43
sg9
L2L
sa(dp2530
g1
I01
sg13
Vhelper for pickle
p2531
sg7
g46
sg9
L2L
sa(dp2532
g1
I01
sg7
g48
sg9
L5L
sa(dp2533
g1
I01
sg7
g50
sg9
L5L
sa(dp2534
g1
I01
sg13
V__sizeof__() -> int\u000asize of object in memory, in bytes
p2535
sg7
g53
sg9
L2L
sa(dp2536
g1
I01
sg7
g55
sg9
L5L
sa(dp2537
g1
I01
sg13
VAbstract classes can override this to customize issubclass().\u000a\u000aThis is invoked early on by abc.ABCMeta.__subclasscheck__().\u000aIt should return True, False or NotImplemented.  If it returns\u000aNotImplemented, the normal algorithm is used.  Otherwise, it\u000aoverrides the normal algorithm (and the outcome is cached).\u000a
p2538
sg7
g58
sg9
L2L
sa(dp2539
g1
I01
sg7
g97
sg9
L5L
sa(dp2540
g1
I01
sg7
g60
sg9
L5L
sa(dp2541
g1
I01
sg7
V_fields
p2542
sg9
L5L
sasg13
Nsg7
VNotEq
p2543
sg9
L3L
sa(dp2544
g1
I01
sg2
(lp2545
(dp2546
g1
I01
sg7
g8
sg9
L5L
sa(dp2547
g1
I01
sg7
g11
sg9
L5L
sa(dp2548
g1
I01
sg13
V__dir__() -> list\u000adefault dir() implementation
p2549
sg7
g15
sg9
L2L
sa(dp2550
g1
I01
sg7
g17
sg9
L5L
sa(dp2551
g1
I01
sg7
g19
sg9
L5L
sa(dp2552
g1
I01
sg13
Vdefault object formatter
p2553
sg7
g22
sg9
L2L
sa(dp2554
g1
I01
sg7
g24
sg9
L5L
sa(dp2555
g1
I01
sg7
g26
sg9
L5L
sa(dp2556
g1
I01
sg7
g28
sg9
L5L
sa(dp2557
g1
I01
sg7
g30
sg9
L5L
sa(dp2558
g1
I01
sg7
g32
sg9
L5L
sa(dp2559
g1
I01
sg7
g34
sg9
L5L
sa(dp2560
g1
I01
sg7
g36
sg9
L5L
sa(dp2561
g1
I01
sg7
V__module__
p2562
sg9
L5L
sa(dp2563
g1
I01
sg7
g38
sg9
L5L
sa(dp2564
g1
I01
sg13
VCreate and return a new object.  See help(type) for accurate signature.
p2565
sg7
g41
sg9
L2L
sa(dp2566
g1
I01
sg13
Nsg7
g43
sg9
L2L
sa(dp2567
g1
I01
sg13
Vhelper for pickle
p2568
sg7
g46
sg9
L2L
sa(dp2569
g1
I01
sg7
g48
sg9
L5L
sa(dp2570
g1
I01
sg7
g50
sg9
L5L
sa(dp2571
g1
I01
sg13
V__sizeof__() -> int\u000asize of object in memory, in bytes
p2572
sg7
g53
sg9
L2L
sa(dp2573
g1
I01
sg7
g55
sg9
L5L
sa(dp2574
g1
I01
sg13
VAbstract classes can override this to customize issubclass().\u000a\u000aThis is invoked early on by abc.ABCMeta.__subclasscheck__().\u000aIt should return True, False or NotImplemented.  If it returns\u000aNotImplemented, the normal algorithm is used.  Otherwise, it\u000aoverrides the normal algorithm (and the outcome is cached).\u000a
p2575
sg7
g58
sg9
L2L
sa(dp2576
g1
I01
sg7
g97
sg9
L5L
sa(dp2577
g1
I01
sg7
g60
sg9
L5L
sa(dp2578
g1
I01
sg7
V_fields
p2579
sg9
L5L
sasg13
Nsg7
VNotIn
p2580
sg9
L3L
sa(dp2581
g1
I01
sg2
(lp2582
(dp2583
g1
I01
sg7
g8
sg9
L5L
sa(dp2584
g1
I01
sg7
g11
sg9
L5L
sa(dp2585
g1
I01
sg13
V__dir__() -> list\u000adefault dir() implementation
p2586
sg7
g15
sg9
L2L
sa(dp2587
g1
I01
sg7
g17
sg9
L5L
sa(dp2588
g1
I01
sg7
g19
sg9
L5L
sa(dp2589
g1
I01
sg13
Vdefault object formatter
p2590
sg7
g22
sg9
L2L
sa(dp2591
g1
I01
sg7
g24
sg9
L5L
sa(dp2592
g1
I01
sg7
g26
sg9
L5L
sa(dp2593
g1
I01
sg7
g28
sg9
L5L
sa(dp2594
g1
I01
sg7
g30
sg9
L5L
sa(dp2595
g1
I01
sg7
g32
sg9
L5L
sa(dp2596
g1
I01
sg7
g34
sg9
L5L
sa(dp2597
g1
I01
sg7
g36
sg9
L5L
sa(dp2598
g1
I01
sg7
V__module__
p2599
sg9
L5L
sa(dp2600
g1
I01
sg7
g38
sg9
L5L
sa(dp2601
g1
I01
sg13
VCreate and return a new object.  See help(type) for accurate signature.
p2602
sg7
g41
sg9
L2L
sa(dp2603
g1
I01
sg13
Nsg7
g43
sg9
L2L
sa(dp2604
g1
I01
sg13
Vhelper for pickle
p2605
sg7
g46
sg9
L2L
sa(dp2606
g1
I01
sg7
g48
sg9
L5L
sa(dp2607
g1
I01
sg7
g50
sg9
L5L
sa(dp2608
g1
I01
sg13
V__sizeof__() -> int\u000asize of object in memory, in bytes
p2609
sg7
g53
sg9
L2L
sa(dp2610
g1
I01
sg7
g55
sg9
L5L
sa(dp2611
g1
I01
sg13
VAbstract classes can override this to customize issubclass().\u000a\u000aThis is invoked early on by abc.ABCMeta.__subclasscheck__().\u000aIt should return True, False or NotImplemented.  If it returns\u000aNotImplemented, the normal algorithm is used.  Otherwise, it\u000aoverrides the normal algorithm (and the outcome is cached).\u000a
p2612
sg7
g58
sg9
L2L
sa(dp2613
g1
I01
sg7
g97
sg9
L5L
sa(dp2614
g1
I01
sg7
g60
sg9
L5L
sa(dp2615
g1
I01
sg7
V_fields
p2616
sg9
L5L
sasg13
Nsg7
VNum
p2617
sg9
L3L
sa(dp2618
g1
I01
sg2
(lp2619
(dp2620
g1
I01
sg7
g8
sg9
L5L
sa(dp2621
g1
I01
sg7
g11
sg9
L5L
sa(dp2622
g1
I01
sg13
V__dir__() -> list\u000adefault dir() implementation
p2623
sg7
g15
sg9
L2L
sa(dp2624
g1
I01
sg7
g17
sg9
L5L
sa(dp2625
g1
I01
sg7
g19
sg9
L5L
sa(dp2626
g1
I01
sg13
Vdefault object formatter
p2627
sg7
g22
sg9
L2L
sa(dp2628
g1
I01
sg7
g24
sg9
L5L
sa(dp2629
g1
I01
sg7
g26
sg9
L5L
sa(dp2630
g1
I01
sg7
g28
sg9
L5L
sa(dp2631
g1
I01
sg7
g30
sg9
L5L
sa(dp2632
g1
I01
sg7
g32
sg9
L5L
sa(dp2633
g1
I01
sg7
g34
sg9
L5L
sa(dp2634
g1
I01
sg7
g36
sg9
L5L
sa(dp2635
g1
I01
sg7
V__module__
p2636
sg9
L5L
sa(dp2637
g1
I01
sg7
g38
sg9
L5L
sa(dp2638
g1
I01
sg13
VCreate and return a new object.  See help(type) for accurate signature.
p2639
sg7
g41
sg9
L2L
sa(dp2640
g1
I01
sg13
Nsg7
g43
sg9
L2L
sa(dp2641
g1
I01
sg13
Vhelper for pickle
p2642
sg7
g46
sg9
L2L
sa(dp2643
g1
I01
sg7
g48
sg9
L5L
sa(dp2644
g1
I01
sg7
g50
sg9
L5L
sa(dp2645
g1
I01
sg13
V__sizeof__() -> int\u000asize of object in memory, in bytes
p2646
sg7
g53
sg9
L2L
sa(dp2647
g1
I01
sg7
g55
sg9
L5L
sa(dp2648
g1
I01
sg13
VAbstract classes can override this to customize issubclass().\u000a\u000aThis is invoked early on by abc.ABCMeta.__subclasscheck__().\u000aIt should return True, False or NotImplemented.  If it returns\u000aNotImplemented, the normal algorithm is used.  Otherwise, it\u000aoverrides the normal algorithm (and the outcome is cached).\u000a
p2649
sg7
g58
sg9
L2L
sa(dp2650
g1
I01
sg7
g97
sg9
L5L
sa(dp2651
g1
I01
sg7
g60
sg9
L5L
sa(dp2652
g1
I01
sg7
V_fields
p2653
sg9
L5L
sasg13
Nsg7
VOr
p2654
sg9
L3L
sa(dp2655
g1
I01
sg2
(lp2656
(dp2657
g1
I01
sg7
g8
sg9
L5L
sa(dp2658
g1
I01
sg7
g11
sg9
L5L
sa(dp2659
g1
I01
sg13
V__dir__() -> list\u000adefault dir() implementation
p2660
sg7
g15
sg9
L2L
sa(dp2661
g1
I01
sg7
g17
sg9
L5L
sa(dp2662
g1
I01
sg7
g19
sg9
L5L
sa(dp2663
g1
I01
sg13
Vdefault object formatter
p2664
sg7
g22
sg9
L2L
sa(dp2665
g1
I01
sg7
g24
sg9
L5L
sa(dp2666
g1
I01
sg7
g26
sg9
L5L
sa(dp2667
g1
I01
sg7
g28
sg9
L5L
sa(dp2668
g1
I01
sg7
g30
sg9
L5L
sa(dp2669
g1
I01
sg7
g32
sg9
L5L
sa(dp2670
g1
I01
sg7
g34
sg9
L5L
sa(dp2671
g1
I01
sg7
g36
sg9
L5L
sa(dp2672
g1
I01
sg7
V__module__
p2673
sg9
L5L
sa(dp2674
g1
I01
sg7
g38
sg9
L5L
sa(dp2675
g1
I01
sg13
VCreate and return a new object.  See help(type) for accurate signature.
p2676
sg7
g41
sg9
L2L
sa(dp2677
g1
I01
sg13
Nsg7
g43
sg9
L2L
sa(dp2678
g1
I01
sg13
Vhelper for pickle
p2679
sg7
g46
sg9
L2L
sa(dp2680
g1
I01
sg7
g48
sg9
L5L
sa(dp2681
g1
I01
sg7
g50
sg9
L5L
sa(dp2682
g1
I01
sg13
V__sizeof__() -> int\u000asize of object in memory, in bytes
p2683
sg7
g53
sg9
L2L
sa(dp2684
g1
I01
sg7
g55
sg9
L5L
sa(dp2685
g1
I01
sg13
VAbstract classes can override this to customize issubclass().\u000a\u000aThis is invoked early on by abc.ABCMeta.__subclasscheck__().\u000aIt should return True, False or NotImplemented.  If it returns\u000aNotImplemented, the normal algorithm is used.  Otherwise, it\u000aoverrides the normal algorithm (and the outcome is cached).\u000a
p2686
sg7
g58
sg9
L2L
sa(dp2687
g1
I01
sg7
g97
sg9
L5L
sa(dp2688
g1
I01
sg7
g60
sg9
L5L
sa(dp2689
g1
I01
sg7
V_fields
p2690
sg9
L5L
sasg13
Nsg7
VParam
p2691
sg9
L3L
sa(dp2692
g1
I01
sg2
(lp2693
(dp2694
g1
I01
sg7
g8
sg9
L5L
sa(dp2695
g1
I01
sg7
g11
sg9
L5L
sa(dp2696
g1
I01
sg13
V__dir__() -> list\u000adefault dir() implementation
p2697
sg7
g15
sg9
L2L
sa(dp2698
g1
I01
sg7
g17
sg9
L5L
sa(dp2699
g1
I01
sg7
g19
sg9
L5L
sa(dp2700
g1
I01
sg13
Vdefault object formatter
p2701
sg7
g22
sg9
L2L
sa(dp2702
g1
I01
sg7
g24
sg9
L5L
sa(dp2703
g1
I01
sg7
g26
sg9
L5L
sa(dp2704
g1
I01
sg7
g28
sg9
L5L
sa(dp2705
g1
I01
sg7
g30
sg9
L5L
sa(dp2706
g1
I01
sg7
g32
sg9
L5L
sa(dp2707
g1
I01
sg7
g34
sg9
L5L
sa(dp2708
g1
I01
sg7
g36
sg9
L5L
sa(dp2709
g1
I01
sg7
V__module__
p2710
sg9
L5L
sa(dp2711
g1
I01
sg7
g38
sg9
L5L
sa(dp2712
g1
I01
sg13
VCreate and return a new object.  See help(type) for accurate signature.
p2713
sg7
g41
sg9
L2L
sa(dp2714
g1
I01
sg13
Nsg7
g43
sg9
L2L
sa(dp2715
g1
I01
sg13
Vhelper for pickle
p2716
sg7
g46
sg9
L2L
sa(dp2717
g1
I01
sg7
g48
sg9
L5L
sa(dp2718
g1
I01
sg7
g50
sg9
L5L
sa(dp2719
g1
I01
sg13
V__sizeof__() -> int\u000asize of object in memory, in bytes
p2720
sg7
g53
sg9
L2L
sa(dp2721
g1
I01
sg7
g55
sg9
L5L
sa(dp2722
g1
I01
sg13
VAbstract classes can override this to customize issubclass().\u000a\u000aThis is invoked early on by abc.ABCMeta.__subclasscheck__().\u000aIt should return True, False or NotImplemented.  If it returns\u000aNotImplemented, the normal algorithm is used.  Otherwise, it\u000aoverrides the normal algorithm (and the outcome is cached).\u000a
p2723
sg7
g58
sg9
L2L
sa(dp2724
g1
I01
sg7
g97
sg9
L5L
sa(dp2725
g1
I01
sg7
g60
sg9
L5L
sa(dp2726
g1
I01
sg7
V_fields
p2727
sg9
L5L
sasg13
Nsg7
VPass
p2728
sg9
L3L
sa(dp2729
g1
I01
sg2
(lp2730
(dp2731
g1
I01
sg7
g8
sg9
L5L
sa(dp2732
g1
I01
sg7
g11
sg9
L5L
sa(dp2733
g1
I01
sg13
V__dir__() -> list\u000adefault dir() implementation
p2734
sg7
g15
sg9
L2L
sa(dp2735
g1
I01
sg7
g17
sg9
L5L
sa(dp2736
g1
I01
sg7
g19
sg9
L5L
sa(dp2737
g1
I01
sg13
Vdefault object formatter
p2738
sg7
g22
sg9
L2L
sa(dp2739
g1
I01
sg7
g24
sg9
L5L
sa(dp2740
g1
I01
sg7
g26
sg9
L5L
sa(dp2741
g1
I01
sg7
g28
sg9
L5L
sa(dp2742
g1
I01
sg7
g30
sg9
L5L
sa(dp2743
g1
I01
sg7
g32
sg9
L5L
sa(dp2744
g1
I01
sg7
g34
sg9
L5L
sa(dp2745
g1
I01
sg7
g36
sg9
L5L
sa(dp2746
g1
I01
sg7
V__module__
p2747
sg9
L5L
sa(dp2748
g1
I01
sg7
g38
sg9
L5L
sa(dp2749
g1
I01
sg13
VCreate and return a new object.  See help(type) for accurate signature.
p2750
sg7
g41
sg9
L2L
sa(dp2751
g1
I01
sg13
Nsg7
g43
sg9
L2L
sa(dp2752
g1
I01
sg13
Vhelper for pickle
p2753
sg7
g46
sg9
L2L
sa(dp2754
g1
I01
sg7
g48
sg9
L5L
sa(dp2755
g1
I01
sg7
g50
sg9
L5L
sa(dp2756
g1
I01
sg13
V__sizeof__() -> int\u000asize of object in memory, in bytes
p2757
sg7
g53
sg9
L2L
sa(dp2758
g1
I01
sg7
g55
sg9
L5L
sa(dp2759
g1
I01
sg13
VAbstract classes can override this to customize issubclass().\u000a\u000aThis is invoked early on by abc.ABCMeta.__subclasscheck__().\u000aIt should return True, False or NotImplemented.  If it returns\u000aNotImplemented, the normal algorithm is used.  Otherwise, it\u000aoverrides the normal algorithm (and the outcome is cached).\u000a
p2760
sg7
g58
sg9
L2L
sa(dp2761
g1
I01
sg7
g97
sg9
L5L
sa(dp2762
g1
I01
sg7
g60
sg9
L5L
sa(dp2763
g1
I01
sg7
V_fields
p2764
sg9
L5L
sasg13
Nsg7
VPow
p2765
sg9
L3L
sa(dp2766
g1
I01
sg7
VPyCF_ONLY_AST
p2767
sg9
L5L
sa(dp2768
g1
I01
sg2
(lp2769
(dp2770
g1
I01
sg7
g8
sg9
L5L
sa(dp2771
g1
I01
sg7
g11
sg9
L5L
sa(dp2772
g1
I01
sg13
V__dir__() -> list\u000adefault dir() implementation
p2773
sg7
g15
sg9
L2L
sa(dp2774
g1
I01
sg7
g17
sg9
L5L
sa(dp2775
g1
I01
sg7
g19
sg9
L5L
sa(dp2776
g1
I01
sg13
Vdefault object formatter
p2777
sg7
g22
sg9
L2L
sa(dp2778
g1
I01
sg7
g24
sg9
L5L
sa(dp2779
g1
I01
sg7
g26
sg9
L5L
sa(dp2780
g1
I01
sg7
g28
sg9
L5L
sa(dp2781
g1
I01
sg7
g30
sg9
L5L
sa(dp2782
g1
I01
sg7
g32
sg9
L5L
sa(dp2783
g1
I01
sg7
g34
sg9
L5L
sa(dp2784
g1
I01
sg7
g36
sg9
L5L
sa(dp2785
g1
I01
sg7
V__module__
p2786
sg9
L5L
sa(dp2787
g1
I01
sg7
g38
sg9
L5L
sa(dp2788
g1
I01
sg13
VCreate and return a new object.  See help(type) for accurate signature.
p2789
sg7
g41
sg9
L2L
sa(dp2790
g1
I01
sg13
Nsg7
g43
sg9
L2L
sa(dp2791
g1
I01
sg13
Vhelper for pickle
p2792
sg7
g46
sg9
L2L
sa(dp2793
g1
I01
sg7
g48
sg9
L5L
sa(dp2794
g1
I01
sg7
g50
sg9
L5L
sa(dp2795
g1
I01
sg13
V__sizeof__() -> int\u000asize of object in memory, in bytes
p2796
sg7
g53
sg9
L2L
sa(dp2797
g1
I01
sg7
g55
sg9
L5L
sa(dp2798
g1
I01
sg13
VAbstract classes can override this to customize issubclass().\u000a\u000aThis is invoked early on by abc.ABCMeta.__subclasscheck__().\u000aIt should return True, False or NotImplemented.  If it returns\u000aNotImplemented, the normal algorithm is used.  Otherwise, it\u000aoverrides the normal algorithm (and the outcome is cached).\u000a
p2799
sg7
g58
sg9
L2L
sa(dp2800
g1
I01
sg7
g97
sg9
L5L
sa(dp2801
g1
I01
sg7
g60
sg9
L5L
sa(dp2802
g1
I01
sg7
V_fields
p2803
sg9
L5L
sasg13
Nsg7
VRShift
p2804
sg9
L3L
sa(dp2805
g1
I01
sg2
(lp2806
(dp2807
g1
I01
sg7
g8
sg9
L5L
sa(dp2808
g1
I01
sg7
g11
sg9
L5L
sa(dp2809
g1
I01
sg13
V__dir__() -> list\u000adefault dir() implementation
p2810
sg7
g15
sg9
L2L
sa(dp2811
g1
I01
sg7
g17
sg9
L5L
sa(dp2812
g1
I01
sg7
g19
sg9
L5L
sa(dp2813
g1
I01
sg13
Vdefault object formatter
p2814
sg7
g22
sg9
L2L
sa(dp2815
g1
I01
sg7
g24
sg9
L5L
sa(dp2816
g1
I01
sg7
g26
sg9
L5L
sa(dp2817
g1
I01
sg7
g28
sg9
L5L
sa(dp2818
g1
I01
sg7
g30
sg9
L5L
sa(dp2819
g1
I01
sg7
g32
sg9
L5L
sa(dp2820
g1
I01
sg7
g34
sg9
L5L
sa(dp2821
g1
I01
sg7
g36
sg9
L5L
sa(dp2822
g1
I01
sg7
V__module__
p2823
sg9
L5L
sa(dp2824
g1
I01
sg7
g38
sg9
L5L
sa(dp2825
g1
I01
sg13
VCreate and return a new object.  See help(type) for accurate signature.
p2826
sg7
g41
sg9
L2L
sa(dp2827
g1
I01
sg13
Nsg7
g43
sg9
L2L
sa(dp2828
g1
I01
sg13
Vhelper for pickle
p2829
sg7
g46
sg9
L2L
sa(dp2830
g1
I01
sg7
g48
sg9
L5L
sa(dp2831
g1
I01
sg7
g50
sg9
L5L
sa(dp2832
g1
I01
sg13
V__sizeof__() -> int\u000asize of object in memory, in bytes
p2833
sg7
g53
sg9
L2L
sa(dp2834
g1
I01
sg7
g55
sg9
L5L
sa(dp2835
g1
I01
sg13
VAbstract classes can override this to customize issubclass().\u000a\u000aThis is invoked early on by abc.ABCMeta.__subclasscheck__().\u000aIt should return True, False or NotImplemented.  If it returns\u000aNotImplemented, the normal algorithm is used.  Otherwise, it\u000aoverrides the normal algorithm (and the outcome is cached).\u000a
p2836
sg7
g58
sg9
L2L
sa(dp2837
g1
I01
sg7
g97
sg9
L5L
sa(dp2838
g1
I01
sg7
g60
sg9
L5L
sa(dp2839
g1
I01
sg7
V_fields
p2840
sg9
L5L
sasg13
Nsg7
VRaise
p2841
sg9
L3L
sa(dp2842
g1
I01
sg2
(lp2843
(dp2844
g1
I01
sg7
g8
sg9
L5L
sa(dp2845
g1
I01
sg7
g11
sg9
L5L
sa(dp2846
g1
I01
sg13
V__dir__() -> list\u000adefault dir() implementation
p2847
sg7
g15
sg9
L2L
sa(dp2848
g1
I01
sg7
g17
sg9
L5L
sa(dp2849
g1
I01
sg7
g19
sg9
L5L
sa(dp2850
g1
I01
sg13
Vdefault object formatter
p2851
sg7
g22
sg9
L2L
sa(dp2852
g1
I01
sg7
g24
sg9
L5L
sa(dp2853
g1
I01
sg7
g26
sg9
L5L
sa(dp2854
g1
I01
sg7
g28
sg9
L5L
sa(dp2855
g1
I01
sg7
g30
sg9
L5L
sa(dp2856
g1
I01
sg7
g32
sg9
L5L
sa(dp2857
g1
I01
sg7
g34
sg9
L5L
sa(dp2858
g1
I01
sg7
g36
sg9
L5L
sa(dp2859
g1
I01
sg7
V__module__
p2860
sg9
L5L
sa(dp2861
g1
I01
sg7
g38
sg9
L5L
sa(dp2862
g1
I01
sg13
VCreate and return a new object.  See help(type) for accurate signature.
p2863
sg7
g41
sg9
L2L
sa(dp2864
g1
I01
sg13
Nsg7
g43
sg9
L2L
sa(dp2865
g1
I01
sg13
Vhelper for pickle
p2866
sg7
g46
sg9
L2L
sa(dp2867
g1
I01
sg7
g48
sg9
L5L
sa(dp2868
g1
I01
sg7
g50
sg9
L5L
sa(dp2869
g1
I01
sg13
V__sizeof__() -> int\u000asize of object in memory, in bytes
p2870
sg7
g53
sg9
L2L
sa(dp2871
g1
I01
sg7
g55
sg9
L5L
sa(dp2872
g1
I01
sg13
VAbstract classes can override this to customize issubclass().\u000a\u000aThis is invoked early on by abc.ABCMeta.__subclasscheck__().\u000aIt should return True, False or NotImplemented.  If it returns\u000aNotImplemented, the normal algorithm is used.  Otherwise, it\u000aoverrides the normal algorithm (and the outcome is cached).\u000a
p2873
sg7
g58
sg9
L2L
sa(dp2874
g1
I01
sg7
g97
sg9
L5L
sa(dp2875
g1
I01
sg7
g60
sg9
L5L
sa(dp2876
g1
I01
sg7
V_fields
p2877
sg9
L5L
sasg13
Nsg7
VReturn
p2878
sg9
L3L
sa(dp2879
g1
I01
sg2
(lp2880
(dp2881
g1
I01
sg7
g8
sg9
L5L
sa(dp2882
g1
I01
sg7
g11
sg9
L5L
sa(dp2883
g1
I01
sg13
V__dir__() -> list\u000adefault dir() implementation
p2884
sg7
g15
sg9
L2L
sa(dp2885
g1
I01
sg7
g17
sg9
L5L
sa(dp2886
g1
I01
sg7
g19
sg9
L5L
sa(dp2887
g1
I01
sg13
Vdefault object formatter
p2888
sg7
g22
sg9
L2L
sa(dp2889
g1
I01
sg7
g24
sg9
L5L
sa(dp2890
g1
I01
sg7
g26
sg9
L5L
sa(dp2891
g1
I01
sg7
g28
sg9
L5L
sa(dp2892
g1
I01
sg7
g30
sg9
L5L
sa(dp2893
g1
I01
sg7
g32
sg9
L5L
sa(dp2894
g1
I01
sg7
g34
sg9
L5L
sa(dp2895
g1
I01
sg7
g36
sg9
L5L
sa(dp2896
g1
I01
sg7
V__module__
p2897
sg9
L5L
sa(dp2898
g1
I01
sg7
g38
sg9
L5L
sa(dp2899
g1
I01
sg13
VCreate and return a new object.  See help(type) for accurate signature.
p2900
sg7
g41
sg9
L2L
sa(dp2901
g1
I01
sg13
Nsg7
g43
sg9
L2L
sa(dp2902
g1
I01
sg13
Vhelper for pickle
p2903
sg7
g46
sg9
L2L
sa(dp2904
g1
I01
sg7
g48
sg9
L5L
sa(dp2905
g1
I01
sg7
g50
sg9
L5L
sa(dp2906
g1
I01
sg13
V__sizeof__() -> int\u000asize of object in memory, in bytes
p2907
sg7
g53
sg9
L2L
sa(dp2908
g1
I01
sg7
g55
sg9
L5L
sa(dp2909
g1
I01
sg13
VAbstract classes can override this to customize issubclass().\u000a\u000aThis is invoked early on by abc.ABCMeta.__subclasscheck__().\u000aIt should return True, False or NotImplemented.  If it returns\u000aNotImplemented, the normal algorithm is used.  Otherwise, it\u000aoverrides the normal algorithm (and the outcome is cached).\u000a
p2910
sg7
g58
sg9
L2L
sa(dp2911
g1
I01
sg7
g97
sg9
L5L
sa(dp2912
g1
I01
sg7
g60
sg9
L5L
sa(dp2913
g1
I01
sg7
V_fields
p2914
sg9
L5L
sasg13
Nsg7
VSet
p2915
sg9
L3L
sa(dp2916
g1
I01
sg2
(lp2917
(dp2918
g1
I01
sg7
g8
sg9
L5L
sa(dp2919
g1
I01
sg7
g11
sg9
L5L
sa(dp2920
g1
I01
sg13
V__dir__() -> list\u000adefault dir() implementation
p2921
sg7
g15
sg9
L2L
sa(dp2922
g1
I01
sg7
g17
sg9
L5L
sa(dp2923
g1
I01
sg7
g19
sg9
L5L
sa(dp2924
g1
I01
sg13
Vdefault object formatter
p2925
sg7
g22
sg9
L2L
sa(dp2926
g1
I01
sg7
g24
sg9
L5L
sa(dp2927
g1
I01
sg7
g26
sg9
L5L
sa(dp2928
g1
I01
sg7
g28
sg9
L5L
sa(dp2929
g1
I01
sg7
g30
sg9
L5L
sa(dp2930
g1
I01
sg7
g32
sg9
L5L
sa(dp2931
g1
I01
sg7
g34
sg9
L5L
sa(dp2932
g1
I01
sg7
g36
sg9
L5L
sa(dp2933
g1
I01
sg7
V__module__
p2934
sg9
L5L
sa(dp2935
g1
I01
sg7
g38
sg9
L5L
sa(dp2936
g1
I01
sg13
VCreate and return a new object.  See help(type) for accurate signature.
p2937
sg7
g41
sg9
L2L
sa(dp2938
g1
I01
sg13
Nsg7
g43
sg9
L2L
sa(dp2939
g1
I01
sg13
Vhelper for pickle
p2940
sg7
g46
sg9
L2L
sa(dp2941
g1
I01
sg7
g48
sg9
L5L
sa(dp2942
g1
I01
sg7
g50
sg9
L5L
sa(dp2943
g1
I01
sg13
V__sizeof__() -> int\u000asize of object in memory, in bytes
p2944
sg7
g53
sg9
L2L
sa(dp2945
g1
I01
sg7
g55
sg9
L5L
sa(dp2946
g1
I01
sg13
VAbstract classes can override this to customize issubclass().\u000a\u000aThis is invoked early on by abc.ABCMeta.__subclasscheck__().\u000aIt should return True, False or NotImplemented.  If it returns\u000aNotImplemented, the normal algorithm is used.  Otherwise, it\u000aoverrides the normal algorithm (and the outcome is cached).\u000a
p2947
sg7
g58
sg9
L2L
sa(dp2948
g1
I01
sg7
g97
sg9
L5L
sa(dp2949
g1
I01
sg7
g60
sg9
L5L
sa(dp2950
g1
I01
sg7
V_fields
p2951
sg9
L5L
sasg13
Nsg7
VSetComp
p2952
sg9
L3L
sa(dp2953
g1
I01
sg2
(lp2954
(dp2955
g1
I01
sg7
g8
sg9
L5L
sa(dp2956
g1
I01
sg7
g11
sg9
L5L
sa(dp2957
g1
I01
sg13
V__dir__() -> list\u000adefault dir() implementation
p2958
sg7
g15
sg9
L2L
sa(dp2959
g1
I01
sg7
g17
sg9
L5L
sa(dp2960
g1
I01
sg7
g19
sg9
L5L
sa(dp2961
g1
I01
sg13
Vdefault object formatter
p2962
sg7
g22
sg9
L2L
sa(dp2963
g1
I01
sg7
g24
sg9
L5L
sa(dp2964
g1
I01
sg7
g26
sg9
L5L
sa(dp2965
g1
I01
sg7
g28
sg9
L5L
sa(dp2966
g1
I01
sg7
g30
sg9
L5L
sa(dp2967
g1
I01
sg7
g32
sg9
L5L
sa(dp2968
g1
I01
sg7
g34
sg9
L5L
sa(dp2969
g1
I01
sg7
g36
sg9
L5L
sa(dp2970
g1
I01
sg7
V__module__
p2971
sg9
L5L
sa(dp2972
g1
I01
sg7
g38
sg9
L5L
sa(dp2973
g1
I01
sg13
VCreate and return a new object.  See help(type) for accurate signature.
p2974
sg7
g41
sg9
L2L
sa(dp2975
g1
I01
sg13
Nsg7
g43
sg9
L2L
sa(dp2976
g1
I01
sg13
Vhelper for pickle
p2977
sg7
g46
sg9
L2L
sa(dp2978
g1
I01
sg7
g48
sg9
L5L
sa(dp2979
g1
I01
sg7
g50
sg9
L5L
sa(dp2980
g1
I01
sg13
V__sizeof__() -> int\u000asize of object in memory, in bytes
p2981
sg7
g53
sg9
L2L
sa(dp2982
g1
I01
sg7
g55
sg9
L5L
sa(dp2983
g1
I01
sg13
VAbstract classes can override this to customize issubclass().\u000a\u000aThis is invoked early on by abc.ABCMeta.__subclasscheck__().\u000aIt should return True, False or NotImplemented.  If it returns\u000aNotImplemented, the normal algorithm is used.  Otherwise, it\u000aoverrides the normal algorithm (and the outcome is cached).\u000a
p2984
sg7
g58
sg9
L2L
sa(dp2985
g1
I01
sg7
g97
sg9
L5L
sa(dp2986
g1
I01
sg7
g60
sg9
L5L
sa(dp2987
g1
I01
sg7
V_fields
p2988
sg9
L5L
sasg13
Nsg7
VSlice
p2989
sg9
L3L
sa(dp2990
g1
I01
sg2
(lp2991
(dp2992
g1
I01
sg7
g8
sg9
L5L
sa(dp2993
g1
I01
sg7
g11
sg9
L5L
sa(dp2994
g1
I01
sg13
V__dir__() -> list\u000adefault dir() implementation
p2995
sg7
g15
sg9
L2L
sa(dp2996
g1
I01
sg7
g17
sg9
L5L
sa(dp2997
g1
I01
sg7
g19
sg9
L5L
sa(dp2998
g1
I01
sg13
Vdefault object formatter
p2999
sg7
g22
sg9
L2L
sa(dp3000
g1
I01
sg7
g24
sg9
L5L
sa(dp3001
g1
I01
sg7
g26
sg9
L5L
sa(dp3002
g1
I01
sg7
g28
sg9
L5L
sa(dp3003
g1
I01
sg7
g30
sg9
L5L
sa(dp3004
g1
I01
sg7
g32
sg9
L5L
sa(dp3005
g1
I01
sg7
g34
sg9
L5L
sa(dp3006
g1
I01
sg7
g36
sg9
L5L
sa(dp3007
g1
I01
sg7
V__module__
p3008
sg9
L5L
sa(dp3009
g1
I01
sg7
g38
sg9
L5L
sa(dp3010
g1
I01
sg13
VCreate and return a new object.  See help(type) for accurate signature.
p3011
sg7
g41
sg9
L2L
sa(dp3012
g1
I01
sg13
Nsg7
g43
sg9
L2L
sa(dp3013
g1
I01
sg13
Vhelper for pickle
p3014
sg7
g46
sg9
L2L
sa(dp3015
g1
I01
sg7
g48
sg9
L5L
sa(dp3016
g1
I01
sg7
g50
sg9
L5L
sa(dp3017
g1
I01
sg13
V__sizeof__() -> int\u000asize of object in memory, in bytes
p3018
sg7
g53
sg9
L2L
sa(dp3019
g1
I01
sg7
g55
sg9
L5L
sa(dp3020
g1
I01
sg13
VAbstract classes can override this to customize issubclass().\u000a\u000aThis is invoked early on by abc.ABCMeta.__subclasscheck__().\u000aIt should return True, False or NotImplemented.  If it returns\u000aNotImplemented, the normal algorithm is used.  Otherwise, it\u000aoverrides the normal algorithm (and the outcome is cached).\u000a
p3021
sg7
g58
sg9
L2L
sa(dp3022
g1
I01
sg7
g97
sg9
L5L
sa(dp3023
g1
I01
sg7
g60
sg9
L5L
sa(dp3024
g1
I01
sg7
V_fields
p3025
sg9
L5L
sasg13
Nsg7
VStarred
p3026
sg9
L3L
sa(dp3027
g1
I01
sg2
(lp3028
(dp3029
g1
I01
sg7
g8
sg9
L5L
sa(dp3030
g1
I01
sg7
g11
sg9
L5L
sa(dp3031
g1
I01
sg13
V__dir__() -> list\u000adefault dir() implementation
p3032
sg7
g15
sg9
L2L
sa(dp3033
g1
I01
sg7
g17
sg9
L5L
sa(dp3034
g1
I01
sg7
g19
sg9
L5L
sa(dp3035
g1
I01
sg13
Vdefault object formatter
p3036
sg7
g22
sg9
L2L
sa(dp3037
g1
I01
sg7
g24
sg9
L5L
sa(dp3038
g1
I01
sg7
g26
sg9
L5L
sa(dp3039
g1
I01
sg7
g28
sg9
L5L
sa(dp3040
g1
I01
sg7
g30
sg9
L5L
sa(dp3041
g1
I01
sg7
g32
sg9
L5L
sa(dp3042
g1
I01
sg7
g34
sg9
L5L
sa(dp3043
g1
I01
sg7
g36
sg9
L5L
sa(dp3044
g1
I01
sg7
V__module__
p3045
sg9
L5L
sa(dp3046
g1
I01
sg7
g38
sg9
L5L
sa(dp3047
g1
I01
sg13
VCreate and return a new object.  See help(type) for accurate signature.
p3048
sg7
g41
sg9
L2L
sa(dp3049
g1
I01
sg13
Nsg7
g43
sg9
L2L
sa(dp3050
g1
I01
sg13
Vhelper for pickle
p3051
sg7
g46
sg9
L2L
sa(dp3052
g1
I01
sg7
g48
sg9
L5L
sa(dp3053
g1
I01
sg7
g50
sg9
L5L
sa(dp3054
g1
I01
sg13
V__sizeof__() -> int\u000asize of object in memory, in bytes
p3055
sg7
g53
sg9
L2L
sa(dp3056
g1
I01
sg7
g55
sg9
L5L
sa(dp3057
g1
I01
sg13
VAbstract classes can override this to customize issubclass().\u000a\u000aThis is invoked early on by abc.ABCMeta.__subclasscheck__().\u000aIt should return True, False or NotImplemented.  If it returns\u000aNotImplemented, the normal algorithm is used.  Otherwise, it\u000aoverrides the normal algorithm (and the outcome is cached).\u000a
p3058
sg7
g58
sg9
L2L
sa(dp3059
g1
I01
sg7
g97
sg9
L5L
sa(dp3060
g1
I01
sg7
g60
sg9
L5L
sa(dp3061
g1
I01
sg7
V_fields
p3062
sg9
L5L
sasg13
Nsg7
VStore
p3063
sg9
L3L
sa(dp3064
g1
I01
sg2
(lp3065
(dp3066
g1
I01
sg7
g8
sg9
L5L
sa(dp3067
g1
I01
sg7
g11
sg9
L5L
sa(dp3068
g1
I01
sg13
V__dir__() -> list\u000adefault dir() implementation
p3069
sg7
g15
sg9
L2L
sa(dp3070
g1
I01
sg7
g17
sg9
L5L
sa(dp3071
g1
I01
sg7
g19
sg9
L5L
sa(dp3072
g1
I01
sg13
Vdefault object formatter
p3073
sg7
g22
sg9
L2L
sa(dp3074
g1
I01
sg7
g24
sg9
L5L
sa(dp3075
g1
I01
sg7
g26
sg9
L5L
sa(dp3076
g1
I01
sg7
g28
sg9
L5L
sa(dp3077
g1
I01
sg7
g30
sg9
L5L
sa(dp3078
g1
I01
sg7
g32
sg9
L5L
sa(dp3079
g1
I01
sg7
g34
sg9
L5L
sa(dp3080
g1
I01
sg7
g36
sg9
L5L
sa(dp3081
g1
I01
sg7
V__module__
p3082
sg9
L5L
sa(dp3083
g1
I01
sg7
g38
sg9
L5L
sa(dp3084
g1
I01
sg13
VCreate and return a new object.  See help(type) for accurate signature.
p3085
sg7
g41
sg9
L2L
sa(dp3086
g1
I01
sg13
Nsg7
g43
sg9
L2L
sa(dp3087
g1
I01
sg13
Vhelper for pickle
p3088
sg7
g46
sg9
L2L
sa(dp3089
g1
I01
sg7
g48
sg9
L5L
sa(dp3090
g1
I01
sg7
g50
sg9
L5L
sa(dp3091
g1
I01
sg13
V__sizeof__() -> int\u000asize of object in memory, in bytes
p3092
sg7
g53
sg9
L2L
sa(dp3093
g1
I01
sg7
g55
sg9
L5L
sa(dp3094
g1
I01
sg13
VAbstract classes can override this to customize issubclass().\u000a\u000aThis is invoked early on by abc.ABCMeta.__subclasscheck__().\u000aIt should return True, False or NotImplemented.  If it returns\u000aNotImplemented, the normal algorithm is used.  Otherwise, it\u000aoverrides the normal algorithm (and the outcome is cached).\u000a
p3095
sg7
g58
sg9
L2L
sa(dp3096
g1
I01
sg7
g97
sg9
L5L
sa(dp3097
g1
I01
sg7
g60
sg9
L5L
sa(dp3098
g1
I01
sg7
V_fields
p3099
sg9
L5L
sasg13
Nsg7
VStr
p3100
sg9
L3L
sa(dp3101
g1
I01
sg2
(lp3102
(dp3103
g1
I01
sg7
g8
sg9
L5L
sa(dp3104
g1
I01
sg7
g11
sg9
L5L
sa(dp3105
g1
I01
sg13
V__dir__() -> list\u000adefault dir() implementation
p3106
sg7
g15
sg9
L2L
sa(dp3107
g1
I01
sg7
g17
sg9
L5L
sa(dp3108
g1
I01
sg7
g19
sg9
L5L
sa(dp3109
g1
I01
sg13
Vdefault object formatter
p3110
sg7
g22
sg9
L2L
sa(dp3111
g1
I01
sg7
g24
sg9
L5L
sa(dp3112
g1
I01
sg7
g26
sg9
L5L
sa(dp3113
g1
I01
sg7
g28
sg9
L5L
sa(dp3114
g1
I01
sg7
g30
sg9
L5L
sa(dp3115
g1
I01
sg7
g32
sg9
L5L
sa(dp3116
g1
I01
sg7
g34
sg9
L5L
sa(dp3117
g1
I01
sg7
g36
sg9
L5L
sa(dp3118
g1
I01
sg7
V__module__
p3119
sg9
L5L
sa(dp3120
g1
I01
sg7
g38
sg9
L5L
sa(dp3121
g1
I01
sg13
VCreate and return a new object.  See help(type) for accurate signature.
p3122
sg7
g41
sg9
L2L
sa(dp3123
g1
I01
sg13
Nsg7
g43
sg9
L2L
sa(dp3124
g1
I01
sg13
Vhelper for pickle
p3125
sg7
g46
sg9
L2L
sa(dp3126
g1
I01
sg7
g48
sg9
L5L
sa(dp3127
g1
I01
sg7
g50
sg9
L5L
sa(dp3128
g1
I01
sg13
V__sizeof__() -> int\u000asize of object in memory, in bytes
p3129
sg7
g53
sg9
L2L
sa(dp3130
g1
I01
sg7
g55
sg9
L5L
sa(dp3131
g1
I01
sg13
VAbstract classes can override this to customize issubclass().\u000a\u000aThis is invoked early on by abc.ABCMeta.__subclasscheck__().\u000aIt should return True, False or NotImplemented.  If it returns\u000aNotImplemented, the normal algorithm is used.  Otherwise, it\u000aoverrides the normal algorithm (and the outcome is cached).\u000a
p3132
sg7
g58
sg9
L2L
sa(dp3133
g1
I01
sg7
g97
sg9
L5L
sa(dp3134
g1
I01
sg7
g60
sg9
L5L
sa(dp3135
g1
I01
sg7
V_fields
p3136
sg9
L5L
sasg13
Nsg7
VSub
p3137
sg9
L3L
sa(dp3138
g1
I01
sg2
(lp3139
(dp3140
g1
I01
sg7
g8
sg9
L5L
sa(dp3141
g1
I01
sg7
g11
sg9
L5L
sa(dp3142
g1
I01
sg13
V__dir__() -> list\u000adefault dir() implementation
p3143
sg7
g15
sg9
L2L
sa(dp3144
g1
I01
sg7
g17
sg9
L5L
sa(dp3145
g1
I01
sg7
g19
sg9
L5L
sa(dp3146
g1
I01
sg13
Vdefault object formatter
p3147
sg7
g22
sg9
L2L
sa(dp3148
g1
I01
sg7
g24
sg9
L5L
sa(dp3149
g1
I01
sg7
g26
sg9
L5L
sa(dp3150
g1
I01
sg7
g28
sg9
L5L
sa(dp3151
g1
I01
sg7
g30
sg9
L5L
sa(dp3152
g1
I01
sg7
g32
sg9
L5L
sa(dp3153
g1
I01
sg7
g34
sg9
L5L
sa(dp3154
g1
I01
sg7
g36
sg9
L5L
sa(dp3155
g1
I01
sg7
V__module__
p3156
sg9
L5L
sa(dp3157
g1
I01
sg7
g38
sg9
L5L
sa(dp3158
g1
I01
sg13
VCreate and return a new object.  See help(type) for accurate signature.
p3159
sg7
g41
sg9
L2L
sa(dp3160
g1
I01
sg13
Nsg7
g43
sg9
L2L
sa(dp3161
g1
I01
sg13
Vhelper for pickle
p3162
sg7
g46
sg9
L2L
sa(dp3163
g1
I01
sg7
g48
sg9
L5L
sa(dp3164
g1
I01
sg7
g50
sg9
L5L
sa(dp3165
g1
I01
sg13
V__sizeof__() -> int\u000asize of object in memory, in bytes
p3166
sg7
g53
sg9
L2L
sa(dp3167
g1
I01
sg7
g55
sg9
L5L
sa(dp3168
g1
I01
sg13
VAbstract classes can override this to customize issubclass().\u000a\u000aThis is invoked early on by abc.ABCMeta.__subclasscheck__().\u000aIt should return True, False or NotImplemented.  If it returns\u000aNotImplemented, the normal algorithm is used.  Otherwise, it\u000aoverrides the normal algorithm (and the outcome is cached).\u000a
p3169
sg7
g58
sg9
L2L
sa(dp3170
g1
I01
sg7
g97
sg9
L5L
sa(dp3171
g1
I01
sg7
g60
sg9
L5L
sa(dp3172
g1
I01
sg7
V_fields
p3173
sg9
L5L
sasg13
Nsg7
VSubscript
p3174
sg9
L3L
sa(dp3175
g1
I01
sg2
(lp3176
(dp3177
g1
I01
sg7
g8
sg9
L5L
sa(dp3178
g1
I01
sg7
g11
sg9
L5L
sa(dp3179
g1
I01
sg13
V__dir__() -> list\u000adefault dir() implementation
p3180
sg7
g15
sg9
L2L
sa(dp3181
g1
I01
sg7
g17
sg9
L5L
sa(dp3182
g1
I01
sg7
g19
sg9
L5L
sa(dp3183
g1
I01
sg13
Vdefault object formatter
p3184
sg7
g22
sg9
L2L
sa(dp3185
g1
I01
sg7
g24
sg9
L5L
sa(dp3186
g1
I01
sg7
g26
sg9
L5L
sa(dp3187
g1
I01
sg7
g28
sg9
L5L
sa(dp3188
g1
I01
sg7
g30
sg9
L5L
sa(dp3189
g1
I01
sg7
g32
sg9
L5L
sa(dp3190
g1
I01
sg7
g34
sg9
L5L
sa(dp3191
g1
I01
sg7
g36
sg9
L5L
sa(dp3192
g1
I01
sg7
V__module__
p3193
sg9
L5L
sa(dp3194
g1
I01
sg7
g38
sg9
L5L
sa(dp3195
g1
I01
sg13
VCreate and return a new object.  See help(type) for accurate signature.
p3196
sg7
g41
sg9
L2L
sa(dp3197
g1
I01
sg13
Nsg7
g43
sg9
L2L
sa(dp3198
g1
I01
sg13
Vhelper for pickle
p3199
sg7
g46
sg9
L2L
sa(dp3200
g1
I01
sg7
g48
sg9
L5L
sa(dp3201
g1
I01
sg7
g50
sg9
L5L
sa(dp3202
g1
I01
sg13
V__sizeof__() -> int\u000asize of object in memory, in bytes
p3203
sg7
g53
sg9
L2L
sa(dp3204
g1
I01
sg7
g55
sg9
L5L
sa(dp3205
g1
I01
sg13
VAbstract classes can override this to customize issubclass().\u000a\u000aThis is invoked early on by abc.ABCMeta.__subclasscheck__().\u000aIt should return True, False or NotImplemented.  If it returns\u000aNotImplemented, the normal algorithm is used.  Otherwise, it\u000aoverrides the normal algorithm (and the outcome is cached).\u000a
p3206
sg7
g58
sg9
L2L
sa(dp3207
g1
I01
sg7
g97
sg9
L5L
sa(dp3208
g1
I01
sg7
g60
sg9
L5L
sa(dp3209
g1
I01
sg7
V_fields
p3210
sg9
L5L
sasg13
Nsg7
VSuite
p3211
sg9
L3L
sa(dp3212
g1
I01
sg2
(lp3213
(dp3214
g1
I01
sg7
g8
sg9
L5L
sa(dp3215
g1
I01
sg7
g11
sg9
L5L
sa(dp3216
g1
I01
sg13
V__dir__() -> list\u000adefault dir() implementation
p3217
sg7
g15
sg9
L2L
sa(dp3218
g1
I01
sg7
g17
sg9
L5L
sa(dp3219
g1
I01
sg7
g19
sg9
L5L
sa(dp3220
g1
I01
sg13
Vdefault object formatter
p3221
sg7
g22
sg9
L2L
sa(dp3222
g1
I01
sg7
g24
sg9
L5L
sa(dp3223
g1
I01
sg7
g26
sg9
L5L
sa(dp3224
g1
I01
sg7
g28
sg9
L5L
sa(dp3225
g1
I01
sg7
g30
sg9
L5L
sa(dp3226
g1
I01
sg7
g32
sg9
L5L
sa(dp3227
g1
I01
sg7
g34
sg9
L5L
sa(dp3228
g1
I01
sg7
g36
sg9
L5L
sa(dp3229
g1
I01
sg7
V__module__
p3230
sg9
L5L
sa(dp3231
g1
I01
sg7
g38
sg9
L5L
sa(dp3232
g1
I01
sg13
VCreate and return a new object.  See help(type) for accurate signature.
p3233
sg7
g41
sg9
L2L
sa(dp3234
g1
I01
sg13
Nsg7
g43
sg9
L2L
sa(dp3235
g1
I01
sg13
Vhelper for pickle
p3236
sg7
g46
sg9
L2L
sa(dp3237
g1
I01
sg7
g48
sg9
L5L
sa(dp3238
g1
I01
sg7
g50
sg9
L5L
sa(dp3239
g1
I01
sg13
V__sizeof__() -> int\u000asize of object in memory, in bytes
p3240
sg7
g53
sg9
L2L
sa(dp3241
g1
I01
sg7
g55
sg9
L5L
sa(dp3242
g1
I01
sg13
VAbstract classes can override this to customize issubclass().\u000a\u000aThis is invoked early on by abc.ABCMeta.__subclasscheck__().\u000aIt should return True, False or NotImplemented.  If it returns\u000aNotImplemented, the normal algorithm is used.  Otherwise, it\u000aoverrides the normal algorithm (and the outcome is cached).\u000a
p3243
sg7
g58
sg9
L2L
sa(dp3244
g1
I01
sg7
g97
sg9
L5L
sa(dp3245
g1
I01
sg7
g60
sg9
L5L
sa(dp3246
g1
I01
sg7
V_fields
p3247
sg9
L5L
sasg13
Nsg7
VTry
p3248
sg9
L3L
sa(dp3249
g1
I01
sg2
(lp3250
(dp3251
g1
I01
sg7
g8
sg9
L5L
sa(dp3252
g1
I01
sg7
g11
sg9
L5L
sa(dp3253
g1
I01
sg13
V__dir__() -> list\u000adefault dir() implementation
p3254
sg7
g15
sg9
L2L
sa(dp3255
g1
I01
sg7
g17
sg9
L5L
sa(dp3256
g1
I01
sg7
g19
sg9
L5L
sa(dp3257
g1
I01
sg13
Vdefault object formatter
p3258
sg7
g22
sg9
L2L
sa(dp3259
g1
I01
sg7
g24
sg9
L5L
sa(dp3260
g1
I01
sg7
g26
sg9
L5L
sa(dp3261
g1
I01
sg7
g28
sg9
L5L
sa(dp3262
g1
I01
sg7
g30
sg9
L5L
sa(dp3263
g1
I01
sg7
g32
sg9
L5L
sa(dp3264
g1
I01
sg7
g34
sg9
L5L
sa(dp3265
g1
I01
sg7
g36
sg9
L5L
sa(dp3266
g1
I01
sg7
V__module__
p3267
sg9
L5L
sa(dp3268
g1
I01
sg7
g38
sg9
L5L
sa(dp3269
g1
I01
sg13
VCreate and return a new object.  See help(type) for accurate signature.
p3270
sg7
g41
sg9
L2L
sa(dp3271
g1
I01
sg13
Nsg7
g43
sg9
L2L
sa(dp3272
g1
I01
sg13
Vhelper for pickle
p3273
sg7
g46
sg9
L2L
sa(dp3274
g1
I01
sg7
g48
sg9
L5L
sa(dp3275
g1
I01
sg7
g50
sg9
L5L
sa(dp3276
g1
I01
sg13
V__sizeof__() -> int\u000asize of object in memory, in bytes
p3277
sg7
g53
sg9
L2L
sa(dp3278
g1
I01
sg7
g55
sg9
L5L
sa(dp3279
g1
I01
sg13
VAbstract classes can override this to customize issubclass().\u000a\u000aThis is invoked early on by abc.ABCMeta.__subclasscheck__().\u000aIt should return True, False or NotImplemented.  If it returns\u000aNotImplemented, the normal algorithm is used.  Otherwise, it\u000aoverrides the normal algorithm (and the outcome is cached).\u000a
p3280
sg7
g58
sg9
L2L
sa(dp3281
g1
I01
sg7
g97
sg9
L5L
sa(dp3282
g1
I01
sg7
g60
sg9
L5L
sa(dp3283
g1
I01
sg7
V_fields
p3284
sg9
L5L
sasg13
Nsg7
VTuple
p3285
sg9
L3L
sa(dp3286
g1
I01
sg2
(lp3287
(dp3288
g1
I01
sg7
g8
sg9
L5L
sa(dp3289
g1
I01
sg7
g11
sg9
L5L
sa(dp3290
g1
I01
sg13
V__dir__() -> list\u000adefault dir() implementation
p3291
sg7
g15
sg9
L2L
sa(dp3292
g1
I01
sg7
g17
sg9
L5L
sa(dp3293
g1
I01
sg7
g19
sg9
L5L
sa(dp3294
g1
I01
sg13
Vdefault object formatter
p3295
sg7
g22
sg9
L2L
sa(dp3296
g1
I01
sg7
g24
sg9
L5L
sa(dp3297
g1
I01
sg7
g26
sg9
L5L
sa(dp3298
g1
I01
sg7
g28
sg9
L5L
sa(dp3299
g1
I01
sg7
g30
sg9
L5L
sa(dp3300
g1
I01
sg7
g32
sg9
L5L
sa(dp3301
g1
I01
sg7
g34
sg9
L5L
sa(dp3302
g1
I01
sg7
g36
sg9
L5L
sa(dp3303
g1
I01
sg7
V__module__
p3304
sg9
L5L
sa(dp3305
g1
I01
sg7
g38
sg9
L5L
sa(dp3306
g1
I01
sg13
VCreate and return a new object.  See help(type) for accurate signature.
p3307
sg7
g41
sg9
L2L
sa(dp3308
g1
I01
sg13
Nsg7
g43
sg9
L2L
sa(dp3309
g1
I01
sg13
Vhelper for pickle
p3310
sg7
g46
sg9
L2L
sa(dp3311
g1
I01
sg7
g48
sg9
L5L
sa(dp3312
g1
I01
sg7
g50
sg9
L5L
sa(dp3313
g1
I01
sg13
V__sizeof__() -> int\u000asize of object in memory, in bytes
p3314
sg7
g53
sg9
L2L
sa(dp3315
g1
I01
sg7
g55
sg9
L5L
sa(dp3316
g1
I01
sg13
VAbstract classes can override this to customize issubclass().\u000a\u000aThis is invoked early on by abc.ABCMeta.__subclasscheck__().\u000aIt should return True, False or NotImplemented.  If it returns\u000aNotImplemented, the normal algorithm is used.  Otherwise, it\u000aoverrides the normal algorithm (and the outcome is cached).\u000a
p3317
sg7
g58
sg9
L2L
sa(dp3318
g1
I01
sg7
g97
sg9
L5L
sa(dp3319
g1
I01
sg7
g60
sg9
L5L
sa(dp3320
g1
I01
sg7
V_fields
p3321
sg9
L5L
sasg13
Nsg7
VUAdd
p3322
sg9
L3L
sa(dp3323
g1
I01
sg2
(lp3324
(dp3325
g1
I01
sg7
g8
sg9
L5L
sa(dp3326
g1
I01
sg7
g11
sg9
L5L
sa(dp3327
g1
I01
sg13
V__dir__() -> list\u000adefault dir() implementation
p3328
sg7
g15
sg9
L2L
sa(dp3329
g1
I01
sg7
g17
sg9
L5L
sa(dp3330
g1
I01
sg7
g19
sg9
L5L
sa(dp3331
g1
I01
sg13
Vdefault object formatter
p3332
sg7
g22
sg9
L2L
sa(dp3333
g1
I01
sg7
g24
sg9
L5L
sa(dp3334
g1
I01
sg7
g26
sg9
L5L
sa(dp3335
g1
I01
sg7
g28
sg9
L5L
sa(dp3336
g1
I01
sg7
g30
sg9
L5L
sa(dp3337
g1
I01
sg7
g32
sg9
L5L
sa(dp3338
g1
I01
sg7
g34
sg9
L5L
sa(dp3339
g1
I01
sg7
g36
sg9
L5L
sa(dp3340
g1
I01
sg7
V__module__
p3341
sg9
L5L
sa(dp3342
g1
I01
sg7
g38
sg9
L5L
sa(dp3343
g1
I01
sg13
VCreate and return a new object.  See help(type) for accurate signature.
p3344
sg7
g41
sg9
L2L
sa(dp3345
g1
I01
sg13
Nsg7
g43
sg9
L2L
sa(dp3346
g1
I01
sg13
Vhelper for pickle
p3347
sg7
g46
sg9
L2L
sa(dp3348
g1
I01
sg7
g48
sg9
L5L
sa(dp3349
g1
I01
sg7
g50
sg9
L5L
sa(dp3350
g1
I01
sg13
V__sizeof__() -> int\u000asize of object in memory, in bytes
p3351
sg7
g53
sg9
L2L
sa(dp3352
g1
I01
sg7
g55
sg9
L5L
sa(dp3353
g1
I01
sg13
VAbstract classes can override this to customize issubclass().\u000a\u000aThis is invoked early on by abc.ABCMeta.__subclasscheck__().\u000aIt should return True, False or NotImplemented.  If it returns\u000aNotImplemented, the normal algorithm is used.  Otherwise, it\u000aoverrides the normal algorithm (and the outcome is cached).\u000a
p3354
sg7
g58
sg9
L2L
sa(dp3355
g1
I01
sg7
g97
sg9
L5L
sa(dp3356
g1
I01
sg7
g60
sg9
L5L
sa(dp3357
g1
I01
sg7
V_fields
p3358
sg9
L5L
sasg13
Nsg7
VUSub
p3359
sg9
L3L
sa(dp3360
g1
I01
sg2
(lp3361
(dp3362
g1
I01
sg7
g8
sg9
L5L
sa(dp3363
g1
I01
sg7
g11
sg9
L5L
sa(dp3364
g1
I01
sg13
V__dir__() -> list\u000adefault dir() implementation
p3365
sg7
g15
sg9
L2L
sa(dp3366
g1
I01
sg7
g17
sg9
L5L
sa(dp3367
g1
I01
sg7
g19
sg9
L5L
sa(dp3368
g1
I01
sg13
Vdefault object formatter
p3369
sg7
g22
sg9
L2L
sa(dp3370
g1
I01
sg7
g24
sg9
L5L
sa(dp3371
g1
I01
sg7
g26
sg9
L5L
sa(dp3372
g1
I01
sg7
g28
sg9
L5L
sa(dp3373
g1
I01
sg7
g30
sg9
L5L
sa(dp3374
g1
I01
sg7
g32
sg9
L5L
sa(dp3375
g1
I01
sg7
g34
sg9
L5L
sa(dp3376
g1
I01
sg7
g36
sg9
L5L
sa(dp3377
g1
I01
sg7
V__module__
p3378
sg9
L5L
sa(dp3379
g1
I01
sg7
g38
sg9
L5L
sa(dp3380
g1
I01
sg13
VCreate and return a new object.  See help(type) for accurate signature.
p3381
sg7
g41
sg9
L2L
sa(dp3382
g1
I01
sg13
Nsg7
g43
sg9
L2L
sa(dp3383
g1
I01
sg13
Vhelper for pickle
p3384
sg7
g46
sg9
L2L
sa(dp3385
g1
I01
sg7
g48
sg9
L5L
sa(dp3386
g1
I01
sg7
g50
sg9
L5L
sa(dp3387
g1
I01
sg13
V__sizeof__() -> int\u000asize of object in memory, in bytes
p3388
sg7
g53
sg9
L2L
sa(dp3389
g1
I01
sg7
g55
sg9
L5L
sa(dp3390
g1
I01
sg13
VAbstract classes can override this to customize issubclass().\u000a\u000aThis is invoked early on by abc.ABCMeta.__subclasscheck__().\u000aIt should return True, False or NotImplemented.  If it returns\u000aNotImplemented, the normal algorithm is used.  Otherwise, it\u000aoverrides the normal algorithm (and the outcome is cached).\u000a
p3391
sg7
g58
sg9
L2L
sa(dp3392
g1
I01
sg7
g97
sg9
L5L
sa(dp3393
g1
I01
sg7
g60
sg9
L5L
sa(dp3394
g1
I01
sg7
V_fields
p3395
sg9
L5L
sasg13
Nsg7
VUnaryOp
p3396
sg9
L3L
sa(dp3397
g1
I01
sg2
(lp3398
(dp3399
g1
I01
sg7
g8
sg9
L5L
sa(dp3400
g1
I01
sg7
g11
sg9
L5L
sa(dp3401
g1
I01
sg13
V__dir__() -> list\u000adefault dir() implementation
p3402
sg7
g15
sg9
L2L
sa(dp3403
g1
I01
sg7
g17
sg9
L5L
sa(dp3404
g1
I01
sg7
g19
sg9
L5L
sa(dp3405
g1
I01
sg13
Vdefault object formatter
p3406
sg7
g22
sg9
L2L
sa(dp3407
g1
I01
sg7
g24
sg9
L5L
sa(dp3408
g1
I01
sg7
g26
sg9
L5L
sa(dp3409
g1
I01
sg7
g28
sg9
L5L
sa(dp3410
g1
I01
sg7
g30
sg9
L5L
sa(dp3411
g1
I01
sg7
g32
sg9
L5L
sa(dp3412
g1
I01
sg7
g34
sg9
L5L
sa(dp3413
g1
I01
sg7
g36
sg9
L5L
sa(dp3414
g1
I01
sg7
V__module__
p3415
sg9
L5L
sa(dp3416
g1
I01
sg7
g38
sg9
L5L
sa(dp3417
g1
I01
sg13
VCreate and return a new object.  See help(type) for accurate signature.
p3418
sg7
g41
sg9
L2L
sa(dp3419
g1
I01
sg13
Nsg7
g43
sg9
L2L
sa(dp3420
g1
I01
sg13
Vhelper for pickle
p3421
sg7
g46
sg9
L2L
sa(dp3422
g1
I01
sg7
g48
sg9
L5L
sa(dp3423
g1
I01
sg7
g50
sg9
L5L
sa(dp3424
g1
I01
sg13
V__sizeof__() -> int\u000asize of object in memory, in bytes
p3425
sg7
g53
sg9
L2L
sa(dp3426
g1
I01
sg7
g55
sg9
L5L
sa(dp3427
g1
I01
sg13
VAbstract classes can override this to customize issubclass().\u000a\u000aThis is invoked early on by abc.ABCMeta.__subclasscheck__().\u000aIt should return True, False or NotImplemented.  If it returns\u000aNotImplemented, the normal algorithm is used.  Otherwise, it\u000aoverrides the normal algorithm (and the outcome is cached).\u000a
p3428
sg7
g58
sg9
L2L
sa(dp3429
g1
I01
sg7
g97
sg9
L5L
sa(dp3430
g1
I01
sg7
g60
sg9
L5L
sa(dp3431
g1
I01
sg7
V_fields
p3432
sg9
L5L
sasg13
Nsg7
VWhile
p3433
sg9
L3L
sa(dp3434
g1
I01
sg2
(lp3435
(dp3436
g1
I01
sg7
g8
sg9
L5L
sa(dp3437
g1
I01
sg7
g11
sg9
L5L
sa(dp3438
g1
I01
sg13
V__dir__() -> list\u000adefault dir() implementation
p3439
sg7
g15
sg9
L2L
sa(dp3440
g1
I01
sg7
g17
sg9
L5L
sa(dp3441
g1
I01
sg7
g19
sg9
L5L
sa(dp3442
g1
I01
sg13
Vdefault object formatter
p3443
sg7
g22
sg9
L2L
sa(dp3444
g1
I01
sg7
g24
sg9
L5L
sa(dp3445
g1
I01
sg7
g26
sg9
L5L
sa(dp3446
g1
I01
sg7
g28
sg9
L5L
sa(dp3447
g1
I01
sg7
g30
sg9
L5L
sa(dp3448
g1
I01
sg7
g32
sg9
L5L
sa(dp3449
g1
I01
sg7
g34
sg9
L5L
sa(dp3450
g1
I01
sg7
g36
sg9
L5L
sa(dp3451
g1
I01
sg7
V__module__
p3452
sg9
L5L
sa(dp3453
g1
I01
sg7
g38
sg9
L5L
sa(dp3454
g1
I01
sg13
VCreate and return a new object.  See help(type) for accurate signature.
p3455
sg7
g41
sg9
L2L
sa(dp3456
g1
I01
sg13
Nsg7
g43
sg9
L2L
sa(dp3457
g1
I01
sg13
Vhelper for pickle
p3458
sg7
g46
sg9
L2L
sa(dp3459
g1
I01
sg7
g48
sg9
L5L
sa(dp3460
g1
I01
sg7
g50
sg9
L5L
sa(dp3461
g1
I01
sg13
V__sizeof__() -> int\u000asize of object in memory, in bytes
p3462
sg7
g53
sg9
L2L
sa(dp3463
g1
I01
sg7
g55
sg9
L5L
sa(dp3464
g1
I01
sg13
VAbstract classes can override this to customize issubclass().\u000a\u000aThis is invoked early on by abc.ABCMeta.__subclasscheck__().\u000aIt should return True, False or NotImplemented.  If it returns\u000aNotImplemented, the normal algorithm is used.  Otherwise, it\u000aoverrides the normal algorithm (and the outcome is cached).\u000a
p3465
sg7
g58
sg9
L2L
sa(dp3466
g1
I01
sg7
g97
sg9
L5L
sa(dp3467
g1
I01
sg7
g60
sg9
L5L
sa(dp3468
g1
I01
sg7
V_fields
p3469
sg9
L5L
sasg13
Nsg7
VWith
p3470
sg9
L3L
sa(dp3471
g1
I01
sg2
(lp3472
(dp3473
g1
I01
sg7
g8
sg9
L5L
sa(dp3474
g1
I01
sg7
g11
sg9
L5L
sa(dp3475
g1
I01
sg13
V__dir__() -> list\u000adefault dir() implementation
p3476
sg7
g15
sg9
L2L
sa(dp3477
g1
I01
sg7
g17
sg9
L5L
sa(dp3478
g1
I01
sg7
g19
sg9
L5L
sa(dp3479
g1
I01
sg13
Vdefault object formatter
p3480
sg7
g22
sg9
L2L
sa(dp3481
g1
I01
sg7
g24
sg9
L5L
sa(dp3482
g1
I01
sg7
g26
sg9
L5L
sa(dp3483
g1
I01
sg7
g28
sg9
L5L
sa(dp3484
g1
I01
sg7
g30
sg9
L5L
sa(dp3485
g1
I01
sg7
g32
sg9
L5L
sa(dp3486
g1
I01
sg7
g34
sg9
L5L
sa(dp3487
g1
I01
sg7
g36
sg9
L5L
sa(dp3488
g1
I01
sg7
V__module__
p3489
sg9
L5L
sa(dp3490
g1
I01
sg7
g38
sg9
L5L
sa(dp3491
g1
I01
sg13
VCreate and return a new object.  See help(type) for accurate signature.
p3492
sg7
g41
sg9
L2L
sa(dp3493
g1
I01
sg13
Nsg7
g43
sg9
L2L
sa(dp3494
g1
I01
sg13
Vhelper for pickle
p3495
sg7
g46
sg9
L2L
sa(dp3496
g1
I01
sg7
g48
sg9
L5L
sa(dp3497
g1
I01
sg7
g50
sg9
L5L
sa(dp3498
g1
I01
sg13
V__sizeof__() -> int\u000asize of object in memory, in bytes
p3499
sg7
g53
sg9
L2L
sa(dp3500
g1
I01
sg7
g55
sg9
L5L
sa(dp3501
g1
I01
sg13
VAbstract classes can override this to customize issubclass().\u000a\u000aThis is invoked early on by abc.ABCMeta.__subclasscheck__().\u000aIt should return True, False or NotImplemented.  If it returns\u000aNotImplemented, the normal algorithm is used.  Otherwise, it\u000aoverrides the normal algorithm (and the outcome is cached).\u000a
p3502
sg7
g58
sg9
L2L
sa(dp3503
g1
I01
sg7
g97
sg9
L5L
sa(dp3504
g1
I01
sg7
g60
sg9
L5L
sa(dp3505
g1
I01
sg7
V_fields
p3506
sg9
L5L
sasg13
Nsg7
VYield
p3507
sg9
L3L
sa(dp3508
g1
I01
sg2
(lp3509
(dp3510
g1
I01
sg7
g8
sg9
L5L
sa(dp3511
g1
I01
sg7
g11
sg9
L5L
sa(dp3512
g1
I01
sg13
V__dir__() -> list\u000adefault dir() implementation
p3513
sg7
g15
sg9
L2L
sa(dp3514
g1
I01
sg7
g17
sg9
L5L
sa(dp3515
g1
I01
sg7
g19
sg9
L5L
sa(dp3516
g1
I01
sg13
Vdefault object formatter
p3517
sg7
g22
sg9
L2L
sa(dp3518
g1
I01
sg7
g24
sg9
L5L
sa(dp3519
g1
I01
sg7
g26
sg9
L5L
sa(dp3520
g1
I01
sg7
g28
sg9
L5L
sa(dp3521
g1
I01
sg7
g30
sg9
L5L
sa(dp3522
g1
I01
sg7
g32
sg9
L5L
sa(dp3523
g1
I01
sg7
g34
sg9
L5L
sa(dp3524
g1
I01
sg7
g36
sg9
L5L
sa(dp3525
g1
I01
sg7
V__module__
p3526
sg9
L5L
sa(dp3527
g1
I01
sg7
g38
sg9
L5L
sa(dp3528
g1
I01
sg13
VCreate and return a new object.  See help(type) for accurate signature.
p3529
sg7
g41
sg9
L2L
sa(dp3530
g1
I01
sg13
Nsg7
g43
sg9
L2L
sa(dp3531
g1
I01
sg13
Vhelper for pickle
p3532
sg7
g46
sg9
L2L
sa(dp3533
g1
I01
sg7
g48
sg9
L5L
sa(dp3534
g1
I01
sg7
g50
sg9
L5L
sa(dp3535
g1
I01
sg13
V__sizeof__() -> int\u000asize of object in memory, in bytes
p3536
sg7
g53
sg9
L2L
sa(dp3537
g1
I01
sg7
g55
sg9
L5L
sa(dp3538
g1
I01
sg13
VAbstract classes can override this to customize issubclass().\u000a\u000aThis is invoked early on by abc.ABCMeta.__subclasscheck__().\u000aIt should return True, False or NotImplemented.  If it returns\u000aNotImplemented, the normal algorithm is used.  Otherwise, it\u000aoverrides the normal algorithm (and the outcome is cached).\u000a
p3539
sg7
g58
sg9
L2L
sa(dp3540
g1
I01
sg7
g97
sg9
L5L
sa(dp3541
g1
I01
sg7
g60
sg9
L5L
sa(dp3542
g1
I01
sg7
V_fields
p3543
sg9
L5L
sasg13
Nsg7
VYieldFrom
p3544
sg9
L3L
sa(dp3545
g1
I01
sg7
g17
sg9
L5L
sa(dp3546
g1
I01
sg2
(lp3547
(dp3548
g1
I01
sg7
g8
sg9
L5L
sa(dp3549
g1
I01
sg7
g11
sg9
L5L
sa(dp3550
g1
I01
sg13
V__dir__() -> list\u000adefault dir() implementation
p3551
sg7
g15
sg9
L2L
sa(dp3552
g1
I01
sg7
g17
sg9
L5L
sa(dp3553
g1
I01
sg7
g19
sg9
L5L
sa(dp3554
g1
I01
sg13
Vdefault object formatter
p3555
sg7
g22
sg9
L2L
sa(dp3556
g1
I01
sg7
g24
sg9
L5L
sa(dp3557
g1
I01
sg7
g26
sg9
L5L
sa(dp3558
g1
I01
sg7
g28
sg9
L5L
sa(dp3559
g1
I01
sg7
g30
sg9
L5L
sa(dp3560
g1
I01
sg7
g32
sg9
L5L
sa(dp3561
g1
I01
sg7
g34
sg9
L5L
sa(dp3562
g1
I01
sg7
g36
sg9
L5L
sa(dp3563
g1
I01
sg7
V__module__
p3564
sg9
L5L
sa(dp3565
g1
I01
sg7
g38
sg9
L5L
sa(dp3566
g1
I01
sg13
VCreate and return a new object.  See help(type) for accurate signature.
p3567
sg7
g41
sg9
L2L
sa(dp3568
g1
I01
sg13
Vhelper for pickle
p3569
sg7
g43
sg9
L2L
sa(dp3570
g1
I01
sg13
Vhelper for pickle
p3571
sg7
g46
sg9
L2L
sa(dp3572
g1
I01
sg7
g48
sg9
L5L
sa(dp3573
g1
I01
sg7
g50
sg9
L5L
sa(dp3574
g1
I01
sg13
V__sizeof__() -> int\u000asize of object in memory, in bytes
p3575
sg7
g53
sg9
L2L
sa(dp3576
g1
I01
sg7
g55
sg9
L5L
sa(dp3577
g1
I01
sg13
VAbstract classes can override this to customize issubclass().\u000a\u000aThis is invoked early on by abc.ABCMeta.__subclasscheck__().\u000aIt should return True, False or NotImplemented.  If it returns\u000aNotImplemented, the normal algorithm is used.  Otherwise, it\u000aoverrides the normal algorithm (and the outcome is cached).\u000a
p3578
sg7
g58
sg9
L2L
sa(dp3579
g1
I01
sg7
g97
sg9
L5L
sa(dp3580
g1
I01
sg7
Vcreate_module
p3581
sg9
L5L
sa(dp3582
g1
I01
sg7
Vexec_module
p3583
sg9
L5L
sa(dp3584
g1
I01
sg7
Vfind_module
p3585
sg9
L5L
sa(dp3586
g1
I01
sg7
Vfind_spec
p3587
sg9
L5L
sa(dp3588
g1
I01
sg7
Vget_code
p3589
sg9
L5L
sa(dp3590
g1
I01
sg7
Vget_source
p3591
sg9
L5L
sa(dp3592
g1
I01
sg7
Vis_package
p3593
sg9
L5L
sa(dp3594
g1
I01
sg7
Vload_module
p3595
sg9
L5L
sa(dp3596
g1
I01
sg7
Vmodule_repr
p3597
sg9
L5L
sasg13
VMeta path import for built-in modules.\u000a\u000a    All methods are either class or static methods to avoid the need to\u000a    instantiate the class.\u000a\u000a    
p3598
sg7
V__loader__
p3599
sg9
L3L
sa(dp3600
g1
I01
sg7
V__name__
p3601
sg9
L5L
sa(dp3602
g1
I01
sg7
V__package__
p3603
sg9
L5L
sa(dp3604
g1
I01
sg7
V__spec__
p3605
sg9
L5L
sa(dp3606
g1
I01
sg2
(lp3607
(dp3608
g1
I01
sg7
g8
sg9
L5L
sa(dp3609
g1
I01
sg7
g11
sg9
L5L
sa(dp3610
g1
I01
sg13
V__dir__() -> list\u000adefault dir() implementation
p3611
sg7
g15
sg9
L2L
sa(dp3612
g1
I01
sg7
g17
sg9
L5L
sa(dp3613
g1
I01
sg7
g19
sg9
L5L
sa(dp3614
g1
I01
sg13
Vdefault object formatter
p3615
sg7
g22
sg9
L2L
sa(dp3616
g1
I01
sg7
g24
sg9
L5L
sa(dp3617
g1
I01
sg7
g26
sg9
L5L
sa(dp3618
g1
I01
sg7
g28
sg9
L5L
sa(dp3619
g1
I01
sg7
g30
sg9
L5L
sa(dp3620
g1
I01
sg7
g32
sg9
L5L
sa(dp3621
g1
I01
sg7
g34
sg9
L5L
sa(dp3622
g1
I01
sg7
g36
sg9
L5L
sa(dp3623
g1
I01
sg7
V__module__
p3624
sg9
L5L
sa(dp3625
g1
I01
sg7
g38
sg9
L5L
sa(dp3626
g1
I01
sg13
VCreate and return a new object.  See help(type) for accurate signature.
p3627
sg7
g41
sg9
L2L
sa(dp3628
g1
I01
sg13
Nsg7
g43
sg9
L2L
sa(dp3629
g1
I01
sg13
Vhelper for pickle
p3630
sg7
g46
sg9
L2L
sa(dp3631
g1
I01
sg7
g48
sg9
L5L
sa(dp3632
g1
I01
sg7
g50
sg9
L5L
sa(dp3633
g1
I01
sg13
V__sizeof__() -> int\u000asize of object in memory, in bytes
p3634
sg7
g53
sg9
L2L
sa(dp3635
g1
I01
sg7
g55
sg9
L5L
sa(dp3636
g1
I01
sg13
VAbstract classes can override this to customize issubclass().\u000a\u000aThis is invoked early on by abc.ABCMeta.__subclasscheck__().\u000aIt should return True, False or NotImplemented.  If it returns\u000aNotImplemented, the normal algorithm is used.  Otherwise, it\u000aoverrides the normal algorithm (and the outcome is cached).\u000a
p3637
sg7
g58
sg9
L2L
sa(dp3638
g1
I01
sg7
g97
sg9
L5L
sa(dp3639
g1
I01
sg7
g60
sg9
L5L
sa(dp3640
g1
I01
sg7
V_fields
p3641
sg9
L5L
sasg13
Nsg7
Valias
p3642
sg9
L3L
sa(dp3643
g1
I01
sg2
(lp3644
(dp3645
g1
I01
sg7
g8
sg9
L5L
sa(dp3646
g1
I01
sg7
g11
sg9
L5L
sa(dp3647
g1
I01
sg13
V__dir__() -> list\u000adefault dir() implementation
p3648
sg7
g15
sg9
L2L
sa(dp3649
g1
I01
sg7
g17
sg9
L5L
sa(dp3650
g1
I01
sg7
g19
sg9
L5L
sa(dp3651
g1
I01
sg13
Vdefault object formatter
p3652
sg7
g22
sg9
L2L
sa(dp3653
g1
I01
sg7
g24
sg9
L5L
sa(dp3654
g1
I01
sg7
g26
sg9
L5L
sa(dp3655
g1
I01
sg7
g28
sg9
L5L
sa(dp3656
g1
I01
sg7
g30
sg9
L5L
sa(dp3657
g1
I01
sg7
g32
sg9
L5L
sa(dp3658
g1
I01
sg7
g34
sg9
L5L
sa(dp3659
g1
I01
sg7
g36
sg9
L5L
sa(dp3660
g1
I01
sg7
V__module__
p3661
sg9
L5L
sa(dp3662
g1
I01
sg7
g38
sg9
L5L
sa(dp3663
g1
I01
sg13
VCreate and return a new object.  See help(type) for accurate signature.
p3664
sg7
g41
sg9
L2L
sa(dp3665
g1
I01
sg13
Nsg7
g43
sg9
L2L
sa(dp3666
g1
I01
sg13
Vhelper for pickle
p3667
sg7
g46
sg9
L2L
sa(dp3668
g1
I01
sg7
g48
sg9
L5L
sa(dp3669
g1
I01
sg7
g50
sg9
L5L
sa(dp3670
g1
I01
sg13
V__sizeof__() -> int\u000asize of object in memory, in bytes
p3671
sg7
g53
sg9
L2L
sa(dp3672
g1
I01
sg7
g55
sg9
L5L
sa(dp3673
g1
I01
sg13
VAbstract classes can override this to customize issubclass().\u000a\u000aThis is invoked early on by abc.ABCMeta.__subclasscheck__().\u000aIt should return True, False or NotImplemented.  If it returns\u000aNotImplemented, the normal algorithm is used.  Otherwise, it\u000aoverrides the normal algorithm (and the outcome is cached).\u000a
p3674
sg7
g58
sg9
L2L
sa(dp3675
g1
I01
sg7
g97
sg9
L5L
sa(dp3676
g1
I01
sg7
g60
sg9
L5L
sa(dp3677
g1
I01
sg7
V_fields
p3678
sg9
L5L
sasg13
Nsg7
Varg
p3679
sg9
L3L
sa(dp3680
g1
I01
sg2
(lp3681
(dp3682
g1
I01
sg7
g8
sg9
L5L
sa(dp3683
g1
I01
sg7
g11
sg9
L5L
sa(dp3684
g1
I01
sg13
V__dir__() -> list\u000adefault dir() implementation
p3685
sg7
g15
sg9
L2L
sa(dp3686
g1
I01
sg7
g17
sg9
L5L
sa(dp3687
g1
I01
sg7
g19
sg9
L5L
sa(dp3688
g1
I01
sg13
Vdefault object formatter
p3689
sg7
g22
sg9
L2L
sa(dp3690
g1
I01
sg7
g24
sg9
L5L
sa(dp3691
g1
I01
sg7
g26
sg9
L5L
sa(dp3692
g1
I01
sg7
g28
sg9
L5L
sa(dp3693
g1
I01
sg7
g30
sg9
L5L
sa(dp3694
g1
I01
sg7
g32
sg9
L5L
sa(dp3695
g1
I01
sg7
g34
sg9
L5L
sa(dp3696
g1
I01
sg7
g36
sg9
L5L
sa(dp3697
g1
I01
sg7
V__module__
p3698
sg9
L5L
sa(dp3699
g1
I01
sg7
g38
sg9
L5L
sa(dp3700
g1
I01
sg13
VCreate and return a new object.  See help(type) for accurate signature.
p3701
sg7
g41
sg9
L2L
sa(dp3702
g1
I01
sg13
Nsg7
g43
sg9
L2L
sa(dp3703
g1
I01
sg13
Vhelper for pickle
p3704
sg7
g46
sg9
L2L
sa(dp3705
g1
I01
sg7
g48
sg9
L5L
sa(dp3706
g1
I01
sg7
g50
sg9
L5L
sa(dp3707
g1
I01
sg13
V__sizeof__() -> int\u000asize of object in memory, in bytes
p3708
sg7
g53
sg9
L2L
sa(dp3709
g1
I01
sg7
g55
sg9
L5L
sa(dp3710
g1
I01
sg13
VAbstract classes can override this to customize issubclass().\u000a\u000aThis is invoked early on by abc.ABCMeta.__subclasscheck__().\u000aIt should return True, False or NotImplemented.  If it returns\u000aNotImplemented, the normal algorithm is used.  Otherwise, it\u000aoverrides the normal algorithm (and the outcome is cached).\u000a
p3711
sg7
g58
sg9
L2L
sa(dp3712
g1
I01
sg7
g97
sg9
L5L
sa(dp3713
g1
I01
sg7
g60
sg9
L5L
sa(dp3714
g1
I01
sg7
V_fields
p3715
sg9
L5L
sasg13
Nsg7
Varguments
p3716
sg9
L3L
sa(dp3717
g1
I01
sg2
(lp3718
(dp3719
g1
I01
sg7
g8
sg9
L5L
sa(dp3720
g1
I01
sg7
g11
sg9
L5L
sa(dp3721
g1
I01
sg13
V__dir__() -> list\u000adefault dir() implementation
p3722
sg7
g15
sg9
L2L
sa(dp3723
g1
I01
sg7
g17
sg9
L5L
sa(dp3724
g1
I01
sg7
g19
sg9
L5L
sa(dp3725
g1
I01
sg13
Vdefault object formatter
p3726
sg7
g22
sg9
L2L
sa(dp3727
g1
I01
sg7
g24
sg9
L5L
sa(dp3728
g1
I01
sg7
g26
sg9
L5L
sa(dp3729
g1
I01
sg7
g28
sg9
L5L
sa(dp3730
g1
I01
sg7
g30
sg9
L5L
sa(dp3731
g1
I01
sg7
g32
sg9
L5L
sa(dp3732
g1
I01
sg7
g34
sg9
L5L
sa(dp3733
g1
I01
sg7
g36
sg9
L5L
sa(dp3734
g1
I01
sg7
V__module__
p3735
sg9
L5L
sa(dp3736
g1
I01
sg7
g38
sg9
L5L
sa(dp3737
g1
I01
sg13
VCreate and return a new object.  See help(type) for accurate signature.
p3738
sg7
g41
sg9
L2L
sa(dp3739
g1
I01
sg13
Nsg7
g43
sg9
L2L
sa(dp3740
g1
I01
sg13
Vhelper for pickle
p3741
sg7
g46
sg9
L2L
sa(dp3742
g1
I01
sg7
g48
sg9
L5L
sa(dp3743
g1
I01
sg7
g50
sg9
L5L
sa(dp3744
g1
I01
sg13
V__sizeof__() -> int\u000asize of object in memory, in bytes
p3745
sg7
g53
sg9
L2L
sa(dp3746
g1
I01
sg7
g55
sg9
L5L
sa(dp3747
g1
I01
sg13
VAbstract classes can override this to customize issubclass().\u000a\u000aThis is invoked early on by abc.ABCMeta.__subclasscheck__().\u000aIt should return True, False or NotImplemented.  If it returns\u000aNotImplemented, the normal algorithm is used.  Otherwise, it\u000aoverrides the normal algorithm (and the outcome is cached).\u000a
p3748
sg7
g58
sg9
L2L
sa(dp3749
g1
I01
sg7
g97
sg9
L5L
sa(dp3750
g1
I01
sg7
g60
sg9
L5L
sa(dp3751
g1
I01
sg7
V_fields
p3752
sg9
L5L
sasg13
Nsg7
Vboolop
p3753
sg9
L3L
sa(dp3754
g1
I01
sg2
(lp3755
(dp3756
g1
I01
sg7
g8
sg9
L5L
sa(dp3757
g1
I01
sg7
g11
sg9
L5L
sa(dp3758
g1
I01
sg13
V__dir__() -> list\u000adefault dir() implementation
p3759
sg7
g15
sg9
L2L
sa(dp3760
g1
I01
sg7
g17
sg9
L5L
sa(dp3761
g1
I01
sg7
g19
sg9
L5L
sa(dp3762
g1
I01
sg13
Vdefault object formatter
p3763
sg7
g22
sg9
L2L
sa(dp3764
g1
I01
sg7
g24
sg9
L5L
sa(dp3765
g1
I01
sg7
g26
sg9
L5L
sa(dp3766
g1
I01
sg7
g28
sg9
L5L
sa(dp3767
g1
I01
sg7
g30
sg9
L5L
sa(dp3768
g1
I01
sg7
g32
sg9
L5L
sa(dp3769
g1
I01
sg7
g34
sg9
L5L
sa(dp3770
g1
I01
sg7
g36
sg9
L5L
sa(dp3771
g1
I01
sg7
V__module__
p3772
sg9
L5L
sa(dp3773
g1
I01
sg7
g38
sg9
L5L
sa(dp3774
g1
I01
sg13
VCreate and return a new object.  See help(type) for accurate signature.
p3775
sg7
g41
sg9
L2L
sa(dp3776
g1
I01
sg13
Nsg7
g43
sg9
L2L
sa(dp3777
g1
I01
sg13
Vhelper for pickle
p3778
sg7
g46
sg9
L2L
sa(dp3779
g1
I01
sg7
g48
sg9
L5L
sa(dp3780
g1
I01
sg7
g50
sg9
L5L
sa(dp3781
g1
I01
sg13
V__sizeof__() -> int\u000asize of object in memory, in bytes
p3782
sg7
g53
sg9
L2L
sa(dp3783
g1
I01
sg7
g55
sg9
L5L
sa(dp3784
g1
I01
sg13
VAbstract classes can override this to customize issubclass().\u000a\u000aThis is invoked early on by abc.ABCMeta.__subclasscheck__().\u000aIt should return True, False or NotImplemented.  If it returns\u000aNotImplemented, the normal algorithm is used.  Otherwise, it\u000aoverrides the normal algorithm (and the outcome is cached).\u000a
p3785
sg7
g58
sg9
L2L
sa(dp3786
g1
I01
sg7
g97
sg9
L5L
sa(dp3787
g1
I01
sg7
g60
sg9
L5L
sa(dp3788
g1
I01
sg7
V_fields
p3789
sg9
L5L
sasg13
Nsg7
Vcmpop
p3790
sg9
L3L
sa(dp3791
g1
I01
sg2
(lp3792
(dp3793
g1
I01
sg7
g8
sg9
L5L
sa(dp3794
g1
I01
sg7
g11
sg9
L5L
sa(dp3795
g1
I01
sg13
V__dir__() -> list\u000adefault dir() implementation
p3796
sg7
g15
sg9
L2L
sa(dp3797
g1
I01
sg7
g17
sg9
L5L
sa(dp3798
g1
I01
sg7
g19
sg9
L5L
sa(dp3799
g1
I01
sg13
Vdefault object formatter
p3800
sg7
g22
sg9
L2L
sa(dp3801
g1
I01
sg7
g24
sg9
L5L
sa(dp3802
g1
I01
sg7
g26
sg9
L5L
sa(dp3803
g1
I01
sg7
g28
sg9
L5L
sa(dp3804
g1
I01
sg7
g30
sg9
L5L
sa(dp3805
g1
I01
sg7
g32
sg9
L5L
sa(dp3806
g1
I01
sg7
g34
sg9
L5L
sa(dp3807
g1
I01
sg7
g36
sg9
L5L
sa(dp3808
g1
I01
sg7
V__module__
p3809
sg9
L5L
sa(dp3810
g1
I01
sg7
g38
sg9
L5L
sa(dp3811
g1
I01
sg13
VCreate and return a new object.  See help(type) for accurate signature.
p3812
sg7
g41
sg9
L2L
sa(dp3813
g1
I01
sg13
Nsg7
g43
sg9
L2L
sa(dp3814
g1
I01
sg13
Vhelper for pickle
p3815
sg7
g46
sg9
L2L
sa(dp3816
g1
I01
sg7
g48
sg9
L5L
sa(dp3817
g1
I01
sg7
g50
sg9
L5L
sa(dp3818
g1
I01
sg13
V__sizeof__() -> int\u000asize of object in memory, in bytes
p3819
sg7
g53
sg9
L2L
sa(dp3820
g1
I01
sg7
g55
sg9
L5L
sa(dp3821
g1
I01
sg13
VAbstract classes can override this to customize issubclass().\u000a\u000aThis is invoked early on by abc.ABCMeta.__subclasscheck__().\u000aIt should return True, False or NotImplemented.  If it returns\u000aNotImplemented, the normal algorithm is used.  Otherwise, it\u000aoverrides the normal algorithm (and the outcome is cached).\u000a
p3822
sg7
g58
sg9
L2L
sa(dp3823
g1
I01
sg7
g97
sg9
L5L
sa(dp3824
g1
I01
sg7
g60
sg9
L5L
sa(dp3825
g1
I01
sg7
V_fields
p3826
sg9
L5L
sasg13
Nsg7
Vcomprehension
p3827
sg9
L3L
sa(dp3828
g1
I01
sg2
(lp3829
(dp3830
g1
I01
sg7
g8
sg9
L5L
sa(dp3831
g1
I01
sg7
g11
sg9
L5L
sa(dp3832
g1
I01
sg13
V__dir__() -> list\u000adefault dir() implementation
p3833
sg7
g15
sg9
L2L
sa(dp3834
g1
I01
sg7
g17
sg9
L5L
sa(dp3835
g1
I01
sg7
g19
sg9
L5L
sa(dp3836
g1
I01
sg13
Vdefault object formatter
p3837
sg7
g22
sg9
L2L
sa(dp3838
g1
I01
sg7
g24
sg9
L5L
sa(dp3839
g1
I01
sg7
g26
sg9
L5L
sa(dp3840
g1
I01
sg7
g28
sg9
L5L
sa(dp3841
g1
I01
sg7
g30
sg9
L5L
sa(dp3842
g1
I01
sg7
g32
sg9
L5L
sa(dp3843
g1
I01
sg7
g34
sg9
L5L
sa(dp3844
g1
I01
sg7
g36
sg9
L5L
sa(dp3845
g1
I01
sg7
V__module__
p3846
sg9
L5L
sa(dp3847
g1
I01
sg7
g38
sg9
L5L
sa(dp3848
g1
I01
sg13
VCreate and return a new object.  See help(type) for accurate signature.
p3849
sg7
g41
sg9
L2L
sa(dp3850
g1
I01
sg13
Nsg7
g43
sg9
L2L
sa(dp3851
g1
I01
sg13
Vhelper for pickle
p3852
sg7
g46
sg9
L2L
sa(dp3853
g1
I01
sg7
g48
sg9
L5L
sa(dp3854
g1
I01
sg7
g50
sg9
L5L
sa(dp3855
g1
I01
sg13
V__sizeof__() -> int\u000asize of object in memory, in bytes
p3856
sg7
g53
sg9
L2L
sa(dp3857
g1
I01
sg7
g55
sg9
L5L
sa(dp3858
g1
I01
sg13
VAbstract classes can override this to customize issubclass().\u000a\u000aThis is invoked early on by abc.ABCMeta.__subclasscheck__().\u000aIt should return True, False or NotImplemented.  If it returns\u000aNotImplemented, the normal algorithm is used.  Otherwise, it\u000aoverrides the normal algorithm (and the outcome is cached).\u000a
p3859
sg7
g58
sg9
L2L
sa(dp3860
g1
I01
sg7
g97
sg9
L5L
sa(dp3861
g1
I01
sg7
g60
sg9
L5L
sa(dp3862
g1
I01
sg7
V_fields
p3863
sg9
L5L
sasg13
Nsg7
Vexcepthandler
p3864
sg9
L3L
sa(dp3865
g1
I01
sg2
(lp3866
(dp3867
g1
I01
sg7
g8
sg9
L5L
sa(dp3868
g1
I01
sg7
g11
sg9
L5L
sa(dp3869
g1
I01
sg13
V__dir__() -> list\u000adefault dir() implementation
p3870
sg7
g15
sg9
L2L
sa(dp3871
g1
I01
sg7
g17
sg9
L5L
sa(dp3872
g1
I01
sg7
g19
sg9
L5L
sa(dp3873
g1
I01
sg13
Vdefault object formatter
p3874
sg7
g22
sg9
L2L
sa(dp3875
g1
I01
sg7
g24
sg9
L5L
sa(dp3876
g1
I01
sg7
g26
sg9
L5L
sa(dp3877
g1
I01
sg7
g28
sg9
L5L
sa(dp3878
g1
I01
sg7
g30
sg9
L5L
sa(dp3879
g1
I01
sg7
g32
sg9
L5L
sa(dp3880
g1
I01
sg7
g34
sg9
L5L
sa(dp3881
g1
I01
sg7
g36
sg9
L5L
sa(dp3882
g1
I01
sg7
V__module__
p3883
sg9
L5L
sa(dp3884
g1
I01
sg7
g38
sg9
L5L
sa(dp3885
g1
I01
sg13
VCreate and return a new object.  See help(type) for accurate signature.
p3886
sg7
g41
sg9
L2L
sa(dp3887
g1
I01
sg13
Nsg7
g43
sg9
L2L
sa(dp3888
g1
I01
sg13
Vhelper for pickle
p3889
sg7
g46
sg9
L2L
sa(dp3890
g1
I01
sg7
g48
sg9
L5L
sa(dp3891
g1
I01
sg7
g50
sg9
L5L
sa(dp3892
g1
I01
sg13
V__sizeof__() -> int\u000asize of object in memory, in bytes
p3893
sg7
g53
sg9
L2L
sa(dp3894
g1
I01
sg7
g55
sg9
L5L
sa(dp3895
g1
I01
sg13
VAbstract classes can override this to customize issubclass().\u000a\u000aThis is invoked early on by abc.ABCMeta.__subclasscheck__().\u000aIt should return True, False or NotImplemented.  If it returns\u000aNotImplemented, the normal algorithm is used.  Otherwise, it\u000aoverrides the normal algorithm (and the outcome is cached).\u000a
p3896
sg7
g58
sg9
L2L
sa(dp3897
g1
I01
sg7
g97
sg9
L5L
sa(dp3898
g1
I01
sg7
g60
sg9
L5L
sa(dp3899
g1
I01
sg7
V_fields
p3900
sg9
L5L
sasg13
Nsg7
Vexpr
p3901
sg9
L3L
sa(dp3902
g1
I01
sg2
(lp3903
(dp3904
g1
I01
sg7
g8
sg9
L5L
sa(dp3905
g1
I01
sg7
g11
sg9
L5L
sa(dp3906
g1
I01
sg13
V__dir__() -> list\u000adefault dir() implementation
p3907
sg7
g15
sg9
L2L
sa(dp3908
g1
I01
sg7
g17
sg9
L5L
sa(dp3909
g1
I01
sg7
g19
sg9
L5L
sa(dp3910
g1
I01
sg13
Vdefault object formatter
p3911
sg7
g22
sg9
L2L
sa(dp3912
g1
I01
sg7
g24
sg9
L5L
sa(dp3913
g1
I01
sg7
g26
sg9
L5L
sa(dp3914
g1
I01
sg7
g28
sg9
L5L
sa(dp3915
g1
I01
sg7
g30
sg9
L5L
sa(dp3916
g1
I01
sg7
g32
sg9
L5L
sa(dp3917
g1
I01
sg7
g34
sg9
L5L
sa(dp3918
g1
I01
sg7
g36
sg9
L5L
sa(dp3919
g1
I01
sg7
V__module__
p3920
sg9
L5L
sa(dp3921
g1
I01
sg7
g38
sg9
L5L
sa(dp3922
g1
I01
sg13
VCreate and return a new object.  See help(type) for accurate signature.
p3923
sg7
g41
sg9
L2L
sa(dp3924
g1
I01
sg13
Nsg7
g43
sg9
L2L
sa(dp3925
g1
I01
sg13
Vhelper for pickle
p3926
sg7
g46
sg9
L2L
sa(dp3927
g1
I01
sg7
g48
sg9
L5L
sa(dp3928
g1
I01
sg7
g50
sg9
L5L
sa(dp3929
g1
I01
sg13
V__sizeof__() -> int\u000asize of object in memory, in bytes
p3930
sg7
g53
sg9
L2L
sa(dp3931
g1
I01
sg7
g55
sg9
L5L
sa(dp3932
g1
I01
sg13
VAbstract classes can override this to customize issubclass().\u000a\u000aThis is invoked early on by abc.ABCMeta.__subclasscheck__().\u000aIt should return True, False or NotImplemented.  If it returns\u000aNotImplemented, the normal algorithm is used.  Otherwise, it\u000aoverrides the normal algorithm (and the outcome is cached).\u000a
p3933
sg7
g58
sg9
L2L
sa(dp3934
g1
I01
sg7
g97
sg9
L5L
sa(dp3935
g1
I01
sg7
g60
sg9
L5L
sa(dp3936
g1
I01
sg7
V_fields
p3937
sg9
L5L
sasg13
Nsg7
Vexpr_context
p3938
sg9
L3L
sa(dp3939
g1
I01
sg2
(lp3940
(dp3941
g1
I01
sg7
g8
sg9
L5L
sa(dp3942
g1
I01
sg7
g11
sg9
L5L
sa(dp3943
g1
I01
sg13
V__dir__() -> list\u000adefault dir() implementation
p3944
sg7
g15
sg9
L2L
sa(dp3945
g1
I01
sg7
g17
sg9
L5L
sa(dp3946
g1
I01
sg7
g19
sg9
L5L
sa(dp3947
g1
I01
sg13
Vdefault object formatter
p3948
sg7
g22
sg9
L2L
sa(dp3949
g1
I01
sg7
g24
sg9
L5L
sa(dp3950
g1
I01
sg7
g26
sg9
L5L
sa(dp3951
g1
I01
sg7
g28
sg9
L5L
sa(dp3952
g1
I01
sg7
g30
sg9
L5L
sa(dp3953
g1
I01
sg7
g32
sg9
L5L
sa(dp3954
g1
I01
sg7
g34
sg9
L5L
sa(dp3955
g1
I01
sg7
g36
sg9
L5L
sa(dp3956
g1
I01
sg7
V__module__
p3957
sg9
L5L
sa(dp3958
g1
I01
sg7
g38
sg9
L5L
sa(dp3959
g1
I01
sg13
VCreate and return a new object.  See help(type) for accurate signature.
p3960
sg7
g41
sg9
L2L
sa(dp3961
g1
I01
sg13
Nsg7
g43
sg9
L2L
sa(dp3962
g1
I01
sg13
Vhelper for pickle
p3963
sg7
g46
sg9
L2L
sa(dp3964
g1
I01
sg7
g48
sg9
L5L
sa(dp3965
g1
I01
sg7
g50
sg9
L5L
sa(dp3966
g1
I01
sg13
V__sizeof__() -> int\u000asize of object in memory, in bytes
p3967
sg7
g53
sg9
L2L
sa(dp3968
g1
I01
sg7
g55
sg9
L5L
sa(dp3969
g1
I01
sg13
VAbstract classes can override this to customize issubclass().\u000a\u000aThis is invoked early on by abc.ABCMeta.__subclasscheck__().\u000aIt should return True, False or NotImplemented.  If it returns\u000aNotImplemented, the normal algorithm is used.  Otherwise, it\u000aoverrides the normal algorithm (and the outcome is cached).\u000a
p3970
sg7
g58
sg9
L2L
sa(dp3971
g1
I01
sg7
g97
sg9
L5L
sa(dp3972
g1
I01
sg7
g60
sg9
L5L
sa(dp3973
g1
I01
sg7
V_fields
p3974
sg9
L5L
sasg13
Nsg7
Vkeyword
p3975
sg9
L3L
sa(dp3976
g1
I01
sg2
(lp3977
(dp3978
g1
I01
sg7
g8
sg9
L5L
sa(dp3979
g1
I01
sg7
g11
sg9
L5L
sa(dp3980
g1
I01
sg13
V__dir__() -> list\u000adefault dir() implementation
p3981
sg7
g15
sg9
L2L
sa(dp3982
g1
I01
sg7
g17
sg9
L5L
sa(dp3983
g1
I01
sg7
g19
sg9
L5L
sa(dp3984
g1
I01
sg13
Vdefault object formatter
p3985
sg7
g22
sg9
L2L
sa(dp3986
g1
I01
sg7
g24
sg9
L5L
sa(dp3987
g1
I01
sg7
g26
sg9
L5L
sa(dp3988
g1
I01
sg7
g28
sg9
L5L
sa(dp3989
g1
I01
sg7
g30
sg9
L5L
sa(dp3990
g1
I01
sg7
g32
sg9
L5L
sa(dp3991
g1
I01
sg7
g34
sg9
L5L
sa(dp3992
g1
I01
sg7
g36
sg9
L5L
sa(dp3993
g1
I01
sg7
V__module__
p3994
sg9
L5L
sa(dp3995
g1
I01
sg7
g38
sg9
L5L
sa(dp3996
g1
I01
sg13
VCreate and return a new object.  See help(type) for accurate signature.
p3997
sg7
g41
sg9
L2L
sa(dp3998
g1
I01
sg13
Nsg7
g43
sg9
L2L
sa(dp3999
g1
I01
sg13
Vhelper for pickle
p4000
sg7
g46
sg9
L2L
sa(dp4001
g1
I01
sg7
g48
sg9
L5L
sa(dp4002
g1
I01
sg7
g50
sg9
L5L
sa(dp4003
g1
I01
sg13
V__sizeof__() -> int\u000asize of object in memory, in bytes
p4004
sg7
g53
sg9
L2L
sa(dp4005
g1
I01
sg7
g55
sg9
L5L
sa(dp4006
g1
I01
sg13
VAbstract classes can override this to customize issubclass().\u000a\u000aThis is invoked early on by abc.ABCMeta.__subclasscheck__().\u000aIt should return True, False or NotImplemented.  If it returns\u000aNotImplemented, the normal algorithm is used.  Otherwise, it\u000aoverrides the normal algorithm (and the outcome is cached).\u000a
p4007
sg7
g58
sg9
L2L
sa(dp4008
g1
I01
sg7
g97
sg9
L5L
sa(dp4009
g1
I01
sg7
g60
sg9
L5L
sa(dp4010
g1
I01
sg7
V_fields
p4011
sg9
L5L
sasg13
Nsg7
Vmod
p4012
sg9
L3L
sa(dp4013
g1
I01
sg2
(lp4014
(dp4015
g1
I01
sg7
g8
sg9
L5L
sa(dp4016
g1
I01
sg7
g11
sg9
L5L
sa(dp4017
g1
I01
sg13
V__dir__() -> list\u000adefault dir() implementation
p4018
sg7
g15
sg9
L2L
sa(dp4019
g1
I01
sg7
g17
sg9
L5L
sa(dp4020
g1
I01
sg7
g19
sg9
L5L
sa(dp4021
g1
I01
sg13
Vdefault object formatter
p4022
sg7
g22
sg9
L2L
sa(dp4023
g1
I01
sg7
g24
sg9
L5L
sa(dp4024
g1
I01
sg7
g26
sg9
L5L
sa(dp4025
g1
I01
sg7
g28
sg9
L5L
sa(dp4026
g1
I01
sg7
g30
sg9
L5L
sa(dp4027
g1
I01
sg7
g32
sg9
L5L
sa(dp4028
g1
I01
sg7
g34
sg9
L5L
sa(dp4029
g1
I01
sg7
g36
sg9
L5L
sa(dp4030
g1
I01
sg7
V__module__
p4031
sg9
L5L
sa(dp4032
g1
I01
sg7
g38
sg9
L5L
sa(dp4033
g1
I01
sg13
VCreate and return a new object.  See help(type) for accurate signature.
p4034
sg7
g41
sg9
L2L
sa(dp4035
g1
I01
sg13
Nsg7
g43
sg9
L2L
sa(dp4036
g1
I01
sg13
Vhelper for pickle
p4037
sg7
g46
sg9
L2L
sa(dp4038
g1
I01
sg7
g48
sg9
L5L
sa(dp4039
g1
I01
sg7
g50
sg9
L5L
sa(dp4040
g1
I01
sg13
V__sizeof__() -> int\u000asize of object in memory, in bytes
p4041
sg7
g53
sg9
L2L
sa(dp4042
g1
I01
sg7
g55
sg9
L5L
sa(dp4043
g1
I01
sg13
VAbstract classes can override this to customize issubclass().\u000a\u000aThis is invoked early on by abc.ABCMeta.__subclasscheck__().\u000aIt should return True, False or NotImplemented.  If it returns\u000aNotImplemented, the normal algorithm is used.  Otherwise, it\u000aoverrides the normal algorithm (and the outcome is cached).\u000a
p4044
sg7
g58
sg9
L2L
sa(dp4045
g1
I01
sg7
g97
sg9
L5L
sa(dp4046
g1
I01
sg7
g60
sg9
L5L
sa(dp4047
g1
I01
sg7
V_fields
p4048
sg9
L5L
sasg13
Nsg7
Voperator
p4049
sg9
L3L
sa(dp4050
g1
I01
sg2
(lp4051
(dp4052
g1
I01
sg7
g8
sg9
L5L
sa(dp4053
g1
I01
sg7
g11
sg9
L5L
sa(dp4054
g1
I01
sg13
V__dir__() -> list\u000adefault dir() implementation
p4055
sg7
g15
sg9
L2L
sa(dp4056
g1
I01
sg7
g17
sg9
L5L
sa(dp4057
g1
I01
sg7
g19
sg9
L5L
sa(dp4058
g1
I01
sg13
Vdefault object formatter
p4059
sg7
g22
sg9
L2L
sa(dp4060
g1
I01
sg7
g24
sg9
L5L
sa(dp4061
g1
I01
sg7
g26
sg9
L5L
sa(dp4062
g1
I01
sg7
g28
sg9
L5L
sa(dp4063
g1
I01
sg7
g30
sg9
L5L
sa(dp4064
g1
I01
sg7
g32
sg9
L5L
sa(dp4065
g1
I01
sg7
g34
sg9
L5L
sa(dp4066
g1
I01
sg7
g36
sg9
L5L
sa(dp4067
g1
I01
sg7
V__module__
p4068
sg9
L5L
sa(dp4069
g1
I01
sg7
g38
sg9
L5L
sa(dp4070
g1
I01
sg13
VCreate and return a new object.  See help(type) for accurate signature.
p4071
sg7
g41
sg9
L2L
sa(dp4072
g1
I01
sg13
Nsg7
g43
sg9
L2L
sa(dp4073
g1
I01
sg13
Vhelper for pickle
p4074
sg7
g46
sg9
L2L
sa(dp4075
g1
I01
sg7
g48
sg9
L5L
sa(dp4076
g1
I01
sg7
g50
sg9
L5L
sa(dp4077
g1
I01
sg13
V__sizeof__() -> int\u000asize of object in memory, in bytes
p4078
sg7
g53
sg9
L2L
sa(dp4079
g1
I01
sg7
g55
sg9
L5L
sa(dp4080
g1
I01
sg13
VAbstract classes can override this to customize issubclass().\u000a\u000aThis is invoked early on by abc.ABCMeta.__subclasscheck__().\u000aIt should return True, False or NotImplemented.  If it returns\u000aNotImplemented, the normal algorithm is used.  Otherwise, it\u000aoverrides the normal algorithm (and the outcome is cached).\u000a
p4081
sg7
g58
sg9
L2L
sa(dp4082
g1
I01
sg7
g97
sg9
L5L
sa(dp4083
g1
I01
sg7
g60
sg9
L5L
sa(dp4084
g1
I01
sg7
V_fields
p4085
sg9
L5L
sasg13
Nsg7
Vslice
p4086
sg9
L3L
sa(dp4087
g1
I01
sg2
(lp4088
(dp4089
g1
I01
sg7
g8
sg9
L5L
sa(dp4090
g1
I01
sg7
g11
sg9
L5L
sa(dp4091
g1
I01
sg13
V__dir__() -> list\u000adefault dir() implementation
p4092
sg7
g15
sg9
L2L
sa(dp4093
g1
I01
sg7
g17
sg9
L5L
sa(dp4094
g1
I01
sg7
g19
sg9
L5L
sa(dp4095
g1
I01
sg13
Vdefault object formatter
p4096
sg7
g22
sg9
L2L
sa(dp4097
g1
I01
sg7
g24
sg9
L5L
sa(dp4098
g1
I01
sg7
g26
sg9
L5L
sa(dp4099
g1
I01
sg7
g28
sg9
L5L
sa(dp4100
g1
I01
sg7
g30
sg9
L5L
sa(dp4101
g1
I01
sg7
g32
sg9
L5L
sa(dp4102
g1
I01
sg7
g34
sg9
L5L
sa(dp4103
g1
I01
sg7
g36
sg9
L5L
sa(dp4104
g1
I01
sg7
V__module__
p4105
sg9
L5L
sa(dp4106
g1
I01
sg7
g38
sg9
L5L
sa(dp4107
g1
I01
sg13
VCreate and return a new object.  See help(type) for accurate signature.
p4108
sg7
g41
sg9
L2L
sa(dp4109
g1
I01
sg13
Nsg7
g43
sg9
L2L
sa(dp4110
g1
I01
sg13
Vhelper for pickle
p4111
sg7
g46
sg9
L2L
sa(dp4112
g1
I01
sg7
g48
sg9
L5L
sa(dp4113
g1
I01
sg7
g50
sg9
L5L
sa(dp4114
g1
I01
sg13
V__sizeof__() -> int\u000asize of object in memory, in bytes
p4115
sg7
g53
sg9
L2L
sa(dp4116
g1
I01
sg7
g55
sg9
L5L
sa(dp4117
g1
I01
sg13
VAbstract classes can override this to customize issubclass().\u000a\u000aThis is invoked early on by abc.ABCMeta.__subclasscheck__().\u000aIt should return True, False or NotImplemented.  If it returns\u000aNotImplemented, the normal algorithm is used.  Otherwise, it\u000aoverrides the normal algorithm (and the outcome is cached).\u000a
p4118
sg7
g58
sg9
L2L
sa(dp4119
g1
I01
sg7
g97
sg9
L5L
sa(dp4120
g1
I01
sg7
g60
sg9
L5L
sa(dp4121
g1
I01
sg7
V_fields
p4122
sg9
L5L
sasg13
Nsg7
Vstmt
p4123
sg9
L3L
sa(dp4124
g1
I01
sg2
(lp4125
(dp4126
g1
I01
sg7
g8
sg9
L5L
sa(dp4127
g1
I01
sg7
g11
sg9
L5L
sa(dp4128
g1
I01
sg13
V__dir__() -> list\u000adefault dir() implementation
p4129
sg7
g15
sg9
L2L
sa(dp4130
g1
I01
sg7
g17
sg9
L5L
sa(dp4131
g1
I01
sg7
g19
sg9
L5L
sa(dp4132
g1
I01
sg13
Vdefault object formatter
p4133
sg7
g22
sg9
L2L
sa(dp4134
g1
I01
sg7
g24
sg9
L5L
sa(dp4135
g1
I01
sg7
g26
sg9
L5L
sa(dp4136
g1
I01
sg7
g28
sg9
L5L
sa(dp4137
g1
I01
sg7
g30
sg9
L5L
sa(dp4138
g1
I01
sg7
g32
sg9
L5L
sa(dp4139
g1
I01
sg7
g34
sg9
L5L
sa(dp4140
g1
I01
sg7
g36
sg9
L5L
sa(dp4141
g1
I01
sg7
V__module__
p4142
sg9
L5L
sa(dp4143
g1
I01
sg7
g38
sg9
L5L
sa(dp4144
g1
I01
sg13
VCreate and return a new object.  See help(type) for accurate signature.
p4145
sg7
g41
sg9
L2L
sa(dp4146
g1
I01
sg13
Nsg7
g43
sg9
L2L
sa(dp4147
g1
I01
sg13
Vhelper for pickle
p4148
sg7
g46
sg9
L2L
sa(dp4149
g1
I01
sg7
g48
sg9
L5L
sa(dp4150
g1
I01
sg7
g50
sg9
L5L
sa(dp4151
g1
I01
sg13
V__sizeof__() -> int\u000asize of object in memory, in bytes
p4152
sg7
g53
sg9
L2L
sa(dp4153
g1
I01
sg7
g55
sg9
L5L
sa(dp4154
g1
I01
sg13
VAbstract classes can override this to customize issubclass().\u000a\u000aThis is invoked early on by abc.ABCMeta.__subclasscheck__().\u000aIt should return True, False or NotImplemented.  If it returns\u000aNotImplemented, the normal algorithm is used.  Otherwise, it\u000aoverrides the normal algorithm (and the outcome is cached).\u000a
p4155
sg7
g58
sg9
L2L
sa(dp4156
g1
I01
sg7
g97
sg9
L5L
sa(dp4157
g1
I01
sg7
g60
sg9
L5L
sa(dp4158
g1
I01
sg7
V_fields
p4159
sg9
L5L
sasg13
Nsg7
Vunaryop
p4160
sg9
L3L
sa(dp4161
g1
I01
sg2
(lp4162
(dp4163
g1
I01
sg7
g8
sg9
L5L
sa(dp4164
g1
I01
sg7
g11
sg9
L5L
sa(dp4165
g1
I01
sg13
V__dir__() -> list\u000adefault dir() implementation
p4166
sg7
g15
sg9
L2L
sa(dp4167
g1
I01
sg7
g17
sg9
L5L
sa(dp4168
g1
I01
sg7
g19
sg9
L5L
sa(dp4169
g1
I01
sg13
Vdefault object formatter
p4170
sg7
g22
sg9
L2L
sa(dp4171
g1
I01
sg7
g24
sg9
L5L
sa(dp4172
g1
I01
sg7
g26
sg9
L5L
sa(dp4173
g1
I01
sg7
g28
sg9
L5L
sa(dp4174
g1
I01
sg7
g30
sg9
L5L
sa(dp4175
g1
I01
sg7
g32
sg9
L5L
sa(dp4176
g1
I01
sg7
g34
sg9
L5L
sa(dp4177
g1
I01
sg7
g36
sg9
L5L
sa(dp4178
g1
I01
sg7
V__module__
p4179
sg9
L5L
sa(dp4180
g1
I01
sg7
g38
sg9
L5L
sa(dp4181
g1
I01
sg13
VCreate and return a new object.  See help(type) for accurate signature.
p4182
sg7
g41
sg9
L2L
sa(dp4183
g1
I01
sg13
Nsg7
g43
sg9
L2L
sa(dp4184
g1
I01
sg13
Vhelper for pickle
p4185
sg7
g46
sg9
L2L
sa(dp4186
g1
I01
sg7
g48
sg9
L5L
sa(dp4187
g1
I01
sg7
g50
sg9
L5L
sa(dp4188
g1
I01
sg13
V__sizeof__() -> int\u000asize of object in memory, in bytes
p4189
sg7
g53
sg9
L2L
sa(dp4190
g1
I01
sg7
g55
sg9
L5L
sa(dp4191
g1
I01
sg13
VAbstract classes can override this to customize issubclass().\u000a\u000aThis is invoked early on by abc.ABCMeta.__subclasscheck__().\u000aIt should return True, False or NotImplemented.  If it returns\u000aNotImplemented, the normal algorithm is used.  Otherwise, it\u000aoverrides the normal algorithm (and the outcome is cached).\u000a
p4192
sg7
g58
sg9
L2L
sa(dp4193
g1
I01
sg7
g97
sg9
L5L
sa(dp4194
g1
I01
sg7
g60
sg9
L5L
sa(dp4195
g1
I01
sg7
V_fields
p4196
sg9
L5L
sasg13
Nsg7
Vwithitem
p4197
sg9
L3L
sasg13
Nsg7
V_ast
p4198
sg9
L1L
s.