(dp0
Vis_builtin
p1
I01
sVchilds
p2
(lp3
(dp4
g1
I01
sg2
(lp5
(dp6
g1
I01
sVname
p7
V__delattr__
p8
sVtype
p9
L5L
sa(dp10
g1
I01
sVdoc
p11
V__dir__() -> list\u000adefault dir() implementation
p12
sg7
V__dir__
p13
sg9
L2L
sa(dp14
g1
I01
sg7
V__doc__
p15
sg9
L5L
sa(dp16
g1
I01
sg7
V__eq__
p17
sg9
L5L
sa(dp18
g1
I01
sg11
Vdefault object formatter
p19
sg7
V__format__
p20
sg9
L2L
sa(dp21
g1
I01
sg7
V__ge__
p22
sg9
L5L
sa(dp23
g1
I01
sg7
V__getattribute__
p24
sg9
L5L
sa(dp25
g1
I01
sg7
V__gt__
p26
sg9
L5L
sa(dp27
g1
I01
sg7
V__hash__
p28
sg9
L5L
sa(dp29
g1
I01
sg7
V__init__
p30
sg9
L5L
sa(dp31
g1
I01
sg7
V__le__
p32
sg9
L5L
sa(dp33
g1
I01
sg7
V__lt__
p34
sg9
L5L
sa(dp35
g1
I01
sg7
V__ne__
p36
sg9
L5L
sa(dp37
g1
I01
sg11
VCreate and return a new object.  See help(type) for accurate signature.
p38
sg7
V__new__
p39
sg9
L2L
sa(dp40
g1
I01
sg11
Vhelper for pickle
p41
sg7
V__reduce__
p42
sg9
L2L
sa(dp43
g1
I01
sg11
Vhelper for pickle
p44
sg7
V__reduce_ex__
p45
sg9
L2L
sa(dp46
g1
I01
sg7
V__repr__
p47
sg9
L5L
sa(dp48
g1
I01
sg7
V__setattr__
p49
sg9
L5L
sa(dp50
g1
I01
sg11
V__sizeof__() -> int\u000asize of object in memory, in bytes
p51
sg7
V__sizeof__
p52
sg9
L2L
sa(dp53
g1
I01
sg7
V__str__
p54
sg9
L5L
sa(dp55
g1
I01
sg11
VAbstract classes can override this to customize issubclass().\u000a\u000aThis is invoked early on by abc.ABCMeta.__subclasscheck__().\u000aIt should return True, False or NotImplemented.  If it returns\u000aNotImplemented, the normal algorithm is used.  Otherwise, it\u000aoverrides the normal algorithm (and the outcome is cached).\u000a
p56
sg7
V__subclasshook__
p57
sg9
L2L
sa(dp58
g1
I01
sg11
Vgetrandbits(k) -> x.  Generates an int with k random bits.
p59
sg7
Vgetrandbits
p60
sg9
L2L
sa(dp61
g1
I01
sg11
Vgetstate() -> tuple containing the current state.
p62
sg7
Vgetstate
p63
sg9
L2L
sa(dp64
g1
I01
sg11
Vrandom() -> x in the interval [0, 1).
p65
sg7
Vrandom
p66
sg9
L2L
sa(dp67
g1
I01
sg11
Vseed([n]) -> None.  Defaults to current time.
p68
sg7
Vseed
p69
sg9
L2L
sa(dp70
g1
I01
sg11
Vsetstate(state) -> None.  Restores generator state.
p71
sg7
Vsetstate
p72
sg9
L2L
sasg11
VRandom() -> create a random number generator with its own internal state.
p73
sg7
VRandom
p74
sg9
L3L
sa(dp75
g1
I01
sg7
g15
sg9
L5L
sa(dp76
g1
I01
sg2
(lp77
(dp78
g1
I01
sg7
g8
sg9
L5L
sa(dp79
g1
I01
sg7
V__dict__
p80
sg9
L5L
sa(dp81
g1
I01
sg11
V__dir__() -> list\u000adefault dir() implementation
p82
sg7
g13
sg9
L2L
sa(dp83
g1
I01
sg7
g15
sg9
L5L
sa(dp84
g1
I01
sg7
g17
sg9
L5L
sa(dp85
g1
I01
sg11
Vdefault object formatter
p86
sg7
g20
sg9
L2L
sa(dp87
g1
I01
sg7
g22
sg9
L5L
sa(dp88
g1
I01
sg7
g24
sg9
L5L
sa(dp89
g1
I01
sg7
g26
sg9
L5L
sa(dp90
g1
I01
sg7
g28
sg9
L5L
sa(dp91
g1
I01
sg7
g30
sg9
L5L
sa(dp92
g1
I01
sg7
g32
sg9
L5L
sa(dp93
g1
I01
sg7
g34
sg9
L5L
sa(dp94
g1
I01
sg7
V__module__
p95
sg9
L5L
sa(dp96
g1
I01
sg7
g36
sg9
L5L
sa(dp97
g1
I01
sg11
VCreate and return a new object.  See help(type) for accurate signature.
p98
sg7
g39
sg9
L2L
sa(dp99
g1
I01
sg11
Vhelper for pickle
p100
sg7
g42
sg9
L2L
sa(dp101
g1
I01
sg11
Vhelper for pickle
p102
sg7
g45
sg9
L2L
sa(dp103
g1
I01
sg7
g47
sg9
L5L
sa(dp104
g1
I01
sg7
g49
sg9
L5L
sa(dp105
g1
I01
sg11
V__sizeof__() -> int\u000asize of object in memory, in bytes
p106
sg7
g52
sg9
L2L
sa(dp107
g1
I01
sg7
g54
sg9
L5L
sa(dp108
g1
I01
sg11
VAbstract classes can override this to customize issubclass().\u000a\u000aThis is invoked early on by abc.ABCMeta.__subclasscheck__().\u000aIt should return True, False or NotImplemented.  If it returns\u000aNotImplemented, the normal algorithm is used.  Otherwise, it\u000aoverrides the normal algorithm (and the outcome is cached).\u000a
p109
sg7
g57
sg9
L2L
sa(dp110
g1
I01
sg7
V__weakref__
p111
sg9
L5L
sa(dp112
g1
I01
sg7
Vcreate_module
p113
sg9
L5L
sa(dp114
g1
I01
sg7
Vexec_module
p115
sg9
L5L
sa(dp116
g1
I01
sg7
Vfind_module
p117
sg9
L5L
sa(dp118
g1
I01
sg7
Vfind_spec
p119
sg9
L5L
sa(dp120
g1
I01
sg7
Vget_code
p121
sg9
L5L
sa(dp122
g1
I01
sg7
Vget_source
p123
sg9
L5L
sa(dp124
g1
I01
sg7
Vis_package
p125
sg9
L5L
sa(dp126
g1
I01
sg7
Vload_module
p127
sg9
L5L
sa(dp128
g1
I01
sg7
Vmodule_repr
p129
sg9
L5L
sasg11
VMeta path import for built-in modules.\u000a\u000a    All methods are either class or static methods to avoid the need to\u000a    instantiate the class.\u000a\u000a    
p130
sg7
V__loader__
p131
sg9
L3L
sa(dp132
g1
I01
sg7
V__name__
p133
sg9
L5L
sa(dp134
g1
I01
sg7
V__package__
p135
sg9
L5L
sa(dp136
g1
I01
sg7
V__spec__
p137
sg9
L5L
sasg11
VModule implements the Mersenne Twister random number generator.
p138
sg7
V_random
p139
sg9
L1L
s.