(dp0
Vis_builtin
p1
I01
sVchilds
p2
(lp3
(dp4
g1
I01
sVname
p5
VCELL
p6
sVtype
p7
L5L
sa(dp8
g1
I01
sg5
VDEF_BOUND
p9
sg7
L5L
sa(dp10
g1
I01
sg5
VDEF_FREE
p11
sg7
L5L
sa(dp12
g1
I01
sg5
VDEF_FREE_CLASS
p13
sg7
L5L
sa(dp14
g1
I01
sg5
VDEF_GLOBAL
p15
sg7
L5L
sa(dp16
g1
I01
sg5
VDEF_IMPORT
p17
sg7
L5L
sa(dp18
g1
I01
sg5
VDEF_LOCAL
p19
sg7
L5L
sa(dp20
g1
I01
sg5
VDEF_PARAM
p21
sg7
L5L
sa(dp22
g1
I01
sg5
VFREE
p23
sg7
L5L
sa(dp24
g1
I01
sg5
VGLOBAL_EXPLICIT
p25
sg7
L5L
sa(dp26
g1
I01
sg5
VGLOBAL_IMPLICIT
p27
sg7
L5L
sa(dp28
g1
I01
sg5
VLOCAL
p29
sg7
L5L
sa(dp30
g1
I01
sg5
VSCOPE_MASK
p31
sg7
L5L
sa(dp32
g1
I01
sg5
VSCOPE_OFF
p33
sg7
L5L
sa(dp34
g1
I01
sg5
VTYPE_CLASS
p35
sg7
L5L
sa(dp36
g1
I01
sg5
VTYPE_FUNCTION
p37
sg7
L5L
sa(dp38
g1
I01
sg5
VTYPE_MODULE
p39
sg7
L5L
sa(dp40
g1
I01
sg5
VUSE
p41
sg7
L5L
sa(dp42
g1
I01
sg5
V__doc__
p43
sg7
L5L
sa(dp44
g1
I01
sg2
(lp45
(dp46
g1
I01
sg5
V__delattr__
p47
sg7
L5L
sa(dp48
g1
I01
sg5
V__dict__
p49
sg7
L5L
sa(dp50
g1
I01
sVdoc
p51
V__dir__() -> list\u000adefault dir() implementation
p52
sg5
V__dir__
p53
sg7
L2L
sa(dp54
g1
I01
sg5
g43
sg7
L5L
sa(dp55
g1
I01
sg5
V__eq__
p56
sg7
L5L
sa(dp57
g1
I01
sg51
Vdefault object formatter
p58
sg5
V__format__
p59
sg7
L2L
sa(dp60
g1
I01
sg5
V__ge__
p61
sg7
L5L
sa(dp62
g1
I01
sg5
V__getattribute__
p63
sg7
L5L
sa(dp64
g1
I01
sg5
V__gt__
p65
sg7
L5L
sa(dp66
g1
I01
sg5
V__hash__
p67
sg7
L5L
sa(dp68
g1
I01
sg5
V__init__
p69
sg7
L5L
sa(dp70
g1
I01
sg5
V__le__
p71
sg7
L5L
sa(dp72
g1
I01
sg5
V__lt__
p73
sg7
L5L
sa(dp74
g1
I01
sg5
V__module__
p75
sg7
L5L
sa(dp76
g1
I01
sg5
V__ne__
p77
sg7
L5L
sa(dp78
g1
I01
sg51
VCreate and return a new object.  See help(type) for accurate signature.
p79
sg5
V__new__
p80
sg7
L2L
sa(dp81
g1
I01
sg51
Vhelper for pickle
p82
sg5
V__reduce__
p83
sg7
L2L
sa(dp84
g1
I01
sg51
Vhelper for pickle
p85
sg5
V__reduce_ex__
p86
sg7
L2L
sa(dp87
g1
I01
sg5
V__repr__
p88
sg7
L5L
sa(dp89
g1
I01
sg5
V__setattr__
p90
sg7
L5L
sa(dp91
g1
I01
sg51
V__sizeof__() -> int\u000asize of object in memory, in bytes
p92
sg5
V__sizeof__
p93
sg7
L2L
sa(dp94
g1
I01
sg5
V__str__
p95
sg7
L5L
sa(dp96
g1
I01
sg51
VAbstract classes can override this to customize issubclass().\u000a\u000aThis is invoked early on by abc.ABCMeta.__subclasscheck__().\u000aIt should return True, False or NotImplemented.  If it returns\u000aNotImplemented, the normal algorithm is used.  Otherwise, it\u000aoverrides the normal algorithm (and the outcome is cached).\u000a
p97
sg5
V__subclasshook__
p98
sg7
L2L
sa(dp99
g1
I01
sg5
V__weakref__
p100
sg7
L5L
sa(dp101
g1
I01
sg5
Vcreate_module
p102
sg7
L5L
sa(dp103
g1
I01
sg5
Vexec_module
p104
sg7
L5L
sa(dp105
g1
I01
sg5
Vfind_module
p106
sg7
L5L
sa(dp107
g1
I01
sg5
Vfind_spec
p108
sg7
L5L
sa(dp109
g1
I01
sg5
Vget_code
p110
sg7
L5L
sa(dp111
g1
I01
sg5
Vget_source
p112
sg7
L5L
sa(dp113
g1
I01
sg5
Vis_package
p114
sg7
L5L
sa(dp115
g1
I01
sg5
Vload_module
p116
sg7
L5L
sa(dp117
g1
I01
sg5
Vmodule_repr
p118
sg7
L5L
sasg51
VMeta path import for built-in modules.\u000a\u000a    All methods are either class or static methods to avoid the need to\u000a    instantiate the class.\u000a\u000a    
p119
sg5
V__loader__
p120
sg7
L3L
sa(dp121
g1
I01
sg5
V__name__
p122
sg7
L5L
sa(dp123
g1
I01
sg5
V__package__
p124
sg7
L5L
sa(dp125
g1
I01
sg5
V__spec__
p126
sg7
L5L
sa(dp127
g1
I01
sg51
VReturn symbol and scope dictionaries used internally by compiler.
p128
sg5
Vsymtable
p129
sg7
L2L
sasg51
Nsg5
V_symtable
p130
sg7
L1L
s.