(dp0
Vis_builtin
p1
I01
sVchilds
p2
(lp3
(dp4
g1
I01
sg2
(lp5
(dp6
g1
I01
sVname
p7
V__abs__
p8
sVtype
p9
L5L
sa(dp10
g1
I01
sg7
V__add__
p11
sg9
L5L
sa(dp12
g1
I01
sg7
V__and__
p13
sg9
L5L
sa(dp14
g1
I01
sg7
V__bool__
p15
sg9
L5L
sa(dp16
g1
I01
sg7
V__call__
p17
sg9
L5L
sa(dp18
g1
I01
sg7
V__contains__
p19
sg9
L5L
sa(dp20
g1
I01
sg7
V__delattr__
p21
sg9
L5L
sa(dp22
g1
I01
sg7
V__delitem__
p23
sg9
L5L
sa(dp24
g1
I01
sVdoc
p25
V__dir__() -> list\u000adefault dir() implementation
p26
sg7
V__dir__
p27
sg9
L2L
sa(dp28
g1
I01
sg7
V__divmod__
p29
sg9
L5L
sa(dp30
g1
I01
sg7
V__doc__
p31
sg9
L5L
sa(dp32
g1
I01
sg7
V__eq__
p33
sg9
L5L
sa(dp34
g1
I01
sg7
V__float__
p35
sg9
L5L
sa(dp36
g1
I01
sg7
V__floordiv__
p37
sg9
L5L
sa(dp38
g1
I01
sg25
Vdefault object formatter
p39
sg7
V__format__
p40
sg9
L2L
sa(dp41
g1
I01
sg7
V__ge__
p42
sg9
L5L
sa(dp43
g1
I01
sg7
V__getattribute__
p44
sg9
L5L
sa(dp45
g1
I01
sg7
V__getitem__
p46
sg9
L5L
sa(dp47
g1
I01
sg7
V__gt__
p48
sg9
L5L
sa(dp49
g1
I01
sg7
V__hash__
p50
sg9
L5L
sa(dp51
g1
I01
sg7
V__iadd__
p52
sg9
L5L
sa(dp53
g1
I01
sg7
V__iand__
p54
sg9
L5L
sa(dp55
g1
I01
sg7
V__ifloordiv__
p56
sg9
L5L
sa(dp57
g1
I01
sg7
V__ilshift__
p58
sg9
L5L
sa(dp59
g1
I01
sg7
V__imod__
p60
sg9
L5L
sa(dp61
g1
I01
sg7
V__imul__
p62
sg9
L5L
sa(dp63
g1
I01
sg7
V__index__
p64
sg9
L5L
sa(dp65
g1
I01
sg7
V__init__
p66
sg9
L5L
sa(dp67
g1
I01
sg7
V__int__
p68
sg9
L5L
sa(dp69
g1
I01
sg7
V__invert__
p70
sg9
L5L
sa(dp71
g1
I01
sg7
V__ior__
p72
sg9
L5L
sa(dp73
g1
I01
sg7
V__ipow__
p74
sg9
L5L
sa(dp75
g1
I01
sg7
V__irshift__
p76
sg9
L5L
sa(dp77
g1
I01
sg7
V__isub__
p78
sg9
L5L
sa(dp79
g1
I01
sg7
V__iter__
p80
sg9
L5L
sa(dp81
g1
I01
sg7
V__itruediv__
p82
sg9
L5L
sa(dp83
g1
I01
sg7
V__ixor__
p84
sg9
L5L
sa(dp85
g1
I01
sg7
V__le__
p86
sg9
L5L
sa(dp87
g1
I01
sg7
V__len__
p88
sg9
L5L
sa(dp89
g1
I01
sg7
V__lshift__
p90
sg9
L5L
sa(dp91
g1
I01
sg7
V__lt__
p92
sg9
L5L
sa(dp93
g1
I01
sg7
V__mod__
p94
sg9
L5L
sa(dp95
g1
I01
sg7
V__mul__
p96
sg9
L5L
sa(dp97
g1
I01
sg7
V__ne__
p98
sg9
L5L
sa(dp99
g1
I01
sg7
V__neg__
p100
sg9
L5L
sa(dp101
g1
I01
sg25
VCreate and return a new object.  See help(type) for accurate signature.
p102
sg7
V__new__
p103
sg9
L2L
sa(dp104
g1
I01
sg7
V__next__
p105
sg9
L5L
sa(dp106
g1
I01
sg7
V__or__
p107
sg9
L5L
sa(dp108
g1
I01
sg7
V__pos__
p109
sg9
L5L
sa(dp110
g1
I01
sg7
V__pow__
p111
sg9
L5L
sa(dp112
g1
I01
sg7
V__radd__
p113
sg9
L5L
sa(dp114
g1
I01
sg7
V__rand__
p115
sg9
L5L
sa(dp116
g1
I01
sg7
V__rdivmod__
p117
sg9
L5L
sa(dp118
g1
I01
sg25
Vhelper for pickle
p119
sg7
V__reduce__
p120
sg9
L2L
sa(dp121
g1
I01
sg25
Vhelper for pickle
p122
sg7
V__reduce_ex__
p123
sg9
L2L
sa(dp124
g1
I01
sg7
V__repr__
p125
sg9
L5L
sa(dp126
g1
I01
sg7
V__rfloordiv__
p127
sg9
L5L
sa(dp128
g1
I01
sg7
V__rlshift__
p129
sg9
L5L
sa(dp130
g1
I01
sg7
V__rmod__
p131
sg9
L5L
sa(dp132
g1
I01
sg7
V__rmul__
p133
sg9
L5L
sa(dp134
g1
I01
sg7
V__ror__
p135
sg9
L5L
sa(dp136
g1
I01
sg7
V__rpow__
p137
sg9
L5L
sa(dp138
g1
I01
sg7
V__rrshift__
p139
sg9
L5L
sa(dp140
g1
I01
sg7
V__rshift__
p141
sg9
L5L
sa(dp142
g1
I01
sg7
V__rsub__
p143
sg9
L5L
sa(dp144
g1
I01
sg7
V__rtruediv__
p145
sg9
L5L
sa(dp146
g1
I01
sg7
V__rxor__
p147
sg9
L5L
sa(dp148
g1
I01
sg7
V__setattr__
p149
sg9
L5L
sa(dp150
g1
I01
sg7
V__setitem__
p151
sg9
L5L
sa(dp152
g1
I01
sg25
V__sizeof__() -> int\u000asize of object in memory, in bytes
p153
sg7
V__sizeof__
p154
sg9
L2L
sa(dp155
g1
I01
sg7
V__str__
p156
sg9
L5L
sa(dp157
g1
I01
sg7
V__sub__
p158
sg9
L5L
sa(dp159
g1
I01
sg25
VAbstract classes can override this to customize issubclass().\u000a\u000aThis is invoked early on by abc.ABCMeta.__subclasscheck__().\u000aIt should return True, False or NotImplemented.  If it returns\u000aNotImplemented, the normal algorithm is used.  Otherwise, it\u000aoverrides the normal algorithm (and the outcome is cached).\u000a
p160
sg7
V__subclasshook__
p161
sg9
L2L
sa(dp162
g1
I01
sg7
V__truediv__
p163
sg9
L5L
sa(dp164
g1
I01
sg7
V__xor__
p165
sg9
L5L
sasg25
Nsg7
VCallableProxyType
p166
sg9
L3L
sa(dp167
g1
I01
sg2
(lp168
(dp169
g1
I01
sg7
g8
sg9
L5L
sa(dp170
g1
I01
sg7
g11
sg9
L5L
sa(dp171
g1
I01
sg7
g13
sg9
L5L
sa(dp172
g1
I01
sg7
g15
sg9
L5L
sa(dp173
g1
I01
sg25
Nsg7
V__bytes__
p174
sg9
L2L
sa(dp175
g1
I01
sg7
g19
sg9
L5L
sa(dp176
g1
I01
sg7
g21
sg9
L5L
sa(dp177
g1
I01
sg7
g23
sg9
L5L
sa(dp178
g1
I01
sg25
V__dir__() -> list\u000adefault dir() implementation
p179
sg7
g27
sg9
L2L
sa(dp180
g1
I01
sg7
g29
sg9
L5L
sa(dp181
g1
I01
sg7
g31
sg9
L5L
sa(dp182
g1
I01
sg7
g33
sg9
L5L
sa(dp183
g1
I01
sg7
g35
sg9
L5L
sa(dp184
g1
I01
sg7
g37
sg9
L5L
sa(dp185
g1
I01
sg25
Vdefault object formatter
p186
sg7
g40
sg9
L2L
sa(dp187
g1
I01
sg7
g42
sg9
L5L
sa(dp188
g1
I01
sg7
g44
sg9
L5L
sa(dp189
g1
I01
sg7
g46
sg9
L5L
sa(dp190
g1
I01
sg7
g48
sg9
L5L
sa(dp191
g1
I01
sg7
g50
sg9
L5L
sa(dp192
g1
I01
sg7
g52
sg9
L5L
sa(dp193
g1
I01
sg7
g54
sg9
L5L
sa(dp194
g1
I01
sg7
g56
sg9
L5L
sa(dp195
g1
I01
sg7
g58
sg9
L5L
sa(dp196
g1
I01
sg7
g60
sg9
L5L
sa(dp197
g1
I01
sg7
g62
sg9
L5L
sa(dp198
g1
I01
sg7
g64
sg9
L5L
sa(dp199
g1
I01
sg7
g66
sg9
L5L
sa(dp200
g1
I01
sg7
g68
sg9
L5L
sa(dp201
g1
I01
sg7
g70
sg9
L5L
sa(dp202
g1
I01
sg7
g72
sg9
L5L
sa(dp203
g1
I01
sg7
g74
sg9
L5L
sa(dp204
g1
I01
sg7
g76
sg9
L5L
sa(dp205
g1
I01
sg7
g78
sg9
L5L
sa(dp206
g1
I01
sg7
g80
sg9
L5L
sa(dp207
g1
I01
sg7
g82
sg9
L5L
sa(dp208
g1
I01
sg7
g84
sg9
L5L
sa(dp209
g1
I01
sg7
g86
sg9
L5L
sa(dp210
g1
I01
sg7
g88
sg9
L5L
sa(dp211
g1
I01
sg7
g90
sg9
L5L
sa(dp212
g1
I01
sg7
g92
sg9
L5L
sa(dp213
g1
I01
sg7
g94
sg9
L5L
sa(dp214
g1
I01
sg7
g96
sg9
L5L
sa(dp215
g1
I01
sg7
g98
sg9
L5L
sa(dp216
g1
I01
sg7
g100
sg9
L5L
sa(dp217
g1
I01
sg25
VCreate and return a new object.  See help(type) for accurate signature.
p218
sg7
g103
sg9
L2L
sa(dp219
g1
I01
sg7
g105
sg9
L5L
sa(dp220
g1
I01
sg7
g107
sg9
L5L
sa(dp221
g1
I01
sg7
g109
sg9
L5L
sa(dp222
g1
I01
sg7
g111
sg9
L5L
sa(dp223
g1
I01
sg7
g113
sg9
L5L
sa(dp224
g1
I01
sg7
g115
sg9
L5L
sa(dp225
g1
I01
sg7
g117
sg9
L5L
sa(dp226
g1
I01
sg25
Vhelper for pickle
p227
sg7
g120
sg9
L2L
sa(dp228
g1
I01
sg25
Vhelper for pickle
p229
sg7
g123
sg9
L2L
sa(dp230
g1
I01
sg7
g125
sg9
L5L
sa(dp231
g1
I01
sg7
g127
sg9
L5L
sa(dp232
g1
I01
sg7
g129
sg9
L5L
sa(dp233
g1
I01
sg7
g131
sg9
L5L
sa(dp234
g1
I01
sg7
g133
sg9
L5L
sa(dp235
g1
I01
sg7
g135
sg9
L5L
sa(dp236
g1
I01
sg7
g137
sg9
L5L
sa(dp237
g1
I01
sg7
g139
sg9
L5L
sa(dp238
g1
I01
sg7
g141
sg9
L5L
sa(dp239
g1
I01
sg7
g143
sg9
L5L
sa(dp240
g1
I01
sg7
g145
sg9
L5L
sa(dp241
g1
I01
sg7
g147
sg9
L5L
sa(dp242
g1
I01
sg7
g149
sg9
L5L
sa(dp243
g1
I01
sg7
g151
sg9
L5L
sa(dp244
g1
I01
sg25
V__sizeof__() -> int\u000asize of object in memory, in bytes
p245
sg7
g154
sg9
L2L
sa(dp246
g1
I01
sg7
g156
sg9
L5L
sa(dp247
g1
I01
sg7
g158
sg9
L5L
sa(dp248
g1
I01
sg25
VAbstract classes can override this to customize issubclass().\u000a\u000aThis is invoked early on by abc.ABCMeta.__subclasscheck__().\u000aIt should return True, False or NotImplemented.  If it returns\u000aNotImplemented, the normal algorithm is used.  Otherwise, it\u000aoverrides the normal algorithm (and the outcome is cached).\u000a
p249
sg7
g161
sg9
L2L
sa(dp250
g1
I01
sg7
g163
sg9
L5L
sa(dp251
g1
I01
sg7
g165
sg9
L5L
sasg25
Nsg7
VProxyType
p252
sg9
L3L
sa(dp253
g1
I01
sg2
(lp254
(dp255
g1
I01
sg7
g17
sg9
L5L
sa(dp256
g1
I01
sg7
V__callback__
p257
sg9
L5L
sa(dp258
g1
I01
sg7
g21
sg9
L5L
sa(dp259
g1
I01
sg25
V__dir__() -> list\u000adefault dir() implementation
p260
sg7
g27
sg9
L2L
sa(dp261
g1
I01
sg7
g31
sg9
L5L
sa(dp262
g1
I01
sg7
g33
sg9
L5L
sa(dp263
g1
I01
sg25
Vdefault object formatter
p264
sg7
g40
sg9
L2L
sa(dp265
g1
I01
sg7
g42
sg9
L5L
sa(dp266
g1
I01
sg7
g44
sg9
L5L
sa(dp267
g1
I01
sg7
g48
sg9
L5L
sa(dp268
g1
I01
sg7
g50
sg9
L5L
sa(dp269
g1
I01
sg7
g66
sg9
L5L
sa(dp270
g1
I01
sg7
g86
sg9
L5L
sa(dp271
g1
I01
sg7
g92
sg9
L5L
sa(dp272
g1
I01
sg7
g98
sg9
L5L
sa(dp273
g1
I01
sg25
VCreate and return a new object.  See help(type) for accurate signature.
p274
sg7
g103
sg9
L2L
sa(dp275
g1
I01
sg25
Vhelper for pickle
p276
sg7
g120
sg9
L2L
sa(dp277
g1
I01
sg25
Vhelper for pickle
p278
sg7
g123
sg9
L2L
sa(dp279
g1
I01
sg7
g125
sg9
L5L
sa(dp280
g1
I01
sg7
g149
sg9
L5L
sa(dp281
g1
I01
sg25
V__sizeof__() -> int\u000asize of object in memory, in bytes
p282
sg7
g154
sg9
L2L
sa(dp283
g1
I01
sg7
g156
sg9
L5L
sa(dp284
g1
I01
sg25
VAbstract classes can override this to customize issubclass().\u000a\u000aThis is invoked early on by abc.ABCMeta.__subclasscheck__().\u000aIt should return True, False or NotImplemented.  If it returns\u000aNotImplemented, the normal algorithm is used.  Otherwise, it\u000aoverrides the normal algorithm (and the outcome is cached).\u000a
p285
sg7
g161
sg9
L2L
sasg25
Nsg7
VReferenceType
p286
sg9
L3L
sa(dp287
g1
I01
sg7
g31
sg9
L5L
sa(dp288
g1
I01
sg2
(lp289
(dp290
g1
I01
sg7
g21
sg9
L5L
sa(dp291
g1
I01
sg7
V__dict__
p292
sg9
L5L
sa(dp293
g1
I01
sg25
V__dir__() -> list\u000adefault dir() implementation
p294
sg7
g27
sg9
L2L
sa(dp295
g1
I01
sg7
g31
sg9
L5L
sa(dp296
g1
I01
sg7
g33
sg9
L5L
sa(dp297
g1
I01
sg25
Vdefault object formatter
p298
sg7
g40
sg9
L2L
sa(dp299
g1
I01
sg7
g42
sg9
L5L
sa(dp300
g1
I01
sg7
g44
sg9
L5L
sa(dp301
g1
I01
sg7
g48
sg9
L5L
sa(dp302
g1
I01
sg7
g50
sg9
L5L
sa(dp303
g1
I01
sg7
g66
sg9
L5L
sa(dp304
g1
I01
sg7
g86
sg9
L5L
sa(dp305
g1
I01
sg7
g92
sg9
L5L
sa(dp306
g1
I01
sg7
V__module__
p307
sg9
L5L
sa(dp308
g1
I01
sg7
g98
sg9
L5L
sa(dp309
g1
I01
sg25
VCreate and return a new object.  See help(type) for accurate signature.
p310
sg7
g103
sg9
L2L
sa(dp311
g1
I01
sg25
Vhelper for pickle
p312
sg7
g120
sg9
L2L
sa(dp313
g1
I01
sg25
Vhelper for pickle
p314
sg7
g123
sg9
L2L
sa(dp315
g1
I01
sg7
g125
sg9
L5L
sa(dp316
g1
I01
sg7
g149
sg9
L5L
sa(dp317
g1
I01
sg25
V__sizeof__() -> int\u000asize of object in memory, in bytes
p318
sg7
g154
sg9
L2L
sa(dp319
g1
I01
sg7
g156
sg9
L5L
sa(dp320
g1
I01
sg25
VAbstract classes can override this to customize issubclass().\u000a\u000aThis is invoked early on by abc.ABCMeta.__subclasscheck__().\u000aIt should return True, False or NotImplemented.  If it returns\u000aNotImplemented, the normal algorithm is used.  Otherwise, it\u000aoverrides the normal algorithm (and the outcome is cached).\u000a
p321
sg7
g161
sg9
L2L
sa(dp322
g1
I01
sg7
V__weakref__
p323
sg9
L5L
sa(dp324
g1
I01
sg7
Vcreate_module
p325
sg9
L5L
sa(dp326
g1
I01
sg7
Vexec_module
p327
sg9
L5L
sa(dp328
g1
I01
sg7
Vfind_module
p329
sg9
L5L
sa(dp330
g1
I01
sg7
Vfind_spec
p331
sg9
L5L
sa(dp332
g1
I01
sg7
Vget_code
p333
sg9
L5L
sa(dp334
g1
I01
sg7
Vget_source
p335
sg9
L5L
sa(dp336
g1
I01
sg7
Vis_package
p337
sg9
L5L
sa(dp338
g1
I01
sg7
Vload_module
p339
sg9
L5L
sa(dp340
g1
I01
sg7
Vmodule_repr
p341
sg9
L5L
sasg25
VMeta path import for built-in modules.\u000a\u000a    All methods are either class or static methods to avoid the need to\u000a    instantiate the class.\u000a\u000a    
p342
sg7
V__loader__
p343
sg9
L3L
sa(dp344
g1
I01
sg7
V__name__
p345
sg9
L5L
sa(dp346
g1
I01
sg7
V__package__
p347
sg9
L5L
sa(dp348
g1
I01
sg7
V__spec__
p349
sg9
L5L
sa(dp350
g1
I01
sg25
VReturn the number of weak references to 'object'.
p351
sg7
Vgetweakrefcount
p352
sg9
L2L
sa(dp353
g1
I01
sg25
Vgetweakrefs(object) -- return a list of all weak reference objects\u000athat point to 'object'.
p354
sg7
Vgetweakrefs
p355
sg9
L2L
sa(dp356
g1
I01
sg25
Vproxy(object[, callback]) -- create a proxy object that weakly\u000areferences 'object'.  'callback', if given, is called with a\u000areference to the proxy when 'object' is about to be finalized.
p357
sg7
Vproxy
p358
sg9
L2L
sa(dp359
g1
I01
sg2
(lp360
(dp361
g1
I01
sg7
g17
sg9
L5L
sa(dp362
g1
I01
sg7
g257
sg9
L5L
sa(dp363
g1
I01
sg7
g21
sg9
L5L
sa(dp364
g1
I01
sg25
V__dir__() -> list\u000adefault dir() implementation
p365
sg7
g27
sg9
L2L
sa(dp366
g1
I01
sg7
g31
sg9
L5L
sa(dp367
g1
I01
sg7
g33
sg9
L5L
sa(dp368
g1
I01
sg25
Vdefault object formatter
p369
sg7
g40
sg9
L2L
sa(dp370
g1
I01
sg7
g42
sg9
L5L
sa(dp371
g1
I01
sg7
g44
sg9
L5L
sa(dp372
g1
I01
sg7
g48
sg9
L5L
sa(dp373
g1
I01
sg7
g50
sg9
L5L
sa(dp374
g1
I01
sg7
g66
sg9
L5L
sa(dp375
g1
I01
sg7
g86
sg9
L5L
sa(dp376
g1
I01
sg7
g92
sg9
L5L
sa(dp377
g1
I01
sg7
g98
sg9
L5L
sa(dp378
g1
I01
sg25
VCreate and return a new object.  See help(type) for accurate signature.
p379
sg7
g103
sg9
L2L
sa(dp380
g1
I01
sg25
Vhelper for pickle
p381
sg7
g120
sg9
L2L
sa(dp382
g1
I01
sg25
Vhelper for pickle
p383
sg7
g123
sg9
L2L
sa(dp384
g1
I01
sg7
g125
sg9
L5L
sa(dp385
g1
I01
sg7
g149
sg9
L5L
sa(dp386
g1
I01
sg25
V__sizeof__() -> int\u000asize of object in memory, in bytes
p387
sg7
g154
sg9
L2L
sa(dp388
g1
I01
sg7
g156
sg9
L5L
sa(dp389
g1
I01
sg25
VAbstract classes can override this to customize issubclass().\u000a\u000aThis is invoked early on by abc.ABCMeta.__subclasscheck__().\u000aIt should return True, False or NotImplemented.  If it returns\u000aNotImplemented, the normal algorithm is used.  Otherwise, it\u000aoverrides the normal algorithm (and the outcome is cached).\u000a
p390
sg7
g161
sg9
L2L
sasg25
Nsg7
Vref
p391
sg9
L3L
sasg25
VWeak-reference support module.
p392
sg7
V_weakref
p393
sg9
L1L
s.