(dp0
Vis_builtin
p1
I01
sVchilds
p2
(lp3
(dp4
g1
I01
sVname
p5
V__doc__
p6
sVtype
p7
L5L
sa(dp8
g1
I01
sg2
(lp9
(dp10
g1
I01
sg5
V__delattr__
p11
sg7
L5L
sa(dp12
g1
I01
sg5
V__dict__
p13
sg7
L5L
sa(dp14
g1
I01
sVdoc
p15
V__dir__() -> list\u000adefault dir() implementation
p16
sg5
V__dir__
p17
sg7
L2L
sa(dp18
g1
I01
sg5
g6
sg7
L5L
sa(dp19
g1
I01
sg5
V__eq__
p20
sg7
L5L
sa(dp21
g1
I01
sg15
Vdefault object formatter
p22
sg5
V__format__
p23
sg7
L2L
sa(dp24
g1
I01
sg5
V__ge__
p25
sg7
L5L
sa(dp26
g1
I01
sg5
V__getattribute__
p27
sg7
L5L
sa(dp28
g1
I01
sg5
V__gt__
p29
sg7
L5L
sa(dp30
g1
I01
sg5
V__hash__
p31
sg7
L5L
sa(dp32
g1
I01
sg5
V__init__
p33
sg7
L5L
sa(dp34
g1
I01
sg5
V__le__
p35
sg7
L5L
sa(dp36
g1
I01
sg5
V__lt__
p37
sg7
L5L
sa(dp38
g1
I01
sg5
V__module__
p39
sg7
L5L
sa(dp40
g1
I01
sg5
V__ne__
p41
sg7
L5L
sa(dp42
g1
I01
sg15
VCreate and return a new object.  See help(type) for accurate signature.
p43
sg5
V__new__
p44
sg7
L2L
sa(dp45
g1
I01
sg15
Vhelper for pickle
p46
sg5
V__reduce__
p47
sg7
L2L
sa(dp48
g1
I01
sg15
Vhelper for pickle
p49
sg5
V__reduce_ex__
p50
sg7
L2L
sa(dp51
g1
I01
sg5
V__repr__
p52
sg7
L5L
sa(dp53
g1
I01
sg5
V__setattr__
p54
sg7
L5L
sa(dp55
g1
I01
sg15
V__sizeof__() -> int\u000asize of object in memory, in bytes
p56
sg5
V__sizeof__
p57
sg7
L2L
sa(dp58
g1
I01
sg5
V__str__
p59
sg7
L5L
sa(dp60
g1
I01
sg15
VAbstract classes can override this to customize issubclass().\u000a\u000aThis is invoked early on by abc.ABCMeta.__subclasscheck__().\u000aIt should return True, False or NotImplemented.  If it returns\u000aNotImplemented, the normal algorithm is used.  Otherwise, it\u000aoverrides the normal algorithm (and the outcome is cached).\u000a
p61
sg5
V__subclasshook__
p62
sg7
L2L
sa(dp63
g1
I01
sg5
V__weakref__
p64
sg7
L5L
sa(dp65
g1
I01
sg5
Vcreate_module
p66
sg7
L5L
sa(dp67
g1
I01
sg5
Vexec_module
p68
sg7
L5L
sa(dp69
g1
I01
sg5
Vfind_module
p70
sg7
L5L
sa(dp71
g1
I01
sg5
Vfind_spec
p72
sg7
L5L
sa(dp73
g1
I01
sg5
Vget_code
p74
sg7
L5L
sa(dp75
g1
I01
sg5
Vget_source
p76
sg7
L5L
sa(dp77
g1
I01
sg5
Vis_package
p78
sg7
L5L
sa(dp79
g1
I01
sg5
Vload_module
p80
sg7
L5L
sa(dp81
g1
I01
sg5
Vmodule_repr
p82
sg7
L5L
sasg15
VMeta path import for built-in modules.\u000a\u000a    All methods are either class or static methods to avoid the need to\u000a    instantiate the class.\u000a\u000a    
p83
sg5
V__loader__
p84
sg7
L3L
sa(dp85
g1
I01
sg5
V__name__
p86
sg7
L5L
sa(dp87
g1
I01
sg5
V__package__
p88
sg7
L5L
sa(dp89
g1
I01
sg5
V__spec__
p90
sg7
L5L
sa(dp91
g1
I01
sg2
(lp92
(dp93
g1
I01
sg5
g11
sg7
L5L
sa(dp94
g1
I01
sg15
V__dir__() -> list\u000adefault dir() implementation
p95
sg5
g17
sg7
L2L
sa(dp96
g1
I01
sg5
g6
sg7
L5L
sa(dp97
g1
I01
sg5
g20
sg7
L5L
sa(dp98
g1
I01
sg15
Vdefault object formatter
p99
sg5
g23
sg7
L2L
sa(dp100
g1
I01
sg5
g25
sg7
L5L
sa(dp101
g1
I01
sg5
g27
sg7
L5L
sa(dp102
g1
I01
sg5
g29
sg7
L5L
sa(dp103
g1
I01
sg5
g31
sg7
L5L
sa(dp104
g1
I01
sg5
g33
sg7
L5L
sa(dp105
g1
I01
sg5
V__iter__
p106
sg7
L5L
sa(dp107
g1
I01
sg5
g35
sg7
L5L
sa(dp108
g1
I01
sg5
g37
sg7
L5L
sa(dp109
g1
I01
sg5
g41
sg7
L5L
sa(dp110
g1
I01
sg15
VCreate and return a new object.  See help(type) for accurate signature.
p111
sg5
g44
sg7
L2L
sa(dp112
g1
I01
sg5
V__next__
p113
sg7
L5L
sa(dp114
g1
I01
sg15
VReturn state information for pickling.
p115
sg5
g47
sg7
L2L
sa(dp116
g1
I01
sg15
Vhelper for pickle
p117
sg5
g50
sg7
L2L
sa(dp118
g1
I01
sg5
g52
sg7
L5L
sa(dp119
g1
I01
sg5
g54
sg7
L5L
sa(dp120
g1
I01
sg15
V__sizeof__() -> int\u000asize of object in memory, in bytes
p121
sg5
g57
sg7
L2L
sa(dp122
g1
I01
sg5
g59
sg7
L5L
sa(dp123
g1
I01
sg15
VAbstract classes can override this to customize issubclass().\u000a\u000aThis is invoked early on by abc.ABCMeta.__subclasscheck__().\u000aIt should return True, False or NotImplemented.  If it returns\u000aNotImplemented, the normal algorithm is used.  Otherwise, it\u000aoverrides the normal algorithm (and the outcome is cached).\u000a
p124
sg5
g62
sg7
L2L
sasg15
Nsg5
V_grouper
p125
sg7
L3L
sa(dp126
g1
I01
sg2
(lp127
(dp128
g1
I01
sg15
VReturns an independent iterator.
p129
sg5
V__copy__
p130
sg7
L2L
sa(dp131
g1
I01
sg5
g11
sg7
L5L
sa(dp132
g1
I01
sg15
V__dir__() -> list\u000adefault dir() implementation
p133
sg5
g17
sg7
L2L
sa(dp134
g1
I01
sg5
g6
sg7
L5L
sa(dp135
g1
I01
sg5
g20
sg7
L5L
sa(dp136
g1
I01
sg15
Vdefault object formatter
p137
sg5
g23
sg7
L2L
sa(dp138
g1
I01
sg5
g25
sg7
L5L
sa(dp139
g1
I01
sg5
g27
sg7
L5L
sa(dp140
g1
I01
sg5
g29
sg7
L5L
sa(dp141
g1
I01
sg5
g31
sg7
L5L
sa(dp142
g1
I01
sg5
g33
sg7
L5L
sa(dp143
g1
I01
sg5
g106
sg7
L5L
sa(dp144
g1
I01
sg5
g35
sg7
L5L
sa(dp145
g1
I01
sg5
g37
sg7
L5L
sa(dp146
g1
I01
sg5
g41
sg7
L5L
sa(dp147
g1
I01
sg15
VCreate and return a new object.  See help(type) for accurate signature.
p148
sg5
g44
sg7
L2L
sa(dp149
g1
I01
sg5
g113
sg7
L5L
sa(dp150
g1
I01
sg15
VReturn state information for pickling.
p151
sg5
g47
sg7
L2L
sa(dp152
g1
I01
sg15
Vhelper for pickle
p153
sg5
g50
sg7
L2L
sa(dp154
g1
I01
sg5
g52
sg7
L5L
sa(dp155
g1
I01
sg5
g54
sg7
L5L
sa(dp156
g1
I01
sg15
VSet state information for unpickling.
p157
sg5
V__setstate__
p158
sg7
L2L
sa(dp159
g1
I01
sg15
V__sizeof__() -> int\u000asize of object in memory, in bytes
p160
sg5
g57
sg7
L2L
sa(dp161
g1
I01
sg5
g59
sg7
L5L
sa(dp162
g1
I01
sg15
VAbstract classes can override this to customize issubclass().\u000a\u000aThis is invoked early on by abc.ABCMeta.__subclasscheck__().\u000aIt should return True, False or NotImplemented.  If it returns\u000aNotImplemented, the normal algorithm is used.  Otherwise, it\u000aoverrides the normal algorithm (and the outcome is cached).\u000a
p163
sg5
g62
sg7
L2L
sasg15
VIterator wrapped to make it copyable
p164
sg5
V_tee
p165
sg7
L3L
sa(dp166
g1
I01
sg2
(lp167
(dp168
g1
I01
sg5
g11
sg7
L5L
sa(dp169
g1
I01
sg15
V__dir__() -> list\u000adefault dir() implementation
p170
sg5
g17
sg7
L2L
sa(dp171
g1
I01
sg5
g6
sg7
L5L
sa(dp172
g1
I01
sg5
g20
sg7
L5L
sa(dp173
g1
I01
sg15
Vdefault object formatter
p174
sg5
g23
sg7
L2L
sa(dp175
g1
I01
sg5
g25
sg7
L5L
sa(dp176
g1
I01
sg5
g27
sg7
L5L
sa(dp177
g1
I01
sg5
g29
sg7
L5L
sa(dp178
g1
I01
sg5
g31
sg7
L5L
sa(dp179
g1
I01
sg5
g33
sg7
L5L
sa(dp180
g1
I01
sg5
g35
sg7
L5L
sa(dp181
g1
I01
sg5
g37
sg7
L5L
sa(dp182
g1
I01
sg5
g41
sg7
L5L
sa(dp183
g1
I01
sg15
VCreate and return a new object.  See help(type) for accurate signature.
p184
sg5
g44
sg7
L2L
sa(dp185
g1
I01
sg15
VReturn state information for pickling.
p186
sg5
g47
sg7
L2L
sa(dp187
g1
I01
sg15
Vhelper for pickle
p188
sg5
g50
sg7
L2L
sa(dp189
g1
I01
sg5
g52
sg7
L5L
sa(dp190
g1
I01
sg5
g54
sg7
L5L
sa(dp191
g1
I01
sg15
V__sizeof__() -> int\u000asize of object in memory, in bytes
p192
sg5
g57
sg7
L2L
sa(dp193
g1
I01
sg5
g59
sg7
L5L
sa(dp194
g1
I01
sg15
VAbstract classes can override this to customize issubclass().\u000a\u000aThis is invoked early on by abc.ABCMeta.__subclasscheck__().\u000aIt should return True, False or NotImplemented.  If it returns\u000aNotImplemented, the normal algorithm is used.  Otherwise, it\u000aoverrides the normal algorithm (and the outcome is cached).\u000a
p195
sg5
g62
sg7
L2L
sasg15
VData container common to multiple tee objects.
p196
sg5
V_tee_dataobject
p197
sg7
L3L
sa(dp198
g1
I01
sg2
(lp199
(dp200
g1
I01
sg5
g11
sg7
L5L
sa(dp201
g1
I01
sg15
V__dir__() -> list\u000adefault dir() implementation
p202
sg5
g17
sg7
L2L
sa(dp203
g1
I01
sg5
g6
sg7
L5L
sa(dp204
g1
I01
sg5
g20
sg7
L5L
sa(dp205
g1
I01
sg15
Vdefault object formatter
p206
sg5
g23
sg7
L2L
sa(dp207
g1
I01
sg5
g25
sg7
L5L
sa(dp208
g1
I01
sg5
g27
sg7
L5L
sa(dp209
g1
I01
sg5
g29
sg7
L5L
sa(dp210
g1
I01
sg5
g31
sg7
L5L
sa(dp211
g1
I01
sg5
g33
sg7
L5L
sa(dp212
g1
I01
sg5
g106
sg7
L5L
sa(dp213
g1
I01
sg5
g35
sg7
L5L
sa(dp214
g1
I01
sg5
g37
sg7
L5L
sa(dp215
g1
I01
sg5
g41
sg7
L5L
sa(dp216
g1
I01
sg15
VCreate and return a new object.  See help(type) for accurate signature.
p217
sg5
g44
sg7
L2L
sa(dp218
g1
I01
sg5
g113
sg7
L5L
sa(dp219
g1
I01
sg15
VReturn state information for pickling.
p220
sg5
g47
sg7
L2L
sa(dp221
g1
I01
sg15
Vhelper for pickle
p222
sg5
g50
sg7
L2L
sa(dp223
g1
I01
sg5
g52
sg7
L5L
sa(dp224
g1
I01
sg5
g54
sg7
L5L
sa(dp225
g1
I01
sg15
VSet state information for unpickling.
p226
sg5
g158
sg7
L2L
sa(dp227
g1
I01
sg15
V__sizeof__() -> int\u000asize of object in memory, in bytes
p228
sg5
g57
sg7
L2L
sa(dp229
g1
I01
sg5
g59
sg7
L5L
sa(dp230
g1
I01
sg15
VAbstract classes can override this to customize issubclass().\u000a\u000aThis is invoked early on by abc.ABCMeta.__subclasscheck__().\u000aIt should return True, False or NotImplemented.  If it returns\u000aNotImplemented, the normal algorithm is used.  Otherwise, it\u000aoverrides the normal algorithm (and the outcome is cached).\u000a
p231
sg5
g62
sg7
L2L
sasg15
Vaccumulate(iterable[, func]) --> accumulate object\u000a\u000aReturn series of accumulated sums (or other binary function results).
p232
sg5
Vaccumulate
p233
sg7
L3L
sa(dp234
g1
I01
sg2
(lp235
(dp236
g1
I01
sg5
g11
sg7
L5L
sa(dp237
g1
I01
sg15
V__dir__() -> list\u000adefault dir() implementation
p238
sg5
g17
sg7
L2L
sa(dp239
g1
I01
sg5
g6
sg7
L5L
sa(dp240
g1
I01
sg5
g20
sg7
L5L
sa(dp241
g1
I01
sg15
Vdefault object formatter
p242
sg5
g23
sg7
L2L
sa(dp243
g1
I01
sg5
g25
sg7
L5L
sa(dp244
g1
I01
sg5
g27
sg7
L5L
sa(dp245
g1
I01
sg5
g29
sg7
L5L
sa(dp246
g1
I01
sg5
g31
sg7
L5L
sa(dp247
g1
I01
sg5
g33
sg7
L5L
sa(dp248
g1
I01
sg5
g106
sg7
L5L
sa(dp249
g1
I01
sg5
g35
sg7
L5L
sa(dp250
g1
I01
sg5
g37
sg7
L5L
sa(dp251
g1
I01
sg5
g41
sg7
L5L
sa(dp252
g1
I01
sg15
VCreate and return a new object.  See help(type) for accurate signature.
p253
sg5
g44
sg7
L2L
sa(dp254
g1
I01
sg5
g113
sg7
L5L
sa(dp255
g1
I01
sg15
VReturn state information for pickling.
p256
sg5
g47
sg7
L2L
sa(dp257
g1
I01
sg15
Vhelper for pickle
p258
sg5
g50
sg7
L2L
sa(dp259
g1
I01
sg5
g52
sg7
L5L
sa(dp260
g1
I01
sg5
g54
sg7
L5L
sa(dp261
g1
I01
sg15
VSet state information for unpickling.
p262
sg5
g158
sg7
L2L
sa(dp263
g1
I01
sg15
V__sizeof__() -> int\u000asize of object in memory, in bytes
p264
sg5
g57
sg7
L2L
sa(dp265
g1
I01
sg5
g59
sg7
L5L
sa(dp266
g1
I01
sg15
VAbstract classes can override this to customize issubclass().\u000a\u000aThis is invoked early on by abc.ABCMeta.__subclasscheck__().\u000aIt should return True, False or NotImplemented.  If it returns\u000aNotImplemented, the normal algorithm is used.  Otherwise, it\u000aoverrides the normal algorithm (and the outcome is cached).\u000a
p267
sg5
g62
sg7
L2L
sa(dp268
g1
I01
sg15
Vchain.from_iterable(iterable) --> chain object\u000a\u000aAlternate chain() contructor taking a single iterable argument\u000athat evaluates lazily.
p269
sg5
Vfrom_iterable
p270
sg7
L2L
sasg15
Vchain(*iterables) --> chain object\u000a\u000aReturn a chain object whose .__next__() method returns elements from the\u000afirst iterable until it is exhausted, then elements from the next\u000aiterable, until all of the iterables are exhausted.
p271
sg5
Vchain
p272
sg7
L3L
sa(dp273
g1
I01
sg2
(lp274
(dp275
g1
I01
sg5
g11
sg7
L5L
sa(dp276
g1
I01
sg15
V__dir__() -> list\u000adefault dir() implementation
p277
sg5
g17
sg7
L2L
sa(dp278
g1
I01
sg5
g6
sg7
L5L
sa(dp279
g1
I01
sg5
g20
sg7
L5L
sa(dp280
g1
I01
sg15
Vdefault object formatter
p281
sg5
g23
sg7
L2L
sa(dp282
g1
I01
sg5
g25
sg7
L5L
sa(dp283
g1
I01
sg5
g27
sg7
L5L
sa(dp284
g1
I01
sg5
g29
sg7
L5L
sa(dp285
g1
I01
sg5
g31
sg7
L5L
sa(dp286
g1
I01
sg5
g33
sg7
L5L
sa(dp287
g1
I01
sg5
g106
sg7
L5L
sa(dp288
g1
I01
sg5
g35
sg7
L5L
sa(dp289
g1
I01
sg5
g37
sg7
L5L
sa(dp290
g1
I01
sg5
g41
sg7
L5L
sa(dp291
g1
I01
sg15
VCreate and return a new object.  See help(type) for accurate signature.
p292
sg5
g44
sg7
L2L
sa(dp293
g1
I01
sg5
g113
sg7
L5L
sa(dp294
g1
I01
sg15
VReturn state information for pickling.
p295
sg5
g47
sg7
L2L
sa(dp296
g1
I01
sg15
Vhelper for pickle
p297
sg5
g50
sg7
L2L
sa(dp298
g1
I01
sg5
g52
sg7
L5L
sa(dp299
g1
I01
sg5
g54
sg7
L5L
sa(dp300
g1
I01
sg15
VSet state information for unpickling.
p301
sg5
g158
sg7
L2L
sa(dp302
g1
I01
sg15
VReturns size in memory, in bytes.
p303
sg5
g57
sg7
L2L
sa(dp304
g1
I01
sg5
g59
sg7
L5L
sa(dp305
g1
I01
sg15
VAbstract classes can override this to customize issubclass().\u000a\u000aThis is invoked early on by abc.ABCMeta.__subclasscheck__().\u000aIt should return True, False or NotImplemented.  If it returns\u000aNotImplemented, the normal algorithm is used.  Otherwise, it\u000aoverrides the normal algorithm (and the outcome is cached).\u000a
p306
sg5
g62
sg7
L2L
sasg15
Vcombinations(iterable, r) --> combinations object\u000a\u000aReturn successive r-length combinations of elements in the iterable.\u000a\u000acombinations(range(4), 3) --> (0,1,2), (0,1,3), (0,2,3), (1,2,3)
p307
sg5
Vcombinations
p308
sg7
L3L
sa(dp309
g1
I01
sg2
(lp310
(dp311
g1
I01
sg5
g11
sg7
L5L
sa(dp312
g1
I01
sg15
V__dir__() -> list\u000adefault dir() implementation
p313
sg5
g17
sg7
L2L
sa(dp314
g1
I01
sg5
g6
sg7
L5L
sa(dp315
g1
I01
sg5
g20
sg7
L5L
sa(dp316
g1
I01
sg15
Vdefault object formatter
p317
sg5
g23
sg7
L2L
sa(dp318
g1
I01
sg5
g25
sg7
L5L
sa(dp319
g1
I01
sg5
g27
sg7
L5L
sa(dp320
g1
I01
sg5
g29
sg7
L5L
sa(dp321
g1
I01
sg5
g31
sg7
L5L
sa(dp322
g1
I01
sg5
g33
sg7
L5L
sa(dp323
g1
I01
sg5
g106
sg7
L5L
sa(dp324
g1
I01
sg5
g35
sg7
L5L
sa(dp325
g1
I01
sg5
g37
sg7
L5L
sa(dp326
g1
I01
sg5
g41
sg7
L5L
sa(dp327
g1
I01
sg15
VCreate and return a new object.  See help(type) for accurate signature.
p328
sg5
g44
sg7
L2L
sa(dp329
g1
I01
sg5
g113
sg7
L5L
sa(dp330
g1
I01
sg15
VReturn state information for pickling.
p331
sg5
g47
sg7
L2L
sa(dp332
g1
I01
sg15
Vhelper for pickle
p333
sg5
g50
sg7
L2L
sa(dp334
g1
I01
sg5
g52
sg7
L5L
sa(dp335
g1
I01
sg5
g54
sg7
L5L
sa(dp336
g1
I01
sg15
VSet state information for unpickling.
p337
sg5
g158
sg7
L2L
sa(dp338
g1
I01
sg15
VReturns size in memory, in bytes.
p339
sg5
g57
sg7
L2L
sa(dp340
g1
I01
sg5
g59
sg7
L5L
sa(dp341
g1
I01
sg15
VAbstract classes can override this to customize issubclass().\u000a\u000aThis is invoked early on by abc.ABCMeta.__subclasscheck__().\u000aIt should return True, False or NotImplemented.  If it returns\u000aNotImplemented, the normal algorithm is used.  Otherwise, it\u000aoverrides the normal algorithm (and the outcome is cached).\u000a
p342
sg5
g62
sg7
L2L
sasg15
Vcombinations_with_replacement(iterable, r) --> combinations_with_replacement object\u000a\u000aReturn successive r-length combinations of elements in the iterable\u000aallowing individual elements to have successive repeats.\u000acombinations_with_replacement('ABC', 2) --> AA AB AC BB BC CC
p343
sg5
Vcombinations_with_replacement
p344
sg7
L3L
sa(dp345
g1
I01
sg2
(lp346
(dp347
g1
I01
sg5
g11
sg7
L5L
sa(dp348
g1
I01
sg15
V__dir__() -> list\u000adefault dir() implementation
p349
sg5
g17
sg7
L2L
sa(dp350
g1
I01
sg5
g6
sg7
L5L
sa(dp351
g1
I01
sg5
g20
sg7
L5L
sa(dp352
g1
I01
sg15
Vdefault object formatter
p353
sg5
g23
sg7
L2L
sa(dp354
g1
I01
sg5
g25
sg7
L5L
sa(dp355
g1
I01
sg5
g27
sg7
L5L
sa(dp356
g1
I01
sg5
g29
sg7
L5L
sa(dp357
g1
I01
sg5
g31
sg7
L5L
sa(dp358
g1
I01
sg5
g33
sg7
L5L
sa(dp359
g1
I01
sg5
g106
sg7
L5L
sa(dp360
g1
I01
sg5
g35
sg7
L5L
sa(dp361
g1
I01
sg5
g37
sg7
L5L
sa(dp362
g1
I01
sg5
g41
sg7
L5L
sa(dp363
g1
I01
sg15
VCreate and return a new object.  See help(type) for accurate signature.
p364
sg5
g44
sg7
L2L
sa(dp365
g1
I01
sg5
g113
sg7
L5L
sa(dp366
g1
I01
sg15
VReturn state information for pickling.
p367
sg5
g47
sg7
L2L
sa(dp368
g1
I01
sg15
Vhelper for pickle
p369
sg5
g50
sg7
L2L
sa(dp370
g1
I01
sg5
g52
sg7
L5L
sa(dp371
g1
I01
sg5
g54
sg7
L5L
sa(dp372
g1
I01
sg15
V__sizeof__() -> int\u000asize of object in memory, in bytes
p373
sg5
g57
sg7
L2L
sa(dp374
g1
I01
sg5
g59
sg7
L5L
sa(dp375
g1
I01
sg15
VAbstract classes can override this to customize issubclass().\u000a\u000aThis is invoked early on by abc.ABCMeta.__subclasscheck__().\u000aIt should return True, False or NotImplemented.  If it returns\u000aNotImplemented, the normal algorithm is used.  Otherwise, it\u000aoverrides the normal algorithm (and the outcome is cached).\u000a
p376
sg5
g62
sg7
L2L
sasg15
Vcompress(data, selectors) --> iterator over selected data\u000a\u000aReturn data elements corresponding to true selector elements.\u000aForms a shorter iterator from selected data elements using the\u000aselectors to choose the data elements.
p377
sg5
Vcompress
p378
sg7
L3L
sa(dp379
g1
I01
sg2
(lp380
(dp381
g1
I01
sg5
g11
sg7
L5L
sa(dp382
g1
I01
sg15
V__dir__() -> list\u000adefault dir() implementation
p383
sg5
g17
sg7
L2L
sa(dp384
g1
I01
sg5
g6
sg7
L5L
sa(dp385
g1
I01
sg5
g20
sg7
L5L
sa(dp386
g1
I01
sg15
Vdefault object formatter
p387
sg5
g23
sg7
L2L
sa(dp388
g1
I01
sg5
g25
sg7
L5L
sa(dp389
g1
I01
sg5
g27
sg7
L5L
sa(dp390
g1
I01
sg5
g29
sg7
L5L
sa(dp391
g1
I01
sg5
g31
sg7
L5L
sa(dp392
g1
I01
sg5
g33
sg7
L5L
sa(dp393
g1
I01
sg5
g106
sg7
L5L
sa(dp394
g1
I01
sg5
g35
sg7
L5L
sa(dp395
g1
I01
sg5
g37
sg7
L5L
sa(dp396
g1
I01
sg5
g41
sg7
L5L
sa(dp397
g1
I01
sg15
VCreate and return a new object.  See help(type) for accurate signature.
p398
sg5
g44
sg7
L2L
sa(dp399
g1
I01
sg5
g113
sg7
L5L
sa(dp400
g1
I01
sg15
VReturn state information for pickling.
p401
sg5
g47
sg7
L2L
sa(dp402
g1
I01
sg15
Vhelper for pickle
p403
sg5
g50
sg7
L2L
sa(dp404
g1
I01
sg5
g52
sg7
L5L
sa(dp405
g1
I01
sg5
g54
sg7
L5L
sa(dp406
g1
I01
sg15
V__sizeof__() -> int\u000asize of object in memory, in bytes
p407
sg5
g57
sg7
L2L
sa(dp408
g1
I01
sg5
g59
sg7
L5L
sa(dp409
g1
I01
sg15
VAbstract classes can override this to customize issubclass().\u000a\u000aThis is invoked early on by abc.ABCMeta.__subclasscheck__().\u000aIt should return True, False or NotImplemented.  If it returns\u000aNotImplemented, the normal algorithm is used.  Otherwise, it\u000aoverrides the normal algorithm (and the outcome is cached).\u000a
p410
sg5
g62
sg7
L2L
sasg15
Vcount(start=0, step=1) --> count object\u000a\u000aReturn a count object whose .__next__() method returns consecutive values.\u000aEquivalent to:\u000a\u000a    def count(firstval=0, step=1):\u000a        x = firstval\u000a        while 1:\u000a            yield x\u000a            x += step\u000a
p411
sg5
Vcount
p412
sg7
L3L
sa(dp413
g1
I01
sg2
(lp414
(dp415
g1
I01
sg5
g11
sg7
L5L
sa(dp416
g1
I01
sg15
V__dir__() -> list\u000adefault dir() implementation
p417
sg5
g17
sg7
L2L
sa(dp418
g1
I01
sg5
g6
sg7
L5L
sa(dp419
g1
I01
sg5
g20
sg7
L5L
sa(dp420
g1
I01
sg15
Vdefault object formatter
p421
sg5
g23
sg7
L2L
sa(dp422
g1
I01
sg5
g25
sg7
L5L
sa(dp423
g1
I01
sg5
g27
sg7
L5L
sa(dp424
g1
I01
sg5
g29
sg7
L5L
sa(dp425
g1
I01
sg5
g31
sg7
L5L
sa(dp426
g1
I01
sg5
g33
sg7
L5L
sa(dp427
g1
I01
sg5
g106
sg7
L5L
sa(dp428
g1
I01
sg5
g35
sg7
L5L
sa(dp429
g1
I01
sg5
g37
sg7
L5L
sa(dp430
g1
I01
sg5
g41
sg7
L5L
sa(dp431
g1
I01
sg15
VCreate and return a new object.  See help(type) for accurate signature.
p432
sg5
g44
sg7
L2L
sa(dp433
g1
I01
sg5
g113
sg7
L5L
sa(dp434
g1
I01
sg15
VReturn state information for pickling.
p435
sg5
g47
sg7
L2L
sa(dp436
g1
I01
sg15
Vhelper for pickle
p437
sg5
g50
sg7
L2L
sa(dp438
g1
I01
sg5
g52
sg7
L5L
sa(dp439
g1
I01
sg5
g54
sg7
L5L
sa(dp440
g1
I01
sg15
VSet state information for unpickling.
p441
sg5
g158
sg7
L2L
sa(dp442
g1
I01
sg15
V__sizeof__() -> int\u000asize of object in memory, in bytes
p443
sg5
g57
sg7
L2L
sa(dp444
g1
I01
sg5
g59
sg7
L5L
sa(dp445
g1
I01
sg15
VAbstract classes can override this to customize issubclass().\u000a\u000aThis is invoked early on by abc.ABCMeta.__subclasscheck__().\u000aIt should return True, False or NotImplemented.  If it returns\u000aNotImplemented, the normal algorithm is used.  Otherwise, it\u000aoverrides the normal algorithm (and the outcome is cached).\u000a
p446
sg5
g62
sg7
L2L
sasg15
Vcycle(iterable) --> cycle object\u000a\u000aReturn elements from the iterable until it is exhausted.\u000aThen repeat the sequence indefinitely.
p447
sg5
Vcycle
p448
sg7
L3L
sa(dp449
g1
I01
sg2
(lp450
(dp451
g1
I01
sg5
g11
sg7
L5L
sa(dp452
g1
I01
sg15
V__dir__() -> list\u000adefault dir() implementation
p453
sg5
g17
sg7
L2L
sa(dp454
g1
I01
sg5
g6
sg7
L5L
sa(dp455
g1
I01
sg5
g20
sg7
L5L
sa(dp456
g1
I01
sg15
Vdefault object formatter
p457
sg5
g23
sg7
L2L
sa(dp458
g1
I01
sg5
g25
sg7
L5L
sa(dp459
g1
I01
sg5
g27
sg7
L5L
sa(dp460
g1
I01
sg5
g29
sg7
L5L
sa(dp461
g1
I01
sg5
g31
sg7
L5L
sa(dp462
g1
I01
sg5
g33
sg7
L5L
sa(dp463
g1
I01
sg5
g106
sg7
L5L
sa(dp464
g1
I01
sg5
g35
sg7
L5L
sa(dp465
g1
I01
sg5
g37
sg7
L5L
sa(dp466
g1
I01
sg5
g41
sg7
L5L
sa(dp467
g1
I01
sg15
VCreate and return a new object.  See help(type) for accurate signature.
p468
sg5
g44
sg7
L2L
sa(dp469
g1
I01
sg5
g113
sg7
L5L
sa(dp470
g1
I01
sg15
VReturn state information for pickling.
p471
sg5
g47
sg7
L2L
sa(dp472
g1
I01
sg15
Vhelper for pickle
p473
sg5
g50
sg7
L2L
sa(dp474
g1
I01
sg5
g52
sg7
L5L
sa(dp475
g1
I01
sg5
g54
sg7
L5L
sa(dp476
g1
I01
sg15
VSet state information for unpickling.
p477
sg5
g158
sg7
L2L
sa(dp478
g1
I01
sg15
V__sizeof__() -> int\u000asize of object in memory, in bytes
p479
sg5
g57
sg7
L2L
sa(dp480
g1
I01
sg5
g59
sg7
L5L
sa(dp481
g1
I01
sg15
VAbstract classes can override this to customize issubclass().\u000a\u000aThis is invoked early on by abc.ABCMeta.__subclasscheck__().\u000aIt should return True, False or NotImplemented.  If it returns\u000aNotImplemented, the normal algorithm is used.  Otherwise, it\u000aoverrides the normal algorithm (and the outcome is cached).\u000a
p482
sg5
g62
sg7
L2L
sasg15
Vdropwhile(predicate, iterable) --> dropwhile object\u000a\u000aDrop items from the iterable while predicate(item) is true.\u000aAfterwards, return every element until the iterable is exhausted.
p483
sg5
Vdropwhile
p484
sg7
L3L
sa(dp485
g1
I01
sg2
(lp486
(dp487
g1
I01
sg5
g11
sg7
L5L
sa(dp488
g1
I01
sg15
V__dir__() -> list\u000adefault dir() implementation
p489
sg5
g17
sg7
L2L
sa(dp490
g1
I01
sg5
g6
sg7
L5L
sa(dp491
g1
I01
sg5
g20
sg7
L5L
sa(dp492
g1
I01
sg15
Vdefault object formatter
p493
sg5
g23
sg7
L2L
sa(dp494
g1
I01
sg5
g25
sg7
L5L
sa(dp495
g1
I01
sg5
g27
sg7
L5L
sa(dp496
g1
I01
sg5
g29
sg7
L5L
sa(dp497
g1
I01
sg5
g31
sg7
L5L
sa(dp498
g1
I01
sg5
g33
sg7
L5L
sa(dp499
g1
I01
sg5
g106
sg7
L5L
sa(dp500
g1
I01
sg5
g35
sg7
L5L
sa(dp501
g1
I01
sg5
g37
sg7
L5L
sa(dp502
g1
I01
sg5
g41
sg7
L5L
sa(dp503
g1
I01
sg15
VCreate and return a new object.  See help(type) for accurate signature.
p504
sg5
g44
sg7
L2L
sa(dp505
g1
I01
sg5
g113
sg7
L5L
sa(dp506
g1
I01
sg15
VReturn state information for pickling.
p507
sg5
g47
sg7
L2L
sa(dp508
g1
I01
sg15
Vhelper for pickle
p509
sg5
g50
sg7
L2L
sa(dp510
g1
I01
sg5
g52
sg7
L5L
sa(dp511
g1
I01
sg5
g54
sg7
L5L
sa(dp512
g1
I01
sg15
V__sizeof__() -> int\u000asize of object in memory, in bytes
p513
sg5
g57
sg7
L2L
sa(dp514
g1
I01
sg5
g59
sg7
L5L
sa(dp515
g1
I01
sg15
VAbstract classes can override this to customize issubclass().\u000a\u000aThis is invoked early on by abc.ABCMeta.__subclasscheck__().\u000aIt should return True, False or NotImplemented.  If it returns\u000aNotImplemented, the normal algorithm is used.  Otherwise, it\u000aoverrides the normal algorithm (and the outcome is cached).\u000a
p516
sg5
g62
sg7
L2L
sasg15
Vfilterfalse(function or None, sequence) --> filterfalse object\u000a\u000aReturn those items of sequence for which function(item) is false.\u000aIf function is None, return the items that are false.
p517
sg5
Vfilterfalse
p518
sg7
L3L
sa(dp519
g1
I01
sg2
(lp520
(dp521
g1
I01
sg5
g11
sg7
L5L
sa(dp522
g1
I01
sg15
V__dir__() -> list\u000adefault dir() implementation
p523
sg5
g17
sg7
L2L
sa(dp524
g1
I01
sg5
g6
sg7
L5L
sa(dp525
g1
I01
sg5
g20
sg7
L5L
sa(dp526
g1
I01
sg15
Vdefault object formatter
p527
sg5
g23
sg7
L2L
sa(dp528
g1
I01
sg5
g25
sg7
L5L
sa(dp529
g1
I01
sg5
g27
sg7
L5L
sa(dp530
g1
I01
sg5
g29
sg7
L5L
sa(dp531
g1
I01
sg5
g31
sg7
L5L
sa(dp532
g1
I01
sg5
g33
sg7
L5L
sa(dp533
g1
I01
sg5
g106
sg7
L5L
sa(dp534
g1
I01
sg5
g35
sg7
L5L
sa(dp535
g1
I01
sg5
g37
sg7
L5L
sa(dp536
g1
I01
sg5
g41
sg7
L5L
sa(dp537
g1
I01
sg15
VCreate and return a new object.  See help(type) for accurate signature.
p538
sg5
g44
sg7
L2L
sa(dp539
g1
I01
sg5
g113
sg7
L5L
sa(dp540
g1
I01
sg15
VReturn state information for pickling.
p541
sg5
g47
sg7
L2L
sa(dp542
g1
I01
sg15
Vhelper for pickle
p543
sg5
g50
sg7
L2L
sa(dp544
g1
I01
sg5
g52
sg7
L5L
sa(dp545
g1
I01
sg5
g54
sg7
L5L
sa(dp546
g1
I01
sg15
VSet state information for unpickling.
p547
sg5
g158
sg7
L2L
sa(dp548
g1
I01
sg15
V__sizeof__() -> int\u000asize of object in memory, in bytes
p549
sg5
g57
sg7
L2L
sa(dp550
g1
I01
sg5
g59
sg7
L5L
sa(dp551
g1
I01
sg15
VAbstract classes can override this to customize issubclass().\u000a\u000aThis is invoked early on by abc.ABCMeta.__subclasscheck__().\u000aIt should return True, False or NotImplemented.  If it returns\u000aNotImplemented, the normal algorithm is used.  Otherwise, it\u000aoverrides the normal algorithm (and the outcome is cached).\u000a
p552
sg5
g62
sg7
L2L
sasg15
Vgroupby(iterable[, keyfunc]) -> create an iterator which returns\u000a(key, sub-iterator) grouped by each value of key(value).\u000a
p553
sg5
Vgroupby
p554
sg7
L3L
sa(dp555
g1
I01
sg2
(lp556
(dp557
g1
I01
sg5
g11
sg7
L5L
sa(dp558
g1
I01
sg15
V__dir__() -> list\u000adefault dir() implementation
p559
sg5
g17
sg7
L2L
sa(dp560
g1
I01
sg5
g6
sg7
L5L
sa(dp561
g1
I01
sg5
g20
sg7
L5L
sa(dp562
g1
I01
sg15
Vdefault object formatter
p563
sg5
g23
sg7
L2L
sa(dp564
g1
I01
sg5
g25
sg7
L5L
sa(dp565
g1
I01
sg5
g27
sg7
L5L
sa(dp566
g1
I01
sg5
g29
sg7
L5L
sa(dp567
g1
I01
sg5
g31
sg7
L5L
sa(dp568
g1
I01
sg5
g33
sg7
L5L
sa(dp569
g1
I01
sg5
g106
sg7
L5L
sa(dp570
g1
I01
sg5
g35
sg7
L5L
sa(dp571
g1
I01
sg5
g37
sg7
L5L
sa(dp572
g1
I01
sg5
g41
sg7
L5L
sa(dp573
g1
I01
sg15
VCreate and return a new object.  See help(type) for accurate signature.
p574
sg5
g44
sg7
L2L
sa(dp575
g1
I01
sg5
g113
sg7
L5L
sa(dp576
g1
I01
sg15
VReturn state information for pickling.
p577
sg5
g47
sg7
L2L
sa(dp578
g1
I01
sg15
Vhelper for pickle
p579
sg5
g50
sg7
L2L
sa(dp580
g1
I01
sg5
g52
sg7
L5L
sa(dp581
g1
I01
sg5
g54
sg7
L5L
sa(dp582
g1
I01
sg15
VSet state information for unpickling.
p583
sg5
g158
sg7
L2L
sa(dp584
g1
I01
sg15
V__sizeof__() -> int\u000asize of object in memory, in bytes
p585
sg5
g57
sg7
L2L
sa(dp586
g1
I01
sg5
g59
sg7
L5L
sa(dp587
g1
I01
sg15
VAbstract classes can override this to customize issubclass().\u000a\u000aThis is invoked early on by abc.ABCMeta.__subclasscheck__().\u000aIt should return True, False or NotImplemented.  If it returns\u000aNotImplemented, the normal algorithm is used.  Otherwise, it\u000aoverrides the normal algorithm (and the outcome is cached).\u000a
p588
sg5
g62
sg7
L2L
sasg15
Vislice(iterable, stop) --> islice object\u000aislice(iterable, start, stop[, step]) --> islice object\u000a\u000aReturn an iterator whose next() method returns selected values from an\u000aiterable.  If start is specified, will skip all preceding elements;\u000aotherwise, start defaults to zero.  Step defaults to one.  If\u000aspecified as another value, step determines how many values are \u000askipped between successive calls.  Works like a slice() on a list\u000abut returns an iterator.
p589
sg5
Vislice
p590
sg7
L3L
sa(dp591
g1
I01
sg2
(lp592
(dp593
g1
I01
sg5
g11
sg7
L5L
sa(dp594
g1
I01
sg15
V__dir__() -> list\u000adefault dir() implementation
p595
sg5
g17
sg7
L2L
sa(dp596
g1
I01
sg5
g6
sg7
L5L
sa(dp597
g1
I01
sg5
g20
sg7
L5L
sa(dp598
g1
I01
sg15
Vdefault object formatter
p599
sg5
g23
sg7
L2L
sa(dp600
g1
I01
sg5
g25
sg7
L5L
sa(dp601
g1
I01
sg5
g27
sg7
L5L
sa(dp602
g1
I01
sg5
g29
sg7
L5L
sa(dp603
g1
I01
sg5
g31
sg7
L5L
sa(dp604
g1
I01
sg5
g33
sg7
L5L
sa(dp605
g1
I01
sg5
g106
sg7
L5L
sa(dp606
g1
I01
sg5
g35
sg7
L5L
sa(dp607
g1
I01
sg5
g37
sg7
L5L
sa(dp608
g1
I01
sg5
g41
sg7
L5L
sa(dp609
g1
I01
sg15
VCreate and return a new object.  See help(type) for accurate signature.
p610
sg5
g44
sg7
L2L
sa(dp611
g1
I01
sg5
g113
sg7
L5L
sa(dp612
g1
I01
sg15
VReturn state information for pickling.
p613
sg5
g47
sg7
L2L
sa(dp614
g1
I01
sg15
Vhelper for pickle
p615
sg5
g50
sg7
L2L
sa(dp616
g1
I01
sg5
g52
sg7
L5L
sa(dp617
g1
I01
sg5
g54
sg7
L5L
sa(dp618
g1
I01
sg15
VSet state information for unpickling.
p619
sg5
g158
sg7
L2L
sa(dp620
g1
I01
sg15
VReturns size in memory, in bytes.
p621
sg5
g57
sg7
L2L
sa(dp622
g1
I01
sg5
g59
sg7
L5L
sa(dp623
g1
I01
sg15
VAbstract classes can override this to customize issubclass().\u000a\u000aThis is invoked early on by abc.ABCMeta.__subclasscheck__().\u000aIt should return True, False or NotImplemented.  If it returns\u000aNotImplemented, the normal algorithm is used.  Otherwise, it\u000aoverrides the normal algorithm (and the outcome is cached).\u000a
p624
sg5
g62
sg7
L2L
sasg15
Vpermutations(iterable[, r]) --> permutations object\u000a\u000aReturn successive r-length permutations of elements in the iterable.\u000a\u000apermutations(range(3), 2) --> (0,1), (0,2), (1,0), (1,2), (2,0), (2,1)
p625
sg5
Vpermutations
p626
sg7
L3L
sa(dp627
g1
I01
sg2
(lp628
(dp629
g1
I01
sg5
g11
sg7
L5L
sa(dp630
g1
I01
sg15
V__dir__() -> list\u000adefault dir() implementation
p631
sg5
g17
sg7
L2L
sa(dp632
g1
I01
sg5
g6
sg7
L5L
sa(dp633
g1
I01
sg5
g20
sg7
L5L
sa(dp634
g1
I01
sg15
Vdefault object formatter
p635
sg5
g23
sg7
L2L
sa(dp636
g1
I01
sg5
g25
sg7
L5L
sa(dp637
g1
I01
sg5
g27
sg7
L5L
sa(dp638
g1
I01
sg5
g29
sg7
L5L
sa(dp639
g1
I01
sg5
g31
sg7
L5L
sa(dp640
g1
I01
sg5
g33
sg7
L5L
sa(dp641
g1
I01
sg5
g106
sg7
L5L
sa(dp642
g1
I01
sg5
g35
sg7
L5L
sa(dp643
g1
I01
sg5
g37
sg7
L5L
sa(dp644
g1
I01
sg5
g41
sg7
L5L
sa(dp645
g1
I01
sg15
VCreate and return a new object.  See help(type) for accurate signature.
p646
sg5
g44
sg7
L2L
sa(dp647
g1
I01
sg5
g113
sg7
L5L
sa(dp648
g1
I01
sg15
VReturn state information for pickling.
p649
sg5
g47
sg7
L2L
sa(dp650
g1
I01
sg15
Vhelper for pickle
p651
sg5
g50
sg7
L2L
sa(dp652
g1
I01
sg5
g52
sg7
L5L
sa(dp653
g1
I01
sg5
g54
sg7
L5L
sa(dp654
g1
I01
sg15
VSet state information for unpickling.
p655
sg5
g158
sg7
L2L
sa(dp656
g1
I01
sg15
VReturns size in memory, in bytes.
p657
sg5
g57
sg7
L2L
sa(dp658
g1
I01
sg5
g59
sg7
L5L
sa(dp659
g1
I01
sg15
VAbstract classes can override this to customize issubclass().\u000a\u000aThis is invoked early on by abc.ABCMeta.__subclasscheck__().\u000aIt should return True, False or NotImplemented.  If it returns\u000aNotImplemented, the normal algorithm is used.  Otherwise, it\u000aoverrides the normal algorithm (and the outcome is cached).\u000a
p660
sg5
g62
sg7
L2L
sasg15
Vproduct(*iterables, repeat=1) --> product object\u000a\u000aCartesian product of input iterables.  Equivalent to nested for-loops.\u000a\u000aFor example, product(A, B) returns the same as:  ((x,y) for x in A for y in B).\u000aThe leftmost iterators are in the outermost for-loop, so the output tuples\u000acycle in a manner similar to an odometer (with the rightmost element changing\u000aon every iteration).\u000a\u000aTo compute the product of an iterable with itself, specify the number\u000aof repetitions with the optional repeat keyword argument. For example,\u000aproduct(A, repeat=4) means the same as product(A, A, A, A).\u000a\u000aproduct('ab', range(3)) --> ('a',0) ('a',1) ('a',2) ('b',0) ('b',1) ('b',2)\u000aproduct((0,1), (0,1), (0,1)) --> (0,0,0) (0,0,1) (0,1,0) (0,1,1) (1,0,0) ...
p661
sg5
Vproduct
p662
sg7
L3L
sa(dp663
g1
I01
sg2
(lp664
(dp665
g1
I01
sg5
g11
sg7
L5L
sa(dp666
g1
I01
sg15
V__dir__() -> list\u000adefault dir() implementation
p667
sg5
g17
sg7
L2L
sa(dp668
g1
I01
sg5
g6
sg7
L5L
sa(dp669
g1
I01
sg5
g20
sg7
L5L
sa(dp670
g1
I01
sg15
Vdefault object formatter
p671
sg5
g23
sg7
L2L
sa(dp672
g1
I01
sg5
g25
sg7
L5L
sa(dp673
g1
I01
sg5
g27
sg7
L5L
sa(dp674
g1
I01
sg5
g29
sg7
L5L
sa(dp675
g1
I01
sg5
g31
sg7
L5L
sa(dp676
g1
I01
sg5
g33
sg7
L5L
sa(dp677
g1
I01
sg5
g106
sg7
L5L
sa(dp678
g1
I01
sg5
g35
sg7
L5L
sa(dp679
g1
I01
sg15
VPrivate method returning an estimate of len(list(it)).
p680
sg5
V__length_hint__
p681
sg7
L2L
sa(dp682
g1
I01
sg5
g37
sg7
L5L
sa(dp683
g1
I01
sg5
g41
sg7
L5L
sa(dp684
g1
I01
sg15
VCreate and return a new object.  See help(type) for accurate signature.
p685
sg5
g44
sg7
L2L
sa(dp686
g1
I01
sg5
g113
sg7
L5L
sa(dp687
g1
I01
sg15
VReturn state information for pickling.
p688
sg5
g47
sg7
L2L
sa(dp689
g1
I01
sg15
Vhelper for pickle
p690
sg5
g50
sg7
L2L
sa(dp691
g1
I01
sg5
g52
sg7
L5L
sa(dp692
g1
I01
sg5
g54
sg7
L5L
sa(dp693
g1
I01
sg15
V__sizeof__() -> int\u000asize of object in memory, in bytes
p694
sg5
g57
sg7
L2L
sa(dp695
g1
I01
sg5
g59
sg7
L5L
sa(dp696
g1
I01
sg15
VAbstract classes can override this to customize issubclass().\u000a\u000aThis is invoked early on by abc.ABCMeta.__subclasscheck__().\u000aIt should return True, False or NotImplemented.  If it returns\u000aNotImplemented, the normal algorithm is used.  Otherwise, it\u000aoverrides the normal algorithm (and the outcome is cached).\u000a
p697
sg5
g62
sg7
L2L
sasg15
Vrepeat(object [,times]) -> create an iterator which returns the object\u000afor the specified number of times.  If not specified, returns the object\u000aendlessly.
p698
sg5
Vrepeat
p699
sg7
L3L
sa(dp700
g1
I01
sg2
(lp701
(dp702
g1
I01
sg5
g11
sg7
L5L
sa(dp703
g1
I01
sg15
V__dir__() -> list\u000adefault dir() implementation
p704
sg5
g17
sg7
L2L
sa(dp705
g1
I01
sg5
g6
sg7
L5L
sa(dp706
g1
I01
sg5
g20
sg7
L5L
sa(dp707
g1
I01
sg15
Vdefault object formatter
p708
sg5
g23
sg7
L2L
sa(dp709
g1
I01
sg5
g25
sg7
L5L
sa(dp710
g1
I01
sg5
g27
sg7
L5L
sa(dp711
g1
I01
sg5
g29
sg7
L5L
sa(dp712
g1
I01
sg5
g31
sg7
L5L
sa(dp713
g1
I01
sg5
g33
sg7
L5L
sa(dp714
g1
I01
sg5
g106
sg7
L5L
sa(dp715
g1
I01
sg5
g35
sg7
L5L
sa(dp716
g1
I01
sg5
g37
sg7
L5L
sa(dp717
g1
I01
sg5
g41
sg7
L5L
sa(dp718
g1
I01
sg15
VCreate and return a new object.  See help(type) for accurate signature.
p719
sg5
g44
sg7
L2L
sa(dp720
g1
I01
sg5
g113
sg7
L5L
sa(dp721
g1
I01
sg15
VReturn state information for pickling.
p722
sg5
g47
sg7
L2L
sa(dp723
g1
I01
sg15
Vhelper for pickle
p724
sg5
g50
sg7
L2L
sa(dp725
g1
I01
sg5
g52
sg7
L5L
sa(dp726
g1
I01
sg5
g54
sg7
L5L
sa(dp727
g1
I01
sg15
V__sizeof__() -> int\u000asize of object in memory, in bytes
p728
sg5
g57
sg7
L2L
sa(dp729
g1
I01
sg5
g59
sg7
L5L
sa(dp730
g1
I01
sg15
VAbstract classes can override this to customize issubclass().\u000a\u000aThis is invoked early on by abc.ABCMeta.__subclasscheck__().\u000aIt should return True, False or NotImplemented.  If it returns\u000aNotImplemented, the normal algorithm is used.  Otherwise, it\u000aoverrides the normal algorithm (and the outcome is cached).\u000a
p731
sg5
g62
sg7
L2L
sasg15
Vstarmap(function, sequence) --> starmap object\u000a\u000aReturn an iterator whose values are returned from the function evaluated\u000awith an argument tuple taken from the given sequence.
p732
sg5
Vstarmap
p733
sg7
L3L
sa(dp734
g1
I01
sg2
(lp735
(dp736
g1
I01
sg5
g11
sg7
L5L
sa(dp737
g1
I01
sg15
V__dir__() -> list\u000adefault dir() implementation
p738
sg5
g17
sg7
L2L
sa(dp739
g1
I01
sg5
g6
sg7
L5L
sa(dp740
g1
I01
sg5
g20
sg7
L5L
sa(dp741
g1
I01
sg15
Vdefault object formatter
p742
sg5
g23
sg7
L2L
sa(dp743
g1
I01
sg5
g25
sg7
L5L
sa(dp744
g1
I01
sg5
g27
sg7
L5L
sa(dp745
g1
I01
sg5
g29
sg7
L5L
sa(dp746
g1
I01
sg5
g31
sg7
L5L
sa(dp747
g1
I01
sg5
g33
sg7
L5L
sa(dp748
g1
I01
sg5
g106
sg7
L5L
sa(dp749
g1
I01
sg5
g35
sg7
L5L
sa(dp750
g1
I01
sg5
g37
sg7
L5L
sa(dp751
g1
I01
sg5
g41
sg7
L5L
sa(dp752
g1
I01
sg15
VCreate and return a new object.  See help(type) for accurate signature.
p753
sg5
g44
sg7
L2L
sa(dp754
g1
I01
sg5
g113
sg7
L5L
sa(dp755
g1
I01
sg15
VReturn state information for pickling.
p756
sg5
g47
sg7
L2L
sa(dp757
g1
I01
sg15
Vhelper for pickle
p758
sg5
g50
sg7
L2L
sa(dp759
g1
I01
sg5
g52
sg7
L5L
sa(dp760
g1
I01
sg5
g54
sg7
L5L
sa(dp761
g1
I01
sg15
VSet state information for unpickling.
p762
sg5
g158
sg7
L2L
sa(dp763
g1
I01
sg15
V__sizeof__() -> int\u000asize of object in memory, in bytes
p764
sg5
g57
sg7
L2L
sa(dp765
g1
I01
sg5
g59
sg7
L5L
sa(dp766
g1
I01
sg15
VAbstract classes can override this to customize issubclass().\u000a\u000aThis is invoked early on by abc.ABCMeta.__subclasscheck__().\u000aIt should return True, False or NotImplemented.  If it returns\u000aNotImplemented, the normal algorithm is used.  Otherwise, it\u000aoverrides the normal algorithm (and the outcome is cached).\u000a
p767
sg5
g62
sg7
L2L
sasg15
Vtakewhile(predicate, iterable) --> takewhile object\u000a\u000aReturn successive entries from an iterable as long as the \u000apredicate evaluates to true for each entry.
p768
sg5
Vtakewhile
p769
sg7
L3L
sa(dp770
g1
I01
sg15
Vtee(iterable, n=2) --> tuple of n independent iterators.
p771
sg5
Vtee
p772
sg7
L2L
sa(dp773
g1
I01
sg2
(lp774
(dp775
g1
I01
sg5
g11
sg7
L5L
sa(dp776
g1
I01
sg15
V__dir__() -> list\u000adefault dir() implementation
p777
sg5
g17
sg7
L2L
sa(dp778
g1
I01
sg5
g6
sg7
L5L
sa(dp779
g1
I01
sg5
g20
sg7
L5L
sa(dp780
g1
I01
sg15
Vdefault object formatter
p781
sg5
g23
sg7
L2L
sa(dp782
g1
I01
sg5
g25
sg7
L5L
sa(dp783
g1
I01
sg5
g27
sg7
L5L
sa(dp784
g1
I01
sg5
g29
sg7
L5L
sa(dp785
g1
I01
sg5
g31
sg7
L5L
sa(dp786
g1
I01
sg5
g33
sg7
L5L
sa(dp787
g1
I01
sg5
g106
sg7
L5L
sa(dp788
g1
I01
sg5
g35
sg7
L5L
sa(dp789
g1
I01
sg5
g37
sg7
L5L
sa(dp790
g1
I01
sg5
g41
sg7
L5L
sa(dp791
g1
I01
sg15
VCreate and return a new object.  See help(type) for accurate signature.
p792
sg5
g44
sg7
L2L
sa(dp793
g1
I01
sg5
g113
sg7
L5L
sa(dp794
g1
I01
sg15
VReturn state information for pickling.
p795
sg5
g47
sg7
L2L
sa(dp796
g1
I01
sg15
Vhelper for pickle
p797
sg5
g50
sg7
L2L
sa(dp798
g1
I01
sg5
g52
sg7
L5L
sa(dp799
g1
I01
sg5
g54
sg7
L5L
sa(dp800
g1
I01
sg15
VSet state information for unpickling.
p801
sg5
g158
sg7
L2L
sa(dp802
g1
I01
sg15
V__sizeof__() -> int\u000asize of object in memory, in bytes
p803
sg5
g57
sg7
L2L
sa(dp804
g1
I01
sg5
g59
sg7
L5L
sa(dp805
g1
I01
sg15
VAbstract classes can override this to customize issubclass().\u000a\u000aThis is invoked early on by abc.ABCMeta.__subclasscheck__().\u000aIt should return True, False or NotImplemented.  If it returns\u000aNotImplemented, the normal algorithm is used.  Otherwise, it\u000aoverrides the normal algorithm (and the outcome is cached).\u000a
p806
sg5
g62
sg7
L2L
sasg15
Vzip_longest(iter1 [,iter2 [...]], [fillvalue=None]) --> zip_longest object\u000a\u000aReturn a zip_longest object whose .__next__() method returns a tuple where\u000athe i-th element comes from the i-th iterable argument.  The .__next__()\u000amethod continues until the longest iterable in the argument sequence\u000ais exhausted and then it raises StopIteration.  When the shorter iterables\u000aare exhausted, the fillvalue is substituted in their place.  The fillvalue\u000adefaults to None or can be specified by a keyword argument.\u000a
p807
sg5
Vzip_longest
p808
sg7
L3L
sasg15
VFunctional tools for creating and using iterators.\u000a\u000aInfinite iterators:\u000acount(start=0, step=1) --> start, start+step, start+2*step, ...\u000acycle(p) --> p0, p1, ... plast, p0, p1, ...\u000arepeat(elem [,n]) --> elem, elem, elem, ... endlessly or up to n times\u000a\u000aIterators terminating on the shortest input sequence:\u000aaccumulate(p[, func]) --> p0, p0+p1, p0+p1+p2\u000achain(p, q, ...) --> p0, p1, ... plast, q0, q1, ... \u000achain.from_iterable([p, q, ...]) --> p0, p1, ... plast, q0, q1, ... \u000acompress(data, selectors) --> (d[0] if s[0]), (d[1] if s[1]), ...\u000adropwhile(pred, seq) --> seq[n], seq[n+1], starting when pred fails\u000agroupby(iterable[, keyfunc]) --> sub-iterators grouped by value of keyfunc(v)\u000afilterfalse(pred, seq) --> elements of seq where pred(elem) is False\u000aislice(seq, [start,] stop [, step]) --> elements from\u000a       seq[start:stop:step]\u000astarmap(fun, seq) --> fun(*seq[0]), fun(*seq[1]), ...\u000atee(it, n=2) --> (it1, it2 , ... itn) splits one iterator into n\u000atakewhile(pred, seq) --> seq[0], seq[1], until pred fails\u000azip_longest(p, q, ...) --> (p[0], q[0]), (p[1], q[1]), ... \u000a\u000aCombinatoric generators:\u000aproduct(p, q, ... [repeat=1]) --> cartesian product\u000apermutations(p[, r])\u000acombinations(p, r)\u000acombinations_with_replacement(p, r)\u000a
p809
sg5
Vitertools
p810
sg7
L1L
s.