(dp0
Vis_builtin
p1
I01
sVchilds
p2
(lp3
(dp4
g1
I01
sVname
p5
VEPOLLERR
p6
sVtype
p7
L5L
sa(dp8
g1
I01
sg5
VEPOLLET
p9
sg7
L5L
sa(dp10
g1
I01
sg5
VEPOLLHUP
p11
sg7
L5L
sa(dp12
g1
I01
sg5
VEPOLLIN
p13
sg7
L5L
sa(dp14
g1
I01
sg5
VEPOLLMSG
p15
sg7
L5L
sa(dp16
g1
I01
sg5
VEPOLLONESHOT
p17
sg7
L5L
sa(dp18
g1
I01
sg5
VEPOLLOUT
p19
sg7
L5L
sa(dp20
g1
I01
sg5
VEPOLLPRI
p21
sg7
L5L
sa(dp22
g1
I01
sg5
VEPOLLRDBAND
p23
sg7
L5L
sa(dp24
g1
I01
sg5
VEPOLLRDNORM
p25
sg7
L5L
sa(dp26
g1
I01
sg5
VEPOLLWRBAND
p27
sg7
L5L
sa(dp28
g1
I01
sg5
VEPOLLWRNORM
p29
sg7
L5L
sa(dp30
g1
I01
sg5
VEPOLL_CLOEXEC
p31
sg7
L5L
sa(dp32
g1
I01
sg5
VPIPE_BUF
p33
sg7
L5L
sa(dp34
g1
I01
sg5
VPOLLERR
p35
sg7
L5L
sa(dp36
g1
I01
sg5
VPOLLHUP
p37
sg7
L5L
sa(dp38
g1
I01
sg5
VPOLLIN
p39
sg7
L5L
sa(dp40
g1
I01
sg5
VPOLLMSG
p41
sg7
L5L
sa(dp42
g1
I01
sg5
VPOLLNVAL
p43
sg7
L5L
sa(dp44
g1
I01
sg5
VPOLLOUT
p45
sg7
L5L
sa(dp46
g1
I01
sg5
VPOLLPRI
p47
sg7
L5L
sa(dp48
g1
I01
sg5
VPOLLRDBAND
p49
sg7
L5L
sa(dp50
g1
I01
sg5
VPOLLRDNORM
p51
sg7
L5L
sa(dp52
g1
I01
sg5
VPOLLWRBAND
p53
sg7
L5L
sa(dp54
g1
I01
sg5
VPOLLWRNORM
p55
sg7
L5L
sa(dp56
g1
I01
sg5
V__doc__
p57
sg7
L5L
sa(dp58
g1
I01
sg2
(lp59
(dp60
g1
I01
sg5
V__delattr__
p61
sg7
L5L
sa(dp62
g1
I01
sg5
V__dict__
p63
sg7
L5L
sa(dp64
g1
I01
sVdoc
p65
V__dir__() -> list\u000adefault dir() implementation
p66
sg5
V__dir__
p67
sg7
L2L
sa(dp68
g1
I01
sg5
g57
sg7
L5L
sa(dp69
g1
I01
sg5
V__eq__
p70
sg7
L5L
sa(dp71
g1
I01
sg65
Vdefault object formatter
p72
sg5
V__format__
p73
sg7
L2L
sa(dp74
g1
I01
sg5
V__ge__
p75
sg7
L5L
sa(dp76
g1
I01
sg5
V__getattribute__
p77
sg7
L5L
sa(dp78
g1
I01
sg5
V__gt__
p79
sg7
L5L
sa(dp80
g1
I01
sg5
V__hash__
p81
sg7
L5L
sa(dp82
g1
I01
sg5
V__init__
p83
sg7
L5L
sa(dp84
g1
I01
sg5
V__le__
p85
sg7
L5L
sa(dp86
g1
I01
sg5
V__lt__
p87
sg7
L5L
sa(dp88
g1
I01
sg5
V__module__
p89
sg7
L5L
sa(dp90
g1
I01
sg5
V__ne__
p91
sg7
L5L
sa(dp92
g1
I01
sg65
VCreate and return a new object.  See help(type) for accurate signature.
p93
sg5
V__new__
p94
sg7
L2L
sa(dp95
g1
I01
sg65
Vhelper for pickle
p96
sg5
V__reduce__
p97
sg7
L2L
sa(dp98
g1
I01
sg65
Vhelper for pickle
p99
sg5
V__reduce_ex__
p100
sg7
L2L
sa(dp101
g1
I01
sg5
V__repr__
p102
sg7
L5L
sa(dp103
g1
I01
sg5
V__setattr__
p104
sg7
L5L
sa(dp105
g1
I01
sg65
V__sizeof__() -> int\u000asize of object in memory, in bytes
p106
sg5
V__sizeof__
p107
sg7
L2L
sa(dp108
g1
I01
sg5
V__str__
p109
sg7
L5L
sa(dp110
g1
I01
sg65
VAbstract classes can override this to customize issubclass().\u000a\u000aThis is invoked early on by abc.ABCMeta.__subclasscheck__().\u000aIt should return True, False or NotImplemented.  If it returns\u000aNotImplemented, the normal algorithm is used.  Otherwise, it\u000aoverrides the normal algorithm (and the outcome is cached).\u000a
p111
sg5
V__subclasshook__
p112
sg7
L2L
sa(dp113
g1
I01
sg5
V__weakref__
p114
sg7
L5L
sa(dp115
g1
I01
sg5
Vcreate_module
p116
sg7
L5L
sa(dp117
g1
I01
sg5
Vexec_module
p118
sg7
L5L
sa(dp119
g1
I01
sg5
Vfind_module
p120
sg7
L5L
sa(dp121
g1
I01
sg5
Vfind_spec
p122
sg7
L5L
sa(dp123
g1
I01
sg5
Vget_code
p124
sg7
L5L
sa(dp125
g1
I01
sg5
Vget_source
p126
sg7
L5L
sa(dp127
g1
I01
sg5
Vis_package
p128
sg7
L5L
sa(dp129
g1
I01
sg5
Vload_module
p130
sg7
L5L
sa(dp131
g1
I01
sg5
Vmodule_repr
p132
sg7
L5L
sasg65
VMeta path import for built-in modules.\u000a\u000a    All methods are either class or static methods to avoid the need to\u000a    instantiate the class.\u000a\u000a    
p133
sg5
V__loader__
p134
sg7
L3L
sa(dp135
g1
I01
sg5
V__name__
p136
sg7
L5L
sa(dp137
g1
I01
sg5
V__package__
p138
sg7
L5L
sa(dp139
g1
I01
sg5
V__spec__
p140
sg7
L5L
sa(dp141
g1
I01
sg2
(lp142
(dp143
g1
I01
sg5
g61
sg7
L5L
sa(dp144
g1
I01
sg65
V__dir__() -> list\u000adefault dir() implementation
p145
sg5
g67
sg7
L2L
sa(dp146
g1
I01
sg5
g57
sg7
L5L
sa(dp147
g1
I01
sg65
Nsg5
V__enter__
p148
sg7
L2L
sa(dp149
g1
I01
sg5
g70
sg7
L5L
sa(dp150
g1
I01
sg65
Nsg5
V__exit__
p151
sg7
L2L
sa(dp152
g1
I01
sg65
Vdefault object formatter
p153
sg5
g73
sg7
L2L
sa(dp154
g1
I01
sg5
g75
sg7
L5L
sa(dp155
g1
I01
sg5
g77
sg7
L5L
sa(dp156
g1
I01
sg5
g79
sg7
L5L
sa(dp157
g1
I01
sg5
g81
sg7
L5L
sa(dp158
g1
I01
sg5
g83
sg7
L5L
sa(dp159
g1
I01
sg5
g85
sg7
L5L
sa(dp160
g1
I01
sg5
g87
sg7
L5L
sa(dp161
g1
I01
sg5
g91
sg7
L5L
sa(dp162
g1
I01
sg65
VCreate and return a new object.  See help(type) for accurate signature.
p163
sg5
g94
sg7
L2L
sa(dp164
g1
I01
sg65
Vhelper for pickle
p165
sg5
g97
sg7
L2L
sa(dp166
g1
I01
sg65
Vhelper for pickle
p167
sg5
g100
sg7
L2L
sa(dp168
g1
I01
sg5
g102
sg7
L5L
sa(dp169
g1
I01
sg5
g104
sg7
L5L
sa(dp170
g1
I01
sg65
V__sizeof__() -> int\u000asize of object in memory, in bytes
p171
sg5
g107
sg7
L2L
sa(dp172
g1
I01
sg5
g109
sg7
L5L
sa(dp173
g1
I01
sg65
VAbstract classes can override this to customize issubclass().\u000a\u000aThis is invoked early on by abc.ABCMeta.__subclasscheck__().\u000aIt should return True, False or NotImplemented.  If it returns\u000aNotImplemented, the normal algorithm is used.  Otherwise, it\u000aoverrides the normal algorithm (and the outcome is cached).\u000a
p174
sg5
g112
sg7
L2L
sa(dp175
g1
I01
sg65
Vclose() -> None\u000a\u000aClose the epoll control file descriptor. Further operations on the epoll\u000aobject will raise an exception.
p176
sg5
Vclose
p177
sg7
L2L
sa(dp178
g1
I01
sg5
Vclosed
p179
sg7
L5L
sa(dp180
g1
I01
sg65
Vfileno() -> int\u000a\u000aReturn the epoll control file descriptor.
p181
sg5
Vfileno
p182
sg7
L2L
sa(dp183
g1
I01
sg65
Vfromfd(fd) -> epoll\u000a\u000aCreate an epoll object from a given control fd.
p184
sg5
Vfromfd
p185
sg7
L2L
sa(dp186
g1
I01
sg65
Vmodify(fd, eventmask) -> None\u000a\u000afd is the target file descriptor of the operation\u000aevents is a bit set composed of the various EPOLL constants
p187
sg5
Vmodify
p188
sg7
L2L
sa(dp189
g1
I01
sg65
Vpoll([timeout=-1[, maxevents=-1]]) -> [(fd, events), (...)]\u000a\u000aWait for events on the epoll file descriptor for a maximum time of timeout\u000ain seconds (as float). -1 makes poll wait indefinitely.\u000aUp to maxevents are returned to the caller.
p190
sg5
Vpoll
p191
sg7
L2L
sa(dp192
g1
I01
sg65
Vregister(fd[, eventmask]) -> None\u000a\u000aRegisters a new fd or raises an OSError if the fd is already registered.\u000afd is the target file descriptor of the operation.\u000aevents is a bit set composed of the various EPOLL constants; the default\u000ais EPOLLIN | EPOLLOUT | EPOLLPRI.\u000a\u000aThe epoll interface supports all file descriptors that support poll.
p193
sg5
Vregister
p194
sg7
L2L
sa(dp195
g1
I01
sg65
Vunregister(fd) -> None\u000a\u000afd is the target file descriptor of the operation.
p196
sg5
Vunregister
p197
sg7
L2L
sasg65
Vselect.epoll(sizehint=-1, flags=0)\u000a\u000aReturns an epolling object\u000a\u000asizehint must be a positive integer or -1 for the default size. The\u000asizehint is used to optimize internal data structures. It doesn't limit\u000athe maximum number of monitored events.
p198
sg5
Vepoll
p199
sg7
L3L
sa(dp200
g1
I01
sg2
(lp201
(dp202
g1
I01
sg5
V__cause__
p203
sg7
L5L
sa(dp204
g1
I01
sg5
V__context__
p205
sg7
L5L
sa(dp206
g1
I01
sg5
g61
sg7
L5L
sa(dp207
g1
I01
sg5
g63
sg7
L5L
sa(dp208
g1
I01
sg65
V__dir__() -> list\u000adefault dir() implementation
p209
sg5
g67
sg7
L2L
sa(dp210
g1
I01
sg5
g57
sg7
L5L
sa(dp211
g1
I01
sg5
g70
sg7
L5L
sa(dp212
g1
I01
sg65
Vdefault object formatter
p213
sg5
g73
sg7
L2L
sa(dp214
g1
I01
sg5
g75
sg7
L5L
sa(dp215
g1
I01
sg5
g77
sg7
L5L
sa(dp216
g1
I01
sg5
g79
sg7
L5L
sa(dp217
g1
I01
sg5
g81
sg7
L5L
sa(dp218
g1
I01
sg5
g83
sg7
L5L
sa(dp219
g1
I01
sg5
g85
sg7
L5L
sa(dp220
g1
I01
sg5
g87
sg7
L5L
sa(dp221
g1
I01
sg5
g91
sg7
L5L
sa(dp222
g1
I01
sg65
VCreate and return a new object.  See help(type) for accurate signature.
p223
sg5
g94
sg7
L2L
sa(dp224
g1
I01
sg65
Nsg5
g97
sg7
L2L
sa(dp225
g1
I01
sg65
Vhelper for pickle
p226
sg5
g100
sg7
L2L
sa(dp227
g1
I01
sg5
g102
sg7
L5L
sa(dp228
g1
I01
sg5
g104
sg7
L5L
sa(dp229
g1
I01
sg65
Nsg5
V__setstate__
p230
sg7
L2L
sa(dp231
g1
I01
sg65
V__sizeof__() -> int\u000asize of object in memory, in bytes
p232
sg5
g107
sg7
L2L
sa(dp233
g1
I01
sg5
g109
sg7
L5L
sa(dp234
g1
I01
sg65
VAbstract classes can override this to customize issubclass().\u000a\u000aThis is invoked early on by abc.ABCMeta.__subclasscheck__().\u000aIt should return True, False or NotImplemented.  If it returns\u000aNotImplemented, the normal algorithm is used.  Otherwise, it\u000aoverrides the normal algorithm (and the outcome is cached).\u000a
p235
sg5
g112
sg7
L2L
sa(dp236
g1
I01
sg5
V__suppress_context__
p237
sg7
L5L
sa(dp238
g1
I01
sg5
V__traceback__
p239
sg7
L5L
sa(dp240
g1
I01
sg5
Vargs
p241
sg7
L5L
sa(dp242
g1
I01
sg5
Vcharacters_written
p243
sg7
L5L
sa(dp244
g1
I01
sg5
Verrno
p245
sg7
L5L
sa(dp246
g1
I01
sg5
Vfilename
p247
sg7
L5L
sa(dp248
g1
I01
sg5
Vfilename2
p249
sg7
L5L
sa(dp250
g1
I01
sg5
Vstrerror
p251
sg7
L5L
sa(dp252
g1
I01
sg65
VException.with_traceback(tb) --\u000a    set self.__traceback__ to tb and return self.
p253
sg5
Vwith_traceback
p254
sg7
L2L
sasg65
VBase class for I/O related errors.
p255
sg5
Verror
p256
sg7
L3L
sa(dp257
g1
I01
sg65
VReturns a polling object, which supports registering and\u000aunregistering file descriptors, and then polling them for I/O events.
p258
sg5
g191
sg7
L2L
sa(dp259
g1
I01
sg65
Vselect(rlist, wlist, xlist[, timeout]) -> (rlist, wlist, xlist)\u000a\u000aWait until one or more file descriptors are ready for some kind of I/O.\u000aThe first three arguments are sequences of file descriptors to be waited for:\u000arlist -- wait until ready for reading\u000awlist -- wait until ready for writing\u000axlist -- wait for an ``exceptional condition''\u000aIf only one kind of condition is required, pass [] for the other lists.\u000aA file descriptor is either a socket or file object, or a small integer\u000agotten from a fileno() method call on one of those.\u000a\u000aThe optional 4th argument specifies a timeout in seconds; it may be\u000aa floating point number to specify fractions of seconds.  If it is absent\u000aor None, the call will never time out.\u000a\u000aThe return value is a tuple of three lists corresponding to the first three\u000aarguments; each contains the subset of the corresponding file descriptors\u000athat are ready.\u000a\u000a*** IMPORTANT NOTICE ***\u000aOn Windows, only sockets are supported; on Unix, all file\u000adescriptors can be used.
p260
sg5
Vselect
p261
sg7
L2L
sasg65
VThis module supports asynchronous I/O on multiple file descriptors.\u000a\u000a*** IMPORTANT NOTICE ***\u000aOn Windows, only sockets are supported; on Unix, all file descriptors.
p262
sg5
Vselect
p263
sg7
L1L
s.