(dp0
Vis_builtin
p1
I01
sVchilds
p2
(lp3
(dp4
g1
I01
sVname
p5
V__doc__
p6
sVtype
p7
L5L
sa(dp8
g1
I01
sg2
(lp9
(dp10
g1
I01
sg5
V__delattr__
p11
sg7
L5L
sa(dp12
g1
I01
sg5
V__dict__
p13
sg7
L5L
sa(dp14
g1
I01
sVdoc
p15
V__dir__() -> list\u000adefault dir() implementation
p16
sg5
V__dir__
p17
sg7
L2L
sa(dp18
g1
I01
sg5
g6
sg7
L5L
sa(dp19
g1
I01
sg5
V__eq__
p20
sg7
L5L
sa(dp21
g1
I01
sg15
Vdefault object formatter
p22
sg5
V__format__
p23
sg7
L2L
sa(dp24
g1
I01
sg5
V__ge__
p25
sg7
L5L
sa(dp26
g1
I01
sg5
V__getattribute__
p27
sg7
L5L
sa(dp28
g1
I01
sg5
V__gt__
p29
sg7
L5L
sa(dp30
g1
I01
sg5
V__hash__
p31
sg7
L5L
sa(dp32
g1
I01
sg5
V__init__
p33
sg7
L5L
sa(dp34
g1
I01
sg5
V__le__
p35
sg7
L5L
sa(dp36
g1
I01
sg5
V__lt__
p37
sg7
L5L
sa(dp38
g1
I01
sg5
V__module__
p39
sg7
L5L
sa(dp40
g1
I01
sg5
V__ne__
p41
sg7
L5L
sa(dp42
g1
I01
sg15
VCreate and return a new object.  See help(type) for accurate signature.
p43
sg5
V__new__
p44
sg7
L2L
sa(dp45
g1
I01
sg15
Vhelper for pickle
p46
sg5
V__reduce__
p47
sg7
L2L
sa(dp48
g1
I01
sg15
Vhelper for pickle
p49
sg5
V__reduce_ex__
p50
sg7
L2L
sa(dp51
g1
I01
sg5
V__repr__
p52
sg7
L5L
sa(dp53
g1
I01
sg5
V__setattr__
p54
sg7
L5L
sa(dp55
g1
I01
sg15
V__sizeof__() -> int\u000asize of object in memory, in bytes
p56
sg5
V__sizeof__
p57
sg7
L2L
sa(dp58
g1
I01
sg5
V__str__
p59
sg7
L5L
sa(dp60
g1
I01
sg15
VAbstract classes can override this to customize issubclass().\u000a\u000aThis is invoked early on by abc.ABCMeta.__subclasscheck__().\u000aIt should return True, False or NotImplemented.  If it returns\u000aNotImplemented, the normal algorithm is used.  Otherwise, it\u000aoverrides the normal algorithm (and the outcome is cached).\u000a
p61
sg5
V__subclasshook__
p62
sg7
L2L
sa(dp63
g1
I01
sg5
V__weakref__
p64
sg7
L5L
sa(dp65
g1
I01
sg5
Vcreate_module
p66
sg7
L5L
sa(dp67
g1
I01
sg5
Vexec_module
p68
sg7
L5L
sa(dp69
g1
I01
sg5
Vfind_module
p70
sg7
L5L
sa(dp71
g1
I01
sg5
Vfind_spec
p72
sg7
L5L
sa(dp73
g1
I01
sg5
Vget_code
p74
sg7
L5L
sa(dp75
g1
I01
sg5
Vget_source
p76
sg7
L5L
sa(dp77
g1
I01
sg5
Vis_package
p78
sg7
L5L
sa(dp79
g1
I01
sg5
Vload_module
p80
sg7
L5L
sa(dp81
g1
I01
sg5
Vmodule_repr
p82
sg7
L5L
sasg15
VMeta path import for built-in modules.\u000a\u000a    All methods are either class or static methods to avoid the need to\u000a    instantiate the class.\u000a\u000a    
p83
sg5
V__loader__
p84
sg7
L3L
sa(dp85
g1
I01
sg5
V__name__
p86
sg7
L5L
sa(dp87
g1
I01
sg5
V__package__
p88
sg7
L5L
sa(dp89
g1
I01
sg5
V__spec__
p90
sg7
L5L
sa(dp91
g1
I01
sg15
VReturn a list of all available shadow password database entries, in arbitrary order.\u000a\u000aSee `help(spwd)` for more on shadow password database entries.
p92
sg5
Vgetspall
p93
sg7
L2L
sa(dp94
g1
I01
sg15
VReturn the shadow password database entry for the given user name.\u000a\u000aSee `help(spwd)` for more on shadow password database entries.
p95
sg5
Vgetspnam
p96
sg7
L2L
sa(dp97
g1
I01
sg2
(lp98
(dp99
g1
I01
sg5
V__add__
p100
sg7
L5L
sa(dp101
g1
I01
sg5
V__contains__
p102
sg7
L5L
sa(dp103
g1
I01
sg5
g11
sg7
L5L
sa(dp104
g1
I01
sg15
V__dir__() -> list\u000adefault dir() implementation
p105
sg5
g17
sg7
L2L
sa(dp106
g1
I01
sg5
g6
sg7
L5L
sa(dp107
g1
I01
sg5
g20
sg7
L5L
sa(dp108
g1
I01
sg15
Vdefault object formatter
p109
sg5
g23
sg7
L2L
sa(dp110
g1
I01
sg5
g25
sg7
L5L
sa(dp111
g1
I01
sg5
g27
sg7
L5L
sa(dp112
g1
I01
sg5
V__getitem__
p113
sg7
L5L
sa(dp114
g1
I01
sg15
Nsg5
V__getnewargs__
p115
sg7
L2L
sa(dp116
g1
I01
sg5
g29
sg7
L5L
sa(dp117
g1
I01
sg5
g31
sg7
L5L
sa(dp118
g1
I01
sg5
g33
sg7
L5L
sa(dp119
g1
I01
sg5
V__iter__
p120
sg7
L5L
sa(dp121
g1
I01
sg5
g35
sg7
L5L
sa(dp122
g1
I01
sg5
V__len__
p123
sg7
L5L
sa(dp124
g1
I01
sg5
g37
sg7
L5L
sa(dp125
g1
I01
sg5
V__mul__
p126
sg7
L5L
sa(dp127
g1
I01
sg5
g41
sg7
L5L
sa(dp128
g1
I01
sg15
VCreate and return a new object.  See help(type) for accurate signature.
p129
sg5
g44
sg7
L2L
sa(dp130
g1
I01
sg15
Nsg5
g47
sg7
L2L
sa(dp131
g1
I01
sg15
Vhelper for pickle
p132
sg5
g50
sg7
L2L
sa(dp133
g1
I01
sg5
g52
sg7
L5L
sa(dp134
g1
I01
sg5
V__rmul__
p135
sg7
L5L
sa(dp136
g1
I01
sg5
g54
sg7
L5L
sa(dp137
g1
I01
sg15
V__sizeof__() -> int\u000asize of object in memory, in bytes
p138
sg5
g57
sg7
L2L
sa(dp139
g1
I01
sg5
g59
sg7
L5L
sa(dp140
g1
I01
sg15
VAbstract classes can override this to customize issubclass().\u000a\u000aThis is invoked early on by abc.ABCMeta.__subclasscheck__().\u000aIt should return True, False or NotImplemented.  If it returns\u000aNotImplemented, the normal algorithm is used.  Otherwise, it\u000aoverrides the normal algorithm (and the outcome is cached).\u000a
p141
sg5
g62
sg7
L2L
sa(dp142
g1
I01
sg15
VT.count(value) -> integer -- return number of occurrences of value
p143
sg5
Vcount
p144
sg7
L2L
sa(dp145
g1
I01
sg15
VT.index(value, [start, [stop]]) -> integer -- return first index of value.\u000aRaises ValueError if the value is not present.
p146
sg5
Vindex
p147
sg7
L2L
sa(dp148
g1
I01
sg5
Vn_fields
p149
sg7
L5L
sa(dp150
g1
I01
sg5
Vn_sequence_fields
p151
sg7
L5L
sa(dp152
g1
I01
sg5
Vn_unnamed_fields
p153
sg7
L5L
sa(dp154
g1
I01
sg5
Vsp_expire
p155
sg7
L5L
sa(dp156
g1
I01
sg5
Vsp_flag
p157
sg7
L5L
sa(dp158
g1
I01
sg5
Vsp_inact
p159
sg7
L5L
sa(dp160
g1
I01
sg5
Vsp_lstchg
p161
sg7
L5L
sa(dp162
g1
I01
sg5
Vsp_max
p163
sg7
L5L
sa(dp164
g1
I01
sg5
Vsp_min
p165
sg7
L5L
sa(dp166
g1
I01
sg5
Vsp_nam
p167
sg7
L5L
sa(dp168
g1
I01
sg5
Vsp_namp
p169
sg7
L5L
sa(dp170
g1
I01
sg5
Vsp_pwd
p171
sg7
L5L
sa(dp172
g1
I01
sg5
Vsp_pwdp
p173
sg7
L5L
sa(dp174
g1
I01
sg5
Vsp_warn
p175
sg7
L5L
sasg15
Vspwd.struct_spwd: Results from getsp*() routines.\u000a\u000aThis object may be accessed either as a 9-tuple of\u000a  (sp_namp,sp_pwdp,sp_lstchg,sp_min,sp_max,sp_warn,sp_inact,sp_expire,sp_flag)\u000aor via the object attributes as named in the above tuple.
p176
sg5
Vstruct_spwd
p177
sg7
L3L
sasg15
VThis module provides access to the Unix shadow password database.\u000aIt is available on various Unix versions.\u000a\u000aShadow password database entries are reported as 9-tuples of type struct_spwd,\u000acontaining the following items from the password database (see `<shadow.h>'):\u000asp_namp, sp_pwdp, sp_lstchg, sp_min, sp_max, sp_warn, sp_inact, sp_expire, sp_flag.\u000aThe sp_namp and sp_pwdp are strings, the rest are integers.\u000aAn exception is raised if the entry asked for cannot be found.\u000aYou have to be root to be able to use this module.
p178
sg5
Vspwd
p179
sg7
L1L
s.