(dp0
Vis_builtin
p1
I01
sVchilds
p2
(lp3
(dp4
g1
I01
sg2
(lp5
(dp6
g1
I01
sVname
p7
V__cause__
p8
sVtype
p9
L5L
sa(dp10
g1
I01
sg7
V__context__
p11
sg9
L5L
sa(dp12
g1
I01
sg7
V__delattr__
p13
sg9
L5L
sa(dp14
g1
I01
sg7
V__dict__
p15
sg9
L5L
sa(dp16
g1
I01
sVdoc
p17
V__dir__() -> list\u000adefault dir() implementation
p18
sg7
V__dir__
p19
sg9
L2L
sa(dp20
g1
I01
sg7
V__doc__
p21
sg9
L5L
sa(dp22
g1
I01
sg7
V__eq__
p23
sg9
L5L
sa(dp24
g1
I01
sg17
Vdefault object formatter
p25
sg7
V__format__
p26
sg9
L2L
sa(dp27
g1
I01
sg7
V__ge__
p28
sg9
L5L
sa(dp29
g1
I01
sg7
V__getattribute__
p30
sg9
L5L
sa(dp31
g1
I01
sg7
V__gt__
p32
sg9
L5L
sa(dp33
g1
I01
sg7
V__hash__
p34
sg9
L5L
sa(dp35
g1
I01
sg7
V__init__
p36
sg9
L5L
sa(dp37
g1
I01
sg7
V__le__
p38
sg9
L5L
sa(dp39
g1
I01
sg7
V__lt__
p40
sg9
L5L
sa(dp41
g1
I01
sg7
V__module__
p42
sg9
L5L
sa(dp43
g1
I01
sg7
V__ne__
p44
sg9
L5L
sa(dp45
g1
I01
sg17
VCreate and return a new object.  See help(type) for accurate signature.
p46
sg7
V__new__
p47
sg9
L2L
sa(dp48
g1
I01
sg17
Nsg7
V__reduce__
p49
sg9
L2L
sa(dp50
g1
I01
sg17
Vhelper for pickle
p51
sg7
V__reduce_ex__
p52
sg9
L2L
sa(dp53
g1
I01
sg7
V__repr__
p54
sg9
L5L
sa(dp55
g1
I01
sg7
V__setattr__
p56
sg9
L5L
sa(dp57
g1
I01
sg17
Nsg7
V__setstate__
p58
sg9
L2L
sa(dp59
g1
I01
sg17
V__sizeof__() -> int\u000asize of object in memory, in bytes
p60
sg7
V__sizeof__
p61
sg9
L2L
sa(dp62
g1
I01
sg7
V__str__
p63
sg9
L5L
sa(dp64
g1
I01
sg17
VAbstract classes can override this to customize issubclass().\u000a\u000aThis is invoked early on by abc.ABCMeta.__subclasscheck__().\u000aIt should return True, False or NotImplemented.  If it returns\u000aNotImplemented, the normal algorithm is used.  Otherwise, it\u000aoverrides the normal algorithm (and the outcome is cached).\u000a
p65
sg7
V__subclasshook__
p66
sg9
L2L
sa(dp67
g1
I01
sg7
V__suppress_context__
p68
sg9
L5L
sa(dp69
g1
I01
sg7
V__traceback__
p70
sg9
L5L
sa(dp71
g1
I01
sg7
V__weakref__
p72
sg9
L5L
sa(dp73
g1
I01
sg7
Vargs
p74
sg9
L5L
sa(dp75
g1
I01
sg7
Vmsg
p76
sg9
L5L
sa(dp77
g1
I01
sg7
g7
sg9
L5L
sa(dp78
g1
I01
sg7
Vpath
p79
sg9
L5L
sa(dp80
g1
I01
sg17
VException.with_traceback(tb) --\u000a    set self.__traceback__ to tb and return self.
p81
sg7
Vwith_traceback
p82
sg9
L2L
sasg17
Nsg7
VZipImportError
p83
sg9
L3L
sa(dp84
g1
I01
sg7
g21
sg9
L5L
sa(dp85
g1
I01
sg2
(lp86
(dp87
g1
I01
sg7
g13
sg9
L5L
sa(dp88
g1
I01
sg7
g15
sg9
L5L
sa(dp89
g1
I01
sg17
V__dir__() -> list\u000adefault dir() implementation
p90
sg7
g19
sg9
L2L
sa(dp91
g1
I01
sg7
g21
sg9
L5L
sa(dp92
g1
I01
sg7
g23
sg9
L5L
sa(dp93
g1
I01
sg17
Vdefault object formatter
p94
sg7
g26
sg9
L2L
sa(dp95
g1
I01
sg7
g28
sg9
L5L
sa(dp96
g1
I01
sg7
g30
sg9
L5L
sa(dp97
g1
I01
sg7
g32
sg9
L5L
sa(dp98
g1
I01
sg7
g34
sg9
L5L
sa(dp99
g1
I01
sg7
g36
sg9
L5L
sa(dp100
g1
I01
sg7
g38
sg9
L5L
sa(dp101
g1
I01
sg7
g40
sg9
L5L
sa(dp102
g1
I01
sg7
g42
sg9
L5L
sa(dp103
g1
I01
sg7
g44
sg9
L5L
sa(dp104
g1
I01
sg17
VCreate and return a new object.  See help(type) for accurate signature.
p105
sg7
g47
sg9
L2L
sa(dp106
g1
I01
sg17
Vhelper for pickle
p107
sg7
g49
sg9
L2L
sa(dp108
g1
I01
sg17
Vhelper for pickle
p109
sg7
g52
sg9
L2L
sa(dp110
g1
I01
sg7
g54
sg9
L5L
sa(dp111
g1
I01
sg7
g56
sg9
L5L
sa(dp112
g1
I01
sg17
V__sizeof__() -> int\u000asize of object in memory, in bytes
p113
sg7
g61
sg9
L2L
sa(dp114
g1
I01
sg7
g63
sg9
L5L
sa(dp115
g1
I01
sg17
VAbstract classes can override this to customize issubclass().\u000a\u000aThis is invoked early on by abc.ABCMeta.__subclasscheck__().\u000aIt should return True, False or NotImplemented.  If it returns\u000aNotImplemented, the normal algorithm is used.  Otherwise, it\u000aoverrides the normal algorithm (and the outcome is cached).\u000a
p116
sg7
g66
sg9
L2L
sa(dp117
g1
I01
sg7
g72
sg9
L5L
sa(dp118
g1
I01
sg7
Vcreate_module
p119
sg9
L5L
sa(dp120
g1
I01
sg7
Vexec_module
p121
sg9
L5L
sa(dp122
g1
I01
sg7
Vfind_module
p123
sg9
L5L
sa(dp124
g1
I01
sg7
Vfind_spec
p125
sg9
L5L
sa(dp126
g1
I01
sg7
Vget_code
p127
sg9
L5L
sa(dp128
g1
I01
sg7
Vget_source
p129
sg9
L5L
sa(dp130
g1
I01
sg7
Vis_package
p131
sg9
L5L
sa(dp132
g1
I01
sg7
Vload_module
p133
sg9
L5L
sa(dp134
g1
I01
sg7
Vmodule_repr
p135
sg9
L5L
sasg17
VMeta path import for built-in modules.\u000a\u000a    All methods are either class or static methods to avoid the need to\u000a    instantiate the class.\u000a\u000a    
p136
sg7
V__loader__
p137
sg9
L3L
sa(dp138
g1
I01
sg7
V__name__
p139
sg9
L5L
sa(dp140
g1
I01
sg7
V__package__
p141
sg9
L5L
sa(dp142
g1
I01
sg7
V__spec__
p143
sg9
L5L
sa(dp144
g1
I01
sg7
V_zip_directory_cache
p145
sg9
L5L
sa(dp146
g1
I01
sg2
(lp147
(dp148
g1
I01
sg7
g13
sg9
L5L
sa(dp149
g1
I01
sg17
V__dir__() -> list\u000adefault dir() implementation
p150
sg7
g19
sg9
L2L
sa(dp151
g1
I01
sg7
g21
sg9
L5L
sa(dp152
g1
I01
sg7
g23
sg9
L5L
sa(dp153
g1
I01
sg17
Vdefault object formatter
p154
sg7
g26
sg9
L2L
sa(dp155
g1
I01
sg7
g28
sg9
L5L
sa(dp156
g1
I01
sg7
g30
sg9
L5L
sa(dp157
g1
I01
sg7
g32
sg9
L5L
sa(dp158
g1
I01
sg7
g34
sg9
L5L
sa(dp159
g1
I01
sg7
g36
sg9
L5L
sa(dp160
g1
I01
sg7
g38
sg9
L5L
sa(dp161
g1
I01
sg7
g40
sg9
L5L
sa(dp162
g1
I01
sg7
g44
sg9
L5L
sa(dp163
g1
I01
sg17
VCreate and return a new object.  See help(type) for accurate signature.
p164
sg7
g47
sg9
L2L
sa(dp165
g1
I01
sg17
Vhelper for pickle
p166
sg7
g49
sg9
L2L
sa(dp167
g1
I01
sg17
Vhelper for pickle
p168
sg7
g52
sg9
L2L
sa(dp169
g1
I01
sg7
g54
sg9
L5L
sa(dp170
g1
I01
sg7
g56
sg9
L5L
sa(dp171
g1
I01
sg17
V__sizeof__() -> int\u000asize of object in memory, in bytes
p172
sg7
g61
sg9
L2L
sa(dp173
g1
I01
sg7
g63
sg9
L5L
sa(dp174
g1
I01
sg17
VAbstract classes can override this to customize issubclass().\u000a\u000aThis is invoked early on by abc.ABCMeta.__subclasscheck__().\u000aIt should return True, False or NotImplemented.  If it returns\u000aNotImplemented, the normal algorithm is used.  Otherwise, it\u000aoverrides the normal algorithm (and the outcome is cached).\u000a
p175
sg7
g66
sg9
L2L
sa(dp176
g1
I01
sg7
V_files
p177
sg9
L5L
sa(dp178
g1
I01
sg7
Varchive
p179
sg9
L5L
sa(dp180
g1
I01
sg17
Vfind_loader(fullname, path=None) -> self, str or None.\u000a\u000aSearch for a module specified by 'fullname'. 'fullname' must be the\u000afully qualified (dotted) module name. It returns the zipimporter\u000ainstance itself if the module was found, a string containing the\u000afull path name if it's possibly a portion of a namespace package,\u000aor None otherwise. The optional 'path' argument is ignored -- it's\u000a there for compatibility with the importer protocol.
p181
sg7
Vfind_loader
p182
sg9
L2L
sa(dp183
g1
I01
sg17
Vfind_module(fullname, path=None) -> self or None.\u000a\u000aSearch for a module specified by 'fullname'. 'fullname' must be the\u000afully qualified (dotted) module name. It returns the zipimporter\u000ainstance itself if the module was found, or None if it wasn't.\u000aThe optional 'path' argument is ignored -- it's there for compatibility\u000awith the importer protocol.
p184
sg7
g123
sg9
L2L
sa(dp185
g1
I01
sg17
Vget_code(fullname) -> code object.\u000a\u000aReturn the code object for the specified module. Raise ZipImportError\u000aif the module couldn't be found.
p186
sg7
g127
sg9
L2L
sa(dp187
g1
I01
sg17
Vget_data(pathname) -> string with file data.\u000a\u000aReturn the data associated with 'pathname'. Raise IOError if\u000athe file wasn't found.
p188
sg7
Vget_data
p189
sg9
L2L
sa(dp190
g1
I01
sg17
Vget_filename(fullname) -> filename string.\u000a\u000aReturn the filename for the specified module.
p191
sg7
Vget_filename
p192
sg9
L2L
sa(dp193
g1
I01
sg17
Vget_source(fullname) -> source string.\u000a\u000aReturn the source code for the specified module. Raise ZipImportError\u000aif the module couldn't be found, return None if the archive does\u000acontain the module, but has no source for it.
p194
sg7
g129
sg9
L2L
sa(dp195
g1
I01
sg17
Vis_package(fullname) -> bool.\u000a\u000aReturn True if the module specified by fullname is a package.\u000aRaise ZipImportError if the module couldn't be found.
p196
sg7
g131
sg9
L2L
sa(dp197
g1
I01
sg17
Vload_module(fullname) -> module.\u000a\u000aLoad the module specified by 'fullname'. 'fullname' must be the\u000afully qualified (dotted) module name. It returns the imported\u000amodule, or raises ZipImportError if it wasn't found.
p198
sg7
g133
sg9
L2L
sa(dp199
g1
I01
sg7
Vprefix
p200
sg9
L5L
sasg17
Vzipimporter(archivepath) -> zipimporter object\u000a\u000aCreate a new zipimporter instance. 'archivepath' must be a path to\u000aa zipfile, or to a specific path inside a zipfile. For example, it can be\u000a'/tmp/myimport.zip', or '/tmp/myimport.zip/mydirectory', if mydirectory is a\u000avalid directory inside the archive.\u000a\u000a'ZipImportError is raised if 'archivepath' doesn't point to a valid Zip\u000aarchive.\u000a\u000aThe 'archive' attribute of zipimporter objects contains the name of the\u000azipfile targeted.
p201
sg7
Vzipimporter
p202
sg9
L3L
sasg17
Vzipimport provides support for importing Python modules from Zip archives.\u000a\u000aThis module exports three objects:\u000a- zipimporter: a class; its constructor takes a path to a Zip archive.\u000a- ZipImportError: exception raised by zipimporter objects. It's a\u000a  subclass of ImportError, so it can be caught as ImportError, too.\u000a- _zip_directory_cache: a dict, mapping archive paths to zip directory\u000a  info dicts, as used in zipimporter._files.\u000a\u000aIt is usually not needed to use the zipimport module explicitly; it is\u000aused by the builtin import mechanism for sys.path items that are paths\u000ato Zip archives.
p203
sg7
Vzipimport
p204
sg9
L1L
s.