Certificate:
    Data:
        Version: 3 (0x2)
        Serial Number: 268435669 (0x100000d5)
        Signature Algorithm: sha256WithRSAEncryption
        Issuer: C=DE, ST=Hessen, O=privacyidea, CN=CA001
        Validity
            Not Before: Oct 28 10:12:13 2019 GMT
            Not After : Nov 16 10:12:13 2021 GMT
        Subject: CN=Steve Test/emailAddress=steve@openssl.org
        Subject Public Key Info:
            Public Key Algorithm: rsaEncryption
                RSA Public-Key: (2048 bit)
                Modulus:
                    00:d2:81:89:20:51:48:0f:73:f4:11:32:24:d5:1f:
                    1c:fd:5c:f5:b6:e6:c5:f0:52:81:dc:d2:af:66:4a:
                    7c:93:31:61:5c:af:d1:6d:06:70:03:60:7c:72:0c:
                    88:dd:49:cd:9e:02:6c:d2:5a:d7:53:0f:f3:da:be:
                    69:64:b5:0f:0c:00:e3:b3:50:47:a3:b3:9b:ba:13:
                    50:d6:58:5a:4b:ab:39:e0:11:ca:0a:27:67:03:78:
                    22:66:6d:92:1e:1b:5c:49:ae:e6:6b:d1:8e:3b:9d:
                    06:d3:c6:ac:4d:53:43:10:ab:e8:96:c1:87:82:97:
                    99:8f:20:d3:99:12:37:31:84:e1:8a:ff:29:03:5f:
                    22:90:3e:7f:9b:e0:20:c1:ad:dc:ae:4c:39:1a:31:
                    96:17:02:8c:b2:d9:b4:0d:20:12:9b:7d:86:54:fd:
                    33:fd:c1:2a:62:46:f8:60:96:cf:6e:01:6f:22:df:
                    13:47:e7:97:ec:05:72:23:a3:62:f8:fa:ef:ac:9c:
                    72:f0:37:cb:2f:37:cf:90:a8:27:51:86:c6:d7:78:
                    08:8f:7e:25:a2:15:70:a2:fb:1c:b6:15:5e:a0:97:
                    8b:81:4c:09:28:8a:27:3b:94:bc:71:db:5b:71:37:
                    9a:2b:16:e0:6f:b5:c9:f5:4b:4f:20:ba:65:cf:af:
                    ad:ad
                Exponent: 65537 (0x10001)
        X509v3 extensions:
            X509v3 Key Usage: 
                Digital Signature, Key Encipherment
            X509v3 Basic Constraints: 
                CA:FALSE
            Netscape Cert Type: 
                SSL Server
            Netscape Comment: 
                OpenSSL Generated Server Certificate
            X509v3 Subject Key Identifier: 
                E5:25:6D:3E:AF:0D:DD:3F:4C:F2:45:19:39:D5:14:DB:7E:9C:C0:AD
            X509v3 Authority Key Identifier: 
                keyid:F4:A7:C0:CC:91:46:AF:64:F3:91:F2:27:F8:C8:B2:6F:8A:87:32:73
                DirName:/C=DE/ST=Hessen/O=privacyidea/CN=CA001
                serial:FB:C8:EB:AC:83:CD:12:07

            X509v3 Extended Key Usage: 
                TLS Web Server Authentication
    Signature Algorithm: sha256WithRSAEncryption
         55:1d:d3:61:be:ba:05:2b:70:89:35:9e:57:4d:a1:4f:58:39:
         4f:8f:9a:d9:4d:a3:eb:e4:cb:1e:c3:70:3f:a3:d0:10:c6:aa:
         37:aa:43:d7:f5:fa:84:e8:67:84:b2:e3:24:06:c0:6e:98:da:
         aa:68:60:06:2c:82:9b:d8:b9:d1:f4:39:09:f5:7d:e7:64:59:
         04:a4:75:d3:69:76:36:0f:95:5b:b1:ac:9a:43:15:df:c9:ff:
         d8:30:15:28:14:f3:d2:bf:d6:6f:af:38:8f:a5:ae:8f:fb:d5:
         a2:23:05:ca:2a:6e:4e:7e:8c:b4:cf:b4:51:d0:3f:62:e6:02:
         c9:76:af:fb:ed:c9:02:4a:88:4f:bd:8f:a0:c4:7d:2a:2b:33:
         b1:7a:c2:ae:44:c7:7b:18:03:69:ae:84:16:28:8e:0a:51:dd:
         e3:0c:67:c2:37:de:a5:52:5b:72:16:ac:b2:96:2d:a1:cf:c8:
         7f:3e:bb:bd:77:3d:d1:98:7e:52:14:12:5a:52:bd:06:e6:24:
         87:52:d8:f9:f1:da:aa:31:84:c3:b5:e7:b5:25:f5:f2:31:41:
         9d:0a:d3:b3:53:34:3c:aa:51:5f:19:58:47:1d:d7:38:c3:a2:
         1d:fb:c1:ac:e4:53:fd:9d:ae:d0:76:24:71:d2:dd:a0:6b:a2:
         e5:f0:ec:e4
-----BEGIN CERTIFICATE-----
MIIECTCCAvGgAwIBAgIEEAAA1TANBgkqhkiG9w0BAQsFADBEMQswCQYDVQQGEwJE
RTEPMA0GA1UECAwGSGVzc2VuMRQwEgYDVQQKDAtwcml2YWN5aWRlYTEOMAwGA1UE
AwwFQ0EwMDEwHhcNMTkxMDI4MTAxMjEzWhcNMjExMTE2MTAxMjEzWjA3MRMwEQYD
VQQDDApTdGV2ZSBUZXN0MSAwHgYJKoZIhvcNAQkBFhFzdGV2ZUBvcGVuc3NsLm9y
ZzCCASIwDQYJKoZIhvcNAQEBBQADggEPADCCAQoCggEBANKBiSBRSA9z9BEyJNUf
HP1c9bbmxfBSgdzSr2ZKfJMxYVyv0W0GcANgfHIMiN1JzZ4CbNJa11MP89q+aWS1
DwwA47NQR6Ozm7oTUNZYWkurOeARygonZwN4ImZtkh4bXEmu5mvRjjudBtPGrE1T
QxCr6JbBh4KXmY8g05kSNzGE4Yr/KQNfIpA+f5vgIMGt3K5MORoxlhcCjLLZtA0g
Ept9hlT9M/3BKmJG+GCWz24BbyLfE0fnl+wFciOjYvj676yccvA3yy83z5CoJ1GG
xtd4CI9+JaIVcKL7HLYVXqCXi4FMCSiKJzuUvHHbW3E3misW4G+1yfVLTyC6Zc+v
ra0CAwEAAaOCAQ4wggEKMAsGA1UdDwQEAwIFoDAJBgNVHRMEAjAAMBEGCWCGSAGG
+EIBAQQEAwIGQDAzBglghkgBhvhCAQ0EJhYkT3BlblNTTCBHZW5lcmF0ZWQgU2Vy
dmVyIENlcnRpZmljYXRlMB0GA1UdDgQWBBTlJW0+rw3dP0zyRRk51RTbfpzArTB0
BgNVHSMEbTBrgBT0p8DMkUavZPOR8if4yLJviocyc6FIpEYwRDELMAkGA1UEBhMC
REUxDzANBgNVBAgMBkhlc3NlbjEUMBIGA1UECgwLcHJpdmFjeWlkZWExDjAMBgNV
BAMMBUNBMDAxggkA+8jrrIPNEgcwEwYDVR0lBAwwCgYIKwYBBQUHAwEwDQYJKoZI
hvcNAQELBQADggEBAFUd02G+ugUrcIk1nldNoU9YOU+PmtlNo+vkyx7DcD+j0BDG
qjeqQ9f1+oToZ4Sy4yQGwG6Y2qpoYAYsgpvYudH0OQn1fedkWQSkddNpdjYPlVux
rJpDFd/J/9gwFSgU89K/1m+vOI+lro/71aIjBcoqbk5+jLTPtFHQP2LmAsl2r/vt
yQJKiE+9j6DEfSorM7F6wq5Ex3sYA2muhBYojgpR3eMMZ8I33qVSW3IWrLKWLaHP
yH8+u713PdGYflIUElpSvQbmJIdS2Pnx2qoxhMO157Ul9fIxQZ0K07NTNDyqUV8Z
WEcd1zjDoh37wazkU/2drtB2JHHS3aBrouXw7OQ=
-----END CERTIFICATE-----
