Certificate:
    Data:
        Version: 3 (0x2)
        Serial Number: 268435666 (0x100000d2)
        Signature Algorithm: sha256WithRSAEncryption
        Issuer: C=DE, ST=Hessen, O=privacyidea, CN=CA001
        Validity
            Not Before: Oct 28 10:12:13 2019 GMT
            Not After : Oct 27 10:12:13 2020 GMT
        Subject: C=DE, ST=Hessen, O=privacyidea, CN=requester.localdomain
        Subject Public Key Info:
            Public Key Algorithm: rsaEncryption
                RSA Public-Key: (2048 bit)
                Modulus:
                    00:cd:be:14:4f:fa:ce:01:3f:42:22:1b:1d:9c:af:
                    dd:92:d2:7f:db:6c:b7:3e:39:43:43:6b:13:03:f1:
                    05:f4:07:74:bc:76:69:28:0b:af:19:8e:d7:fc:e3:
                    cd:c6:58:f2:ca:7f:08:6d:53:fc:07:02:44:24:c6:
                    b4:34:4c:8c:04:fe:33:0e:40:e2:20:ba:02:73:5a:
                    f7:f5:4f:63:6e:cc:c6:b6:df:54:1d:37:39:7d:51:
                    36:26:5f:bd:dc:3f:a8:8b:6b:a2:ae:b6:9d:d6:21:
                    e7:df:41:b8:7a:28:2a:68:48:ca:a8:2d:ed:e1:e9:
                    46:5e:5a:72:6d:b4:84:38:87:91:fd:94:11:0b:28:
                    84:c6:c2:2f:2a:fb:01:f9:36:7a:09:75:d1:33:88:
                    3c:73:41:5b:c8:bf:94:89:70:a1:f0:c0:b9:2e:50:
                    53:1e:b1:17:64:69:f4:2d:81:e0:a9:0d:0e:32:e9:
                    ba:55:8a:85:f1:1b:6f:49:79:b4:7f:88:c3:0d:3e:
                    54:88:9b:3d:1f:38:8c:04:f3:ee:6a:63:2b:f5:c6:
                    db:b4:83:aa:c4:78:41:3a:7d:4b:e1:c8:3e:71:ca:
                    1b:61:59:ea:c6:c4:ca:32:5e:c9:e9:bf:12:29:e6:
                    c6:c3:63:fe:a0:55:da:7a:f1:60:98:4d:26:ed:fa:
                    70:2d
                Exponent: 65537 (0x10001)
        X509v3 extensions:
            X509v3 Key Usage: 
                Digital Signature, Key Encipherment
            X509v3 Basic Constraints: 
                CA:FALSE
            Netscape Cert Type: 
                SSL Server
            Netscape Comment: 
                OpenSSL Generated Server Certificate
            X509v3 Subject Key Identifier: 
                53:3F:ED:5D:09:07:B3:65:7B:AB:45:C9:24:5B:09:77:80:0A:96:ED
            X509v3 Authority Key Identifier: 
                keyid:F4:A7:C0:CC:91:46:AF:64:F3:91:F2:27:F8:C8:B2:6F:8A:87:32:73
                DirName:/C=DE/ST=Hessen/O=privacyidea/CN=CA001
                serial:FB:C8:EB:AC:83:CD:12:07

            X509v3 Extended Key Usage: 
                TLS Web Server Authentication
    Signature Algorithm: sha256WithRSAEncryption
         9a:dc:27:54:31:0f:ed:46:bc:68:1a:56:05:34:ae:06:b0:6e:
         ee:8e:37:80:46:69:9f:0b:c2:36:66:d4:aa:8b:0a:14:6e:19:
         cc:79:ad:0e:05:1e:8a:98:88:12:21:f4:48:ed:dc:cb:8e:4a:
         2c:6a:60:9b:ae:75:0e:61:cd:4e:31:1c:c4:ac:ec:eb:6a:20:
         3e:9f:46:a1:ad:3d:26:39:b0:d1:1e:9b:a8:ad:ef:3a:ef:81:
         ab:e3:6b:00:9f:f3:b3:1f:e5:e3:ec:87:c1:2d:13:12:43:a6:
         04:17:71:c4:7e:e4:cf:9f:ff:72:e5:cf:a7:15:e3:08:cb:f5:
         ca:23:11:bc:2b:9a:cc:f4:dc:81:33:32:0e:89:d9:57:28:9f:
         d0:c1:ae:00:74:b2:e3:98:fd:b5:db:e8:13:e2:7d:dc:b9:29:
         af:bc:d4:65:b6:0b:ef:ab:b5:9c:a5:5e:8c:75:79:17:ce:ad:
         e7:85:f6:ab:5c:b3:80:76:33:b9:cf:b9:23:1b:e3:54:60:b9:
         48:a4:76:55:6f:a7:f1:e8:2f:be:37:34:3c:5b:bf:7b:be:3a:
         7f:32:7f:04:65:41:c4:aa:6a:b2:62:35:ee:67:99:79:57:63:
         7b:fb:24:06:bb:ad:ab:2e:65:3a:7a:ca:cb:61:7a:b0:51:d1:
         cb:77:74:18
-----BEGIN CERTIFICATE-----
MIIEJjCCAw6gAwIBAgIEEAAA0jANBgkqhkiG9w0BAQsFADBEMQswCQYDVQQGEwJE
RTEPMA0GA1UECAwGSGVzc2VuMRQwEgYDVQQKDAtwcml2YWN5aWRlYTEOMAwGA1UE
AwwFQ0EwMDEwHhcNMTkxMDI4MTAxMjEzWhcNMjAxMDI3MTAxMjEzWjBUMQswCQYD
VQQGEwJERTEPMA0GA1UECAwGSGVzc2VuMRQwEgYDVQQKDAtwcml2YWN5aWRlYTEe
MBwGA1UEAwwVcmVxdWVzdGVyLmxvY2FsZG9tYWluMIIBIjANBgkqhkiG9w0BAQEF
AAOCAQ8AMIIBCgKCAQEAzb4UT/rOAT9CIhsdnK/dktJ/22y3PjlDQ2sTA/EF9Ad0
vHZpKAuvGY7X/OPNxljyyn8IbVP8BwJEJMa0NEyMBP4zDkDiILoCc1r39U9jbszG
tt9UHTc5fVE2Jl+93D+oi2uirrad1iHn30G4eigqaEjKqC3t4elGXlpybbSEOIeR
/ZQRCyiExsIvKvsB+TZ6CXXRM4g8c0FbyL+UiXCh8MC5LlBTHrEXZGn0LYHgqQ0O
Mum6VYqF8RtvSXm0f4jDDT5UiJs9HziMBPPuamMr9cbbtIOqxHhBOn1L4cg+ccob
YVnqxsTKMl7J6b8SKebGw2P+oFXaevFgmE0m7fpwLQIDAQABo4IBDjCCAQowCwYD
VR0PBAQDAgWgMAkGA1UdEwQCMAAwEQYJYIZIAYb4QgEBBAQDAgZAMDMGCWCGSAGG
+EIBDQQmFiRPcGVuU1NMIEdlbmVyYXRlZCBTZXJ2ZXIgQ2VydGlmaWNhdGUwHQYD
VR0OBBYEFFM/7V0JB7Nle6tFySRbCXeACpbtMHQGA1UdIwRtMGuAFPSnwMyRRq9k
85HyJ/jIsm+KhzJzoUikRjBEMQswCQYDVQQGEwJERTEPMA0GA1UECAwGSGVzc2Vu
MRQwEgYDVQQKDAtwcml2YWN5aWRlYTEOMAwGA1UEAwwFQ0EwMDGCCQD7yOusg80S
BzATBgNVHSUEDDAKBggrBgEFBQcDATANBgkqhkiG9w0BAQsFAAOCAQEAmtwnVDEP
7Ua8aBpWBTSuBrBu7o43gEZpnwvCNmbUqosKFG4ZzHmtDgUeipiIEiH0SO3cy45K
LGpgm651DmHNTjEcxKzs62ogPp9Goa09Jjmw0R6bqK3vOu+Bq+NrAJ/zsx/l4+yH
wS0TEkOmBBdxxH7kz5//cuXPpxXjCMv1yiMRvCuazPTcgTMyDonZVyif0MGuAHSy
45j9tdvoE+J93Lkpr7zUZbYL76u1nKVejHV5F86t54X2q1yzgHYzuc+5IxvjVGC5
SKR2VW+n8egvvjc0PFu/e746fzJ/BGVBxKpqsmI17meZeVdje/skBrutqy5lOnrK
y2F6sFHRy3d0GA==
-----END CERTIFICATE-----
