Certificate:
    Data:
        Version: 3 (0x2)
        Serial Number: 268435668 (0x100000d4)
        Signature Algorithm: sha256WithRSAEncryption
        Issuer: C=DE, ST=Hessen, O=privacyidea, CN=CA001
        Validity
            Not Before: Oct 28 10:12:13 2019 GMT
            Not After : Oct 27 10:12:13 2020 GMT
        Subject: CN=Steve Test/emailAddress=steve@openssl.org
        Subject Public Key Info:
            Public Key Algorithm: rsaEncryption
                RSA Public-Key: (2048 bit)
                Modulus:
                    00:d2:81:89:20:51:48:0f:73:f4:11:32:24:d5:1f:
                    1c:fd:5c:f5:b6:e6:c5:f0:52:81:dc:d2:af:66:4a:
                    7c:93:31:61:5c:af:d1:6d:06:70:03:60:7c:72:0c:
                    88:dd:49:cd:9e:02:6c:d2:5a:d7:53:0f:f3:da:be:
                    69:64:b5:0f:0c:00:e3:b3:50:47:a3:b3:9b:ba:13:
                    50:d6:58:5a:4b:ab:39:e0:11:ca:0a:27:67:03:78:
                    22:66:6d:92:1e:1b:5c:49:ae:e6:6b:d1:8e:3b:9d:
                    06:d3:c6:ac:4d:53:43:10:ab:e8:96:c1:87:82:97:
                    99:8f:20:d3:99:12:37:31:84:e1:8a:ff:29:03:5f:
                    22:90:3e:7f:9b:e0:20:c1:ad:dc:ae:4c:39:1a:31:
                    96:17:02:8c:b2:d9:b4:0d:20:12:9b:7d:86:54:fd:
                    33:fd:c1:2a:62:46:f8:60:96:cf:6e:01:6f:22:df:
                    13:47:e7:97:ec:05:72:23:a3:62:f8:fa:ef:ac:9c:
                    72:f0:37:cb:2f:37:cf:90:a8:27:51:86:c6:d7:78:
                    08:8f:7e:25:a2:15:70:a2:fb:1c:b6:15:5e:a0:97:
                    8b:81:4c:09:28:8a:27:3b:94:bc:71:db:5b:71:37:
                    9a:2b:16:e0:6f:b5:c9:f5:4b:4f:20:ba:65:cf:af:
                    ad:ad
                Exponent: 65537 (0x10001)
        X509v3 extensions:
            X509v3 Key Usage: 
                Digital Signature, Key Encipherment
            X509v3 Basic Constraints: 
                CA:FALSE
            Netscape Cert Type: 
                SSL Server
            Netscape Comment: 
                OpenSSL Generated Server Certificate
            X509v3 Subject Key Identifier: 
                E5:25:6D:3E:AF:0D:DD:3F:4C:F2:45:19:39:D5:14:DB:7E:9C:C0:AD
            X509v3 Authority Key Identifier: 
                keyid:F4:A7:C0:CC:91:46:AF:64:F3:91:F2:27:F8:C8:B2:6F:8A:87:32:73
                DirName:/C=DE/ST=Hessen/O=privacyidea/CN=CA001
                serial:FB:C8:EB:AC:83:CD:12:07

            X509v3 Extended Key Usage: 
                TLS Web Server Authentication
    Signature Algorithm: sha256WithRSAEncryption
         1c:a6:0c:b1:4a:45:00:bb:ea:ba:b6:b8:5f:e8:d4:30:cb:7e:
         38:6a:1b:cd:21:81:2e:f1:af:85:2a:a2:ba:21:69:fe:58:c3:
         8d:34:9c:2f:39:bb:ed:b1:51:7a:1e:d3:a0:4b:36:60:9d:aa:
         7a:a9:7c:88:52:1b:ec:c7:4d:99:0d:cf:7e:b6:3c:f7:d6:88:
         97:c3:19:47:5d:61:2c:a4:3f:39:5b:b2:fb:c8:9d:5b:28:70:
         a4:36:67:23:95:80:62:fd:97:35:59:04:80:32:8c:a3:c1:78:
         9a:7f:86:14:86:1d:38:47:dd:98:36:35:7d:d5:a1:4a:7a:53:
         75:cd:8e:ac:ef:d5:d3:06:55:4b:98:bd:10:96:16:4f:e0:40:
         4b:cf:65:8f:cb:ba:b8:67:f3:42:ae:8c:4c:bb:14:68:d2:5f:
         44:f4:27:ba:c8:72:3e:1c:d7:e8:c7:d1:3c:94:6d:66:00:f8:
         55:f2:e1:f9:73:cb:c0:d8:76:bf:c0:3f:36:c5:fc:c6:7b:75:
         5b:e6:3d:ae:83:ce:ad:40:e4:6e:f0:22:bf:be:28:cb:b9:3d:
         ea:02:90:3c:67:37:0e:0f:d1:40:82:41:ed:42:c0:e7:01:ec:
         17:2f:01:d2:b4:3f:e8:06:c4:f3:b0:b1:70:aa:c8:39:ba:c8:
         63:98:26:69
-----BEGIN CERTIFICATE-----
MIIECTCCAvGgAwIBAgIEEAAA1DANBgkqhkiG9w0BAQsFADBEMQswCQYDVQQGEwJE
RTEPMA0GA1UECAwGSGVzc2VuMRQwEgYDVQQKDAtwcml2YWN5aWRlYTEOMAwGA1UE
AwwFQ0EwMDEwHhcNMTkxMDI4MTAxMjEzWhcNMjAxMDI3MTAxMjEzWjA3MRMwEQYD
VQQDDApTdGV2ZSBUZXN0MSAwHgYJKoZIhvcNAQkBFhFzdGV2ZUBvcGVuc3NsLm9y
ZzCCASIwDQYJKoZIhvcNAQEBBQADggEPADCCAQoCggEBANKBiSBRSA9z9BEyJNUf
HP1c9bbmxfBSgdzSr2ZKfJMxYVyv0W0GcANgfHIMiN1JzZ4CbNJa11MP89q+aWS1
DwwA47NQR6Ozm7oTUNZYWkurOeARygonZwN4ImZtkh4bXEmu5mvRjjudBtPGrE1T
QxCr6JbBh4KXmY8g05kSNzGE4Yr/KQNfIpA+f5vgIMGt3K5MORoxlhcCjLLZtA0g
Ept9hlT9M/3BKmJG+GCWz24BbyLfE0fnl+wFciOjYvj676yccvA3yy83z5CoJ1GG
xtd4CI9+JaIVcKL7HLYVXqCXi4FMCSiKJzuUvHHbW3E3misW4G+1yfVLTyC6Zc+v
ra0CAwEAAaOCAQ4wggEKMAsGA1UdDwQEAwIFoDAJBgNVHRMEAjAAMBEGCWCGSAGG
+EIBAQQEAwIGQDAzBglghkgBhvhCAQ0EJhYkT3BlblNTTCBHZW5lcmF0ZWQgU2Vy
dmVyIENlcnRpZmljYXRlMB0GA1UdDgQWBBTlJW0+rw3dP0zyRRk51RTbfpzArTB0
BgNVHSMEbTBrgBT0p8DMkUavZPOR8if4yLJviocyc6FIpEYwRDELMAkGA1UEBhMC
REUxDzANBgNVBAgMBkhlc3NlbjEUMBIGA1UECgwLcHJpdmFjeWlkZWExDjAMBgNV
BAMMBUNBMDAxggkA+8jrrIPNEgcwEwYDVR0lBAwwCgYIKwYBBQUHAwEwDQYJKoZI
hvcNAQELBQADggEBABymDLFKRQC76rq2uF/o1DDLfjhqG80hgS7xr4Uqorohaf5Y
w400nC85u+2xUXoe06BLNmCdqnqpfIhSG+zHTZkNz362PPfWiJfDGUddYSykPzlb
svvInVsocKQ2ZyOVgGL9lzVZBIAyjKPBeJp/hhSGHThH3Zg2NX3VoUp6U3XNjqzv
1dMGVUuYvRCWFk/gQEvPZY/Lurhn80KujEy7FGjSX0T0J7rIcj4c1+jH0TyUbWYA
+FXy4flzy8DYdr/APzbF/MZ7dVvmPa6Dzq1A5G7wIr++KMu5PeoCkDxnNw4P0UCC
Qe1CwOcB7BcvAdK0P+gGxPOwsXCqyDm6yGOYJmk=
-----END CERTIFICATE-----
