Certificate:
    Data:
        Version: 3 (0x2)
        Serial Number: 268435665 (0x100000d1)
        Signature Algorithm: sha256WithRSAEncryption
        Issuer: C=DE, ST=Hessen, O=privacyidea, CN=CA001
        Validity
            Not Before: Oct 28 10:10:40 2019 GMT
            Not After : Oct 27 10:10:40 2020 GMT
        Subject: OU=realm1, CN=cornelius/emailAddress=user@localhost.localdomain
        Subject Public Key Info:
            Public Key Algorithm: rsaEncryption
                RSA Public-Key: (2048 bit)
                Modulus:
                    00:d4:52:1a:02:16:45:81:f1:e5:40:79:df:64:ed:
                    1b:24:f0:4b:3a:4b:2c:af:f5:fc:76:cb:67:7f:ea:
                    6b:1a:f6:9e:fe:49:4e:1f:09:0e:55:45:c0:2c:44:
                    85:ff:19:fb:10:6d:43:6f:9e:52:25:38:a1:ea:4c:
                    03:a3:77:8e:3a:0b:4c:ce:79:61:d7:b5:3f:f9:39:
                    0a:0a:8d:84:d8:f2:e9:59:79:89:5c:0d:31:40:22:
                    22:1f:8a:91:d7:1c:bb:cd:19:18:c6:b3:70:db:56:
                    fa:a2:18:c5:bc:4f:80:a2:2d:0a:ef:9f:2d:82:76:
                    3a:fd:05:fb:71:16:4a:39:6e:d1:e0:d0:10:16:90:
                    80:4d:e8:ab:4e:8e:c5:b6:e8:48:ea:10:bc:c1:63:
                    92:8a:58:f8:ca:71:57:ad:d6:a5:d1:a1:8c:50:2b:
                    da:66:67:e5:e7:53:d1:69:56:1d:27:ca:0c:38:18:
                    69:01:00:e1:20:a0:bf:6e:8e:79:8e:aa:7a:ef:e0:
                    30:fe:73:67:da:7b:02:af:c6:dd:2f:f1:f7:7b:25:
                    43:72:04:e3:c4:4b:fd:6b:45:2a:47:5c:ab:6f:a8:
                    8b:0c:8a:a6:22:f3:26:ca:e8:7e:7b:5c:90:f7:00:
                    b6:87:25:37:53:e3:e4:44:d2:af:5d:a1:b6:f0:bb:
                    e4:c5
                Exponent: 65537 (0x10001)
        X509v3 extensions:
            X509v3 Key Usage: 
                Digital Signature, Key Encipherment
            X509v3 Basic Constraints: 
                CA:FALSE
            Netscape Cert Type: 
                SSL Server
            Netscape Comment: 
                OpenSSL Generated Server Certificate
            X509v3 Subject Key Identifier: 
                A1:7D:F2:8D:F2:A3:03:B5:97:BE:57:89:E3:96:FE:61:D4:B1:8F:DB
            X509v3 Authority Key Identifier: 
                keyid:F4:A7:C0:CC:91:46:AF:64:F3:91:F2:27:F8:C8:B2:6F:8A:87:32:73
                DirName:/C=DE/ST=Hessen/O=privacyidea/CN=CA001
                serial:FB:C8:EB:AC:83:CD:12:07

            X509v3 Extended Key Usage: 
                TLS Web Server Authentication
    Signature Algorithm: sha256WithRSAEncryption
         ba:37:f7:54:19:43:55:d9:fa:85:61:25:ee:ca:15:03:73:99:
         fa:06:9f:ab:3d:fe:ae:b6:9a:32:95:c5:8f:53:30:84:15:ca:
         f4:c0:98:26:60:a9:6d:43:7f:5e:1b:dd:a4:bd:1b:48:45:77:
         6c:1d:30:97:64:be:a9:55:57:9d:1b:61:4f:92:cc:9d:21:a0:
         d5:87:ce:cc:cf:9c:fd:d0:ed:c9:d5:9c:bf:5f:4e:6f:77:0e:
         17:b9:aa:de:07:61:3c:5f:21:b7:43:94:d8:83:39:ae:ab:99:
         f6:a5:6e:fb:a5:9d:4f:ab:9e:56:99:be:08:66:a8:e6:43:9d:
         58:66:45:1c:77:aa:d2:d2:15:3b:1b:09:32:af:61:69:61:96:
         ab:6e:d8:7b:92:f9:32:41:65:ae:09:e4:6b:1a:90:e5:5b:f1:
         82:24:f1:cc:60:b2:0c:7d:ba:84:08:c1:4e:d9:67:64:f4:47:
         13:b4:43:46:4b:23:4f:ec:30:da:12:4a:f7:ca:bc:c8:fe:ea:
         78:a1:0a:f3:01:7c:aa:06:cd:b6:cf:42:81:a8:ad:05:80:73:
         25:2f:75:9c:1c:7c:89:4c:97:a0:a8:17:38:a3:99:09:70:ca:
         70:68:44:9e:05:e8:2d:a5:a1:47:21:a5:87:c8:4b:f0:a7:81:
         7d:88:70:8b
-----BEGIN CERTIFICATE-----
MIIEIjCCAwqgAwIBAgIEEAAA0TANBgkqhkiG9w0BAQsFADBEMQswCQYDVQQGEwJE
RTEPMA0GA1UECAwGSGVzc2VuMRQwEgYDVQQKDAtwcml2YWN5aWRlYTEOMAwGA1UE
AwwFQ0EwMDEwHhcNMTkxMDI4MTAxMDQwWhcNMjAxMDI3MTAxMDQwWjBQMQ8wDQYD
VQQLDAZyZWFsbTExEjAQBgNVBAMMCWNvcm5lbGl1czEpMCcGCSqGSIb3DQEJARYa
dXNlckBsb2NhbGhvc3QubG9jYWxkb21haW4wggEiMA0GCSqGSIb3DQEBAQUAA4IB
DwAwggEKAoIBAQDUUhoCFkWB8eVAed9k7Rsk8Es6Syyv9fx2y2d/6msa9p7+SU4f
CQ5VRcAsRIX/GfsQbUNvnlIlOKHqTAOjd446C0zOeWHXtT/5OQoKjYTY8ulZeYlc
DTFAIiIfipHXHLvNGRjGs3DbVvqiGMW8T4CiLQrvny2Cdjr9BftxFko5btHg0BAW
kIBN6KtOjsW26EjqELzBY5KKWPjKcVet1qXRoYxQK9pmZ+XnU9FpVh0nygw4GGkB
AOEgoL9ujnmOqnrv4DD+c2faewKvxt0v8fd7JUNyBOPES/1rRSpHXKtvqIsMiqYi
8ybK6H57XJD3ALaHJTdT4+RE0q9dobbwu+TFAgMBAAGjggEOMIIBCjALBgNVHQ8E
BAMCBaAwCQYDVR0TBAIwADARBglghkgBhvhCAQEEBAMCBkAwMwYJYIZIAYb4QgEN
BCYWJE9wZW5TU0wgR2VuZXJhdGVkIFNlcnZlciBDZXJ0aWZpY2F0ZTAdBgNVHQ4E
FgQUoX3yjfKjA7WXvleJ45b+YdSxj9swdAYDVR0jBG0wa4AU9KfAzJFGr2TzkfIn
+Miyb4qHMnOhSKRGMEQxCzAJBgNVBAYTAkRFMQ8wDQYDVQQIDAZIZXNzZW4xFDAS
BgNVBAoMC3ByaXZhY3lpZGVhMQ4wDAYDVQQDDAVDQTAwMYIJAPvI66yDzRIHMBMG
A1UdJQQMMAoGCCsGAQUFBwMBMA0GCSqGSIb3DQEBCwUAA4IBAQC6N/dUGUNV2fqF
YSXuyhUDc5n6Bp+rPf6utpoylcWPUzCEFcr0wJgmYKltQ39eG92kvRtIRXdsHTCX
ZL6pVVedG2FPksydIaDVh87Mz5z90O3J1Zy/X05vdw4XuareB2E8XyG3Q5TYgzmu
q5n2pW77pZ1Pq55Wmb4IZqjmQ51YZkUcd6rS0hU7Gwkyr2FpYZarbth7kvkyQWWu
CeRrGpDlW/GCJPHMYLIMfbqECMFO2Wdk9EcTtENGSyNP7DDaEkr3yrzI/up4oQrz
AXyqBs22z0KBqK0FgHMlL3WcHHyJTJegqBc4o5kJcMpwaESeBegtpaFHIaWHyEvw
p4F9iHCL
-----END CERTIFICATE-----
