Certificate:
    Data:
        Version: 3 (0x2)
        Serial Number: 268435671 (0x100000d7)
        Signature Algorithm: sha256WithRSAEncryption
        Issuer: C=DE, ST=Hessen, O=privacyidea, CN=CA001
        Validity
            Not Before: Oct 28 10:14:33 2019 GMT
            Not After : Oct 27 10:14:33 2020 GMT
        Subject: OU=realm1, CN=cornelius/emailAddress=user@localhost.localdomain
        Subject Public Key Info:
            Public Key Algorithm: rsaEncryption
                RSA Public-Key: (2048 bit)
                Modulus:
                    00:b4:e4:9d:e4:6e:66:44:03:65:b6:ac:cb:0c:aa:
                    ed:55:7b:2e:ab:4e:a1:ba:64:bd:ea:8a:05:32:e4:
                    41:8e:0b:7a:2b:85:2b:70:d9:25:94:c6:00:88:d4:
                    dc:d6:2d:69:a7:78:ef:da:5c:99:f3:49:a0:d5:ad:
                    2e:9c:99:ff:02:93:3a:5c:e2:cf:97:7e:e5:b5:82:
                    85:1f:25:a4:74:f1:f8:66:fc:2f:5c:e7:c7:eb:1c:
                    6b:f5:64:5d:84:30:31:9d:1e:d1:48:64:1e:35:cc:
                    ae:93:ff:e1:96:76:30:12:77:cd:5c:03:8d:0f:8d:
                    d7:be:9f:b0:bd:72:8e:fb:d5:f3:82:71:f0:87:ec:
                    40:50:e3:42:f8:a2:49:19:09:5e:d8:0e:2f:02:58:
                    40:30:e6:c8:0f:84:75:0f:e9:03:8c:7b:3d:d3:98:
                    d1:4f:95:80:81:c4:0a:be:7f:cf:a0:27:1e:73:5a:
                    11:c4:48:12:20:a4:bc:f1:56:38:aa:24:a0:1e:dc:
                    6e:65:2b:38:7b:c9:6b:62:48:2b:c3:27:a3:5b:41:
                    bb:03:7f:09:4d:88:fc:b6:19:cc:42:2d:88:a7:da:
                    f4:0d:ed:7a:5b:fd:be:fe:a4:59:a9:ad:da:46:14:
                    72:e1:7a:12:d6:e1:23:af:a0:24:c8:43:9a:6f:1d:
                    f2:89
                Exponent: 65537 (0x10001)
        X509v3 extensions:
            X509v3 Key Usage: 
                Digital Signature, Key Encipherment
            X509v3 Basic Constraints: 
                CA:FALSE
            Netscape Cert Type: 
                SSL Server
            Netscape Comment: 
                OpenSSL Generated Server Certificate
            X509v3 Subject Key Identifier: 
                DD:CB:A7:3D:DE:FE:F3:1F:DE:23:D1:12:B1:7C:81:4B:4E:3B:68:C0
            X509v3 Authority Key Identifier: 
                keyid:F4:A7:C0:CC:91:46:AF:64:F3:91:F2:27:F8:C8:B2:6F:8A:87:32:73
                DirName:/C=DE/ST=Hessen/O=privacyidea/CN=CA001
                serial:FB:C8:EB:AC:83:CD:12:07

            X509v3 Extended Key Usage: 
                TLS Web Server Authentication
    Signature Algorithm: sha256WithRSAEncryption
         7f:f0:dc:de:d0:d2:95:c7:5e:6f:05:6c:64:4b:3f:f3:76:47:
         d3:b9:6f:14:e2:42:6a:78:95:0a:0f:6d:cb:dc:24:ec:b3:32:
         ca:66:9a:22:09:92:2c:93:4e:24:f3:47:b1:85:d0:61:fc:5d:
         07:d5:d3:40:98:7c:96:2a:ec:cb:fd:54:33:db:6f:7f:48:09:
         ad:74:93:11:8a:88:61:96:29:e2:d9:db:70:99:0d:7a:ba:73:
         1e:82:01:7f:77:52:b6:d9:46:5c:c1:14:34:ab:26:f3:d0:56:
         ae:c6:c8:b3:11:21:e8:5b:d6:b9:af:98:3f:ca:36:11:51:80:
         b0:3a:67:27:06:61:16:2e:63:b5:44:d6:a2:73:dc:be:c2:69:
         28:11:e8:78:a5:cb:93:86:ca:f3:94:a8:4c:6a:23:90:e5:0e:
         76:bb:57:d4:a8:ae:18:04:6a:84:6b:7d:f4:a4:95:07:c5:85:
         2e:bc:17:c7:09:6c:73:d5:6e:f1:d9:09:4c:e8:ef:5c:59:a5:
         00:f3:cf:ca:df:41:39:9f:73:d9:6c:ff:38:ed:64:cc:68:b2:
         de:e5:4e:4a:6f:ce:22:ef:a7:1a:39:4e:10:5f:26:fa:c9:f4:
         0c:de:a4:aa:c6:0f:37:40:72:e9:87:f3:5d:ca:a7:c9:a5:7d:
         49:bb:bb:16
-----BEGIN CERTIFICATE-----
MIIEIjCCAwqgAwIBAgIEEAAA1zANBgkqhkiG9w0BAQsFADBEMQswCQYDVQQGEwJE
RTEPMA0GA1UECAwGSGVzc2VuMRQwEgYDVQQKDAtwcml2YWN5aWRlYTEOMAwGA1UE
AwwFQ0EwMDEwHhcNMTkxMDI4MTAxNDMzWhcNMjAxMDI3MTAxNDMzWjBQMQ8wDQYD
VQQLDAZyZWFsbTExEjAQBgNVBAMMCWNvcm5lbGl1czEpMCcGCSqGSIb3DQEJARYa
dXNlckBsb2NhbGhvc3QubG9jYWxkb21haW4wggEiMA0GCSqGSIb3DQEBAQUAA4IB
DwAwggEKAoIBAQC05J3kbmZEA2W2rMsMqu1Vey6rTqG6ZL3qigUy5EGOC3orhStw
2SWUxgCI1NzWLWmneO/aXJnzSaDVrS6cmf8Ckzpc4s+XfuW1goUfJaR08fhm/C9c
58frHGv1ZF2EMDGdHtFIZB41zK6T/+GWdjASd81cA40Pjde+n7C9co771fOCcfCH
7EBQ40L4okkZCV7YDi8CWEAw5sgPhHUP6QOMez3TmNFPlYCBxAq+f8+gJx5zWhHE
SBIgpLzxVjiqJKAe3G5lKzh7yWtiSCvDJ6NbQbsDfwlNiPy2GcxCLYin2vQN7Xpb
/b7+pFmprdpGFHLhehLW4SOvoCTIQ5pvHfKJAgMBAAGjggEOMIIBCjALBgNVHQ8E
BAMCBaAwCQYDVR0TBAIwADARBglghkgBhvhCAQEEBAMCBkAwMwYJYIZIAYb4QgEN
BCYWJE9wZW5TU0wgR2VuZXJhdGVkIFNlcnZlciBDZXJ0aWZpY2F0ZTAdBgNVHQ4E
FgQU3cunPd7+8x/eI9ESsXyBS047aMAwdAYDVR0jBG0wa4AU9KfAzJFGr2TzkfIn
+Miyb4qHMnOhSKRGMEQxCzAJBgNVBAYTAkRFMQ8wDQYDVQQIDAZIZXNzZW4xFDAS
BgNVBAoMC3ByaXZhY3lpZGVhMQ4wDAYDVQQDDAVDQTAwMYIJAPvI66yDzRIHMBMG
A1UdJQQMMAoGCCsGAQUFBwMBMA0GCSqGSIb3DQEBCwUAA4IBAQB/8Nze0NKVx15v
BWxkSz/zdkfTuW8U4kJqeJUKD23L3CTsszLKZpoiCZIsk04k80exhdBh/F0H1dNA
mHyWKuzL/VQz229/SAmtdJMRiohhlini2dtwmQ16unMeggF/d1K22UZcwRQ0qybz
0FauxsizESHoW9a5r5g/yjYRUYCwOmcnBmEWLmO1RNaic9y+wmkoEeh4pcuThsrz
lKhMaiOQ5Q52u1fUqK4YBGqEa330pJUHxYUuvBfHCWxz1W7x2QlM6O9cWaUA88/K
30E5n3PZbP847WTMaLLe5U5Kb84i76caOU4QXyb6yfQM3qSqxg83QHLph/NdyqfJ
pX1Ju7sW
-----END CERTIFICATE-----
