Certificate:
    Data:
        Version: 3 (0x2)
        Serial Number: 268435672 (0x100000d8)
        Signature Algorithm: sha256WithRSAEncryption
        Issuer: C=DE, ST=Hessen, O=privacyidea, CN=CA001
        Validity
            Not Before: Oct 28 10:16:09 2019 GMT
            Not After : Oct 27 10:16:09 2020 GMT
        Subject: CN=selfservice,CN=user,O=realm1/emailAddress=meine
        Subject Public Key Info:
            Public Key Algorithm: rsaEncryption
                RSA Public-Key: (2048 bit)
                Modulus:
                    00:cf:3c:d4:33:0e:12:c4:e6:da:cd:b6:56:a1:1c:
                    26:bb:26:1c:8a:4a:73:a8:58:8a:b6:1e:b3:8b:99:
                    d2:1d:07:c2:92:89:79:c0:69:d8:c8:df:28:61:98:
                    1e:b3:fe:ae:2b:bd:78:a9:f7:6e:47:dc:a3:a0:16:
                    8c:85:02:c1:4e:92:fd:72:6e:f0:c8:03:29:9b:b8:
                    00:6e:c0:83:95:c8:34:20:36:9c:b3:e5:e4:e6:76:
                    73:a3:1a:ad:40:96:e0:53:54:00:ec:76:79:9a:c6:
                    0d:7e:b6:bd:29:ec:83:f3:cb:89:a4:cb:6c:00:ba:
                    0c:c5:78:0f:ff:69:b8:94:f4:04:70:43:3f:d8:9e:
                    d7:a7:fb:5d:ce:75:8e:da:e7:c4:07:b1:9d:de:6f:
                    88:4b:b6:4d:9a:cf:f9:bc:fa:9f:cd:32:6d:f6:3a:
                    0b:0d:23:42:78:ec:97:42:bf:0e:4d:60:56:e1:d3:
                    02:f2:19:cb:84:57:90:e5:70:a1:a2:83:35:86:e2:
                    da:86:9f:f9:8a:c4:79:b3:52:28:da:cb:bb:34:ca:
                    d3:da:91:4a:cf:8d:76:a2:b2:6b:9b:f9:96:fd:09:
                    2a:da:11:23:4d:f0:cb:d6:b2:b1:0e:12:6c:9a:19:
                    65:98:87:ca:e4:ee:24:ce:44:ac:90:8f:9d:1b:c5:
                    2a:9d
                Exponent: 65537 (0x10001)
        X509v3 extensions:
            X509v3 Key Usage: 
                Digital Signature, Key Encipherment
            X509v3 Basic Constraints: 
                CA:FALSE
            Netscape Cert Type: 
                SSL Server
            Netscape Comment: 
                OpenSSL Generated Server Certificate
            X509v3 Subject Key Identifier: 
                4D:07:90:AD:FF:1D:0D:E7:1A:DD:D6:2E:FA:BA:34:CB:AA:1F:24:C6
            X509v3 Authority Key Identifier: 
                keyid:F4:A7:C0:CC:91:46:AF:64:F3:91:F2:27:F8:C8:B2:6F:8A:87:32:73
                DirName:/C=DE/ST=Hessen/O=privacyidea/CN=CA001
                serial:FB:C8:EB:AC:83:CD:12:07

            X509v3 Extended Key Usage: 
                TLS Web Server Authentication
    Signature Algorithm: sha256WithRSAEncryption
         7d:51:68:dc:05:15:cf:c3:03:43:d4:94:6c:2c:58:14:bc:9b:
         b1:81:57:78:7e:f6:bb:73:ab:06:32:c6:50:82:36:e1:9f:d8:
         33:a7:45:a3:59:d7:5a:ff:b7:d1:70:50:bd:48:79:68:e1:9c:
         a9:b7:77:d4:b1:bb:d9:54:f5:02:52:11:97:20:bb:4a:42:f0:
         a9:eb:0c:e5:0f:05:a0:2d:7d:dd:c3:b5:b5:5e:14:86:ca:1e:
         fc:5a:92:76:0d:9f:2b:7c:cd:41:af:fd:3f:81:ef:98:32:b6:
         3a:36:cf:60:9c:14:80:5e:2c:bc:d2:21:ff:c1:b0:7b:b4:d5:
         c7:0d:38:fc:64:b4:ec:0d:7a:26:f7:6b:11:5d:bc:ad:f2:89:
         b7:c8:bc:ae:0c:8b:dc:27:12:43:fe:b0:0e:c0:c7:5b:16:49:
         6f:2d:49:18:c5:1f:1c:16:ab:0d:33:ce:35:24:59:69:12:1f:
         b3:9c:2b:ff:df:0f:3c:46:d4:03:79:e2:8c:7e:bb:8e:4f:27:
         c7:3e:6d:9f:cc:c3:ca:f0:ba:12:53:b6:dc:0a:60:48:33:6f:
         f4:f0:9e:2b:9d:b1:1d:60:1a:89:1f:af:62:f9:80:08:9d:21:
         cb:3c:b1:7c:af:f9:4f:d1:90:13:77:f5:d4:4f:22:1e:82:a0:
         79:2d:d3:62
-----BEGIN CERTIFICATE-----
MIIEDzCCAvegAwIBAgIEEAAA2DANBgkqhkiG9w0BAQsFADBEMQswCQYDVQQGEwJE
RTEPMA0GA1UECAwGSGVzc2VuMRQwEgYDVQQKDAtwcml2YWN5aWRlYTEOMAwGA1UE
AwwFQ0EwMDEwHhcNMTkxMDI4MTAxNjA5WhcNMjAxMDI3MTAxNjA5WjA9MSUwIwYD
VQQDDBxzZWxmc2VydmljZSxDTj11c2VyLE89cmVhbG0xMRQwEgYJKoZIhvcNAQkB
FgVtZWluZTCCASIwDQYJKoZIhvcNAQEBBQADggEPADCCAQoCggEBAM881DMOEsTm
2s22VqEcJrsmHIpKc6hYirYes4uZ0h0HwpKJecBp2MjfKGGYHrP+riu9eKn3bkfc
o6AWjIUCwU6S/XJu8MgDKZu4AG7Ag5XINCA2nLPl5OZ2c6MarUCW4FNUAOx2eZrG
DX62vSnsg/PLiaTLbAC6DMV4D/9puJT0BHBDP9ie16f7Xc51jtrnxAexnd5viEu2
TZrP+bz6n80ybfY6Cw0jQnjsl0K/Dk1gVuHTAvIZy4RXkOVwoaKDNYbi2oaf+YrE
ebNSKNrLuzTK09qRSs+NdqKya5v5lv0JKtoRI03wy9aysQ4SbJoZZZiHyuTuJM5E
rJCPnRvFKp0CAwEAAaOCAQ4wggEKMAsGA1UdDwQEAwIFoDAJBgNVHRMEAjAAMBEG
CWCGSAGG+EIBAQQEAwIGQDAzBglghkgBhvhCAQ0EJhYkT3BlblNTTCBHZW5lcmF0
ZWQgU2VydmVyIENlcnRpZmljYXRlMB0GA1UdDgQWBBRNB5Ct/x0N5xrd1i76ujTL
qh8kxjB0BgNVHSMEbTBrgBT0p8DMkUavZPOR8if4yLJviocyc6FIpEYwRDELMAkG
A1UEBhMCREUxDzANBgNVBAgMBkhlc3NlbjEUMBIGA1UECgwLcHJpdmFjeWlkZWEx
DjAMBgNVBAMMBUNBMDAxggkA+8jrrIPNEgcwEwYDVR0lBAwwCgYIKwYBBQUHAwEw
DQYJKoZIhvcNAQELBQADggEBAH1RaNwFFc/DA0PUlGwsWBS8m7GBV3h+9rtzqwYy
xlCCNuGf2DOnRaNZ11r/t9FwUL1IeWjhnKm3d9Sxu9lU9QJSEZcgu0pC8KnrDOUP
BaAtfd3DtbVeFIbKHvxaknYNnyt8zUGv/T+B75gytjo2z2CcFIBeLLzSIf/BsHu0
1ccNOPxktOwNeib3axFdvK3yibfIvK4Mi9wnEkP+sA7Ax1sWSW8tSRjFHxwWqw0z
zjUkWWkSH7OcK//fDzxG1AN54ox+u45PJ8c+bZ/Mw8rwuhJTttwKYEgzb/Twniud
sR1gGokfr2L5gAidIcs8sXyv+U/RkBN39dRPIh6CoHkt02I=
-----END CERTIFICATE-----
