Certificate:
    Data:
        Version: 3 (0x2)
        Serial Number: 268435664 (0x100000d0)
        Signature Algorithm: sha256WithRSAEncryption
        Issuer: C=DE, ST=Hessen, O=privacyidea, CN=CA001
        Validity
            Not Before: Oct 28 10:10:39 2019 GMT
            Not After : Oct 27 10:10:39 2020 GMT
        Subject: C=DE, ST=Hessen, O=privacyidea, CN=requester.localdomain
        Subject Public Key Info:
            Public Key Algorithm: rsaEncryption
                RSA Public-Key: (2048 bit)
                Modulus:
                    00:cd:be:14:4f:fa:ce:01:3f:42:22:1b:1d:9c:af:
                    dd:92:d2:7f:db:6c:b7:3e:39:43:43:6b:13:03:f1:
                    05:f4:07:74:bc:76:69:28:0b:af:19:8e:d7:fc:e3:
                    cd:c6:58:f2:ca:7f:08:6d:53:fc:07:02:44:24:c6:
                    b4:34:4c:8c:04:fe:33:0e:40:e2:20:ba:02:73:5a:
                    f7:f5:4f:63:6e:cc:c6:b6:df:54:1d:37:39:7d:51:
                    36:26:5f:bd:dc:3f:a8:8b:6b:a2:ae:b6:9d:d6:21:
                    e7:df:41:b8:7a:28:2a:68:48:ca:a8:2d:ed:e1:e9:
                    46:5e:5a:72:6d:b4:84:38:87:91:fd:94:11:0b:28:
                    84:c6:c2:2f:2a:fb:01:f9:36:7a:09:75:d1:33:88:
                    3c:73:41:5b:c8:bf:94:89:70:a1:f0:c0:b9:2e:50:
                    53:1e:b1:17:64:69:f4:2d:81:e0:a9:0d:0e:32:e9:
                    ba:55:8a:85:f1:1b:6f:49:79:b4:7f:88:c3:0d:3e:
                    54:88:9b:3d:1f:38:8c:04:f3:ee:6a:63:2b:f5:c6:
                    db:b4:83:aa:c4:78:41:3a:7d:4b:e1:c8:3e:71:ca:
                    1b:61:59:ea:c6:c4:ca:32:5e:c9:e9:bf:12:29:e6:
                    c6:c3:63:fe:a0:55:da:7a:f1:60:98:4d:26:ed:fa:
                    70:2d
                Exponent: 65537 (0x10001)
        X509v3 extensions:
            X509v3 Key Usage: 
                Digital Signature, Key Encipherment
            X509v3 Basic Constraints: 
                CA:FALSE
            Netscape Cert Type: 
                SSL Server
            Netscape Comment: 
                OpenSSL Generated Server Certificate
            X509v3 Subject Key Identifier: 
                53:3F:ED:5D:09:07:B3:65:7B:AB:45:C9:24:5B:09:77:80:0A:96:ED
            X509v3 Authority Key Identifier: 
                keyid:F4:A7:C0:CC:91:46:AF:64:F3:91:F2:27:F8:C8:B2:6F:8A:87:32:73
                DirName:/C=DE/ST=Hessen/O=privacyidea/CN=CA001
                serial:FB:C8:EB:AC:83:CD:12:07

            X509v3 Extended Key Usage: 
                TLS Web Server Authentication
    Signature Algorithm: sha256WithRSAEncryption
         1c:5e:1d:a1:68:dc:ac:48:8f:fe:10:79:e2:7c:bf:fd:2a:77:
         08:27:14:96:8a:84:a7:cd:65:34:60:0b:ef:50:b1:6b:11:f6:
         d3:9a:e8:f1:4a:2c:af:ab:80:2d:b0:8e:de:08:20:d7:b2:db:
         48:02:67:e0:dc:2a:81:4e:03:03:e7:35:22:38:3f:b1:45:ab:
         80:52:87:c9:c9:53:5d:5f:ba:e1:68:b1:52:a5:85:03:04:26:
         65:60:e5:41:4c:20:2e:d4:d6:6e:ba:85:26:37:86:4e:0b:d6:
         c2:e4:e3:74:be:66:31:da:de:4f:b3:0b:0b:11:9e:87:d3:95:
         54:a8:e1:b3:f3:66:03:ae:03:63:3d:85:38:f6:cd:fa:dd:03:
         9d:45:07:2e:a0:1b:7c:1c:05:71:e5:95:9f:92:93:c7:79:61:
         d0:41:f8:f7:72:72:fb:59:cf:52:f6:a8:e1:bd:a3:69:50:78:
         0c:5d:a3:f5:c6:51:57:c2:98:dc:db:d5:48:d8:ae:bd:02:56:
         14:6f:33:45:53:4f:ea:07:04:5f:3c:50:c1:28:d1:72:81:01:
         a0:48:4f:53:2b:6c:2e:26:d5:47:81:60:5b:46:1c:7e:b5:cb:
         70:b9:fb:85:82:0e:b7:25:56:f4:e7:ff:d0:ad:65:4e:ad:a4:
         bf:f3:71:84
-----BEGIN CERTIFICATE-----
MIIEJjCCAw6gAwIBAgIEEAAA0DANBgkqhkiG9w0BAQsFADBEMQswCQYDVQQGEwJE
RTEPMA0GA1UECAwGSGVzc2VuMRQwEgYDVQQKDAtwcml2YWN5aWRlYTEOMAwGA1UE
AwwFQ0EwMDEwHhcNMTkxMDI4MTAxMDM5WhcNMjAxMDI3MTAxMDM5WjBUMQswCQYD
VQQGEwJERTEPMA0GA1UECAwGSGVzc2VuMRQwEgYDVQQKDAtwcml2YWN5aWRlYTEe
MBwGA1UEAwwVcmVxdWVzdGVyLmxvY2FsZG9tYWluMIIBIjANBgkqhkiG9w0BAQEF
AAOCAQ8AMIIBCgKCAQEAzb4UT/rOAT9CIhsdnK/dktJ/22y3PjlDQ2sTA/EF9Ad0
vHZpKAuvGY7X/OPNxljyyn8IbVP8BwJEJMa0NEyMBP4zDkDiILoCc1r39U9jbszG
tt9UHTc5fVE2Jl+93D+oi2uirrad1iHn30G4eigqaEjKqC3t4elGXlpybbSEOIeR
/ZQRCyiExsIvKvsB+TZ6CXXRM4g8c0FbyL+UiXCh8MC5LlBTHrEXZGn0LYHgqQ0O
Mum6VYqF8RtvSXm0f4jDDT5UiJs9HziMBPPuamMr9cbbtIOqxHhBOn1L4cg+ccob
YVnqxsTKMl7J6b8SKebGw2P+oFXaevFgmE0m7fpwLQIDAQABo4IBDjCCAQowCwYD
VR0PBAQDAgWgMAkGA1UdEwQCMAAwEQYJYIZIAYb4QgEBBAQDAgZAMDMGCWCGSAGG
+EIBDQQmFiRPcGVuU1NMIEdlbmVyYXRlZCBTZXJ2ZXIgQ2VydGlmaWNhdGUwHQYD
VR0OBBYEFFM/7V0JB7Nle6tFySRbCXeACpbtMHQGA1UdIwRtMGuAFPSnwMyRRq9k
85HyJ/jIsm+KhzJzoUikRjBEMQswCQYDVQQGEwJERTEPMA0GA1UECAwGSGVzc2Vu
MRQwEgYDVQQKDAtwcml2YWN5aWRlYTEOMAwGA1UEAwwFQ0EwMDGCCQD7yOusg80S
BzATBgNVHSUEDDAKBggrBgEFBQcDATANBgkqhkiG9w0BAQsFAAOCAQEAHF4doWjc
rEiP/hB54ny//Sp3CCcUloqEp81lNGAL71CxaxH205ro8Uosr6uALbCO3ggg17Lb
SAJn4NwqgU4DA+c1Ijg/sUWrgFKHyclTXV+64WixUqWFAwQmZWDlQUwgLtTWbrqF
JjeGTgvWwuTjdL5mMdreT7MLCxGeh9OVVKjhs/NmA64DYz2FOPbN+t0DnUUHLqAb
fBwFceWVn5KTx3lh0EH493Jy+1nPUvao4b2jaVB4DF2j9cZRV8KY3NvVSNiuvQJW
FG8zRVNP6gcEXzxQwSjRcoEBoEhPUytsLibVR4FgW0YcfrXLcLn7hYIOtyVW9Of/
0K1lTq2kv/NxhA==
-----END CERTIFICATE-----
