Certificate:
    Data:
        Version: 3 (0x2)
        Serial Number: 268435667 (0x100000d3)
        Signature Algorithm: sha256WithRSAEncryption
        Issuer: C=DE, ST=Hessen, O=privacyidea, CN=CA001
        Validity
            Not Before: Oct 28 10:12:13 2019 GMT
            Not After : Oct 27 10:12:13 2020 GMT
        Subject: C=DE, ST=Hessen, O=privacyidea, CN=usercert
        Subject Public Key Info:
            Public Key Algorithm: rsaEncryption
                RSA Public-Key: (2048 bit)
                Modulus:
                    00:dc:2f:d1:5f:29:97:d4:7c:c3:53:c8:30:bd:4b:
                    67:70:2c:24:6b:b8:5e:eb:21:7a:48:12:56:7c:81:
                    5c:48:75:b6:68:eb:f6:f2:98:4e:50:51:d1:7f:6c:
                    73:f3:0a:a7:ae:be:48:5e:e5:d6:e1:d9:2a:7c:32:
                    6e:4e:fd:08:f6:5a:54:49:23:73:c3:b9:07:18:d1:
                    ef:b3:ac:f8:8a:dc:94:96:a4:90:3a:8e:74:df:e6:
                    0d:37:1b:bd:5b:b7:25:1a:56:39:da:6f:91:aa:5e:
                    1c:74:f3:f9:7c:14:01:83:12:65:76:c7:bb:fe:36:
                    5b:95:e9:72:65:83:ed:3e:98:30:71:fa:87:dd:a3:
                    36:5a:30:03:2e:26:e0:61:d1:bf:02:3f:b6:06:1f:
                    4a:89:28:1c:5c:a2:ff:4e:be:94:e6:8c:e0:da:82:
                    f1:9d:29:32:48:30:73:b4:04:f6:42:1e:be:f7:e2:
                    32:32:27:3c:9d:89:2f:70:3e:85:9a:6f:5c:c5:09:
                    c0:8c:32:2f:72:22:c9:d2:95:1f:b6:ac:72:60:72:
                    b7:82:4d:6b:ce:5b:e3:00:d0:d2:2f:58:c6:e0:10:
                    e5:51:ca:4d:3b:2e:e6:7e:ab:84:d6:56:f1:93:35:
                    a0:93:64:26:81:75:2f:91:b5:16:06:38:0b:db:cc:
                    2d:07
                Exponent: 65537 (0x10001)
        X509v3 extensions:
            X509v3 Key Usage: 
                Digital Signature, Key Encipherment
            X509v3 Basic Constraints: 
                CA:FALSE
            Netscape Cert Type: 
                SSL Server
            Netscape Comment: 
                OpenSSL Generated Server Certificate
            X509v3 Subject Key Identifier: 
                FC:14:D1:F0:4B:8D:00:90:F2:F5:B8:71:9E:4E:97:C3:92:54:AD:0B
            X509v3 Authority Key Identifier: 
                keyid:F4:A7:C0:CC:91:46:AF:64:F3:91:F2:27:F8:C8:B2:6F:8A:87:32:73
                DirName:/C=DE/ST=Hessen/O=privacyidea/CN=CA001
                serial:FB:C8:EB:AC:83:CD:12:07

            X509v3 Extended Key Usage: 
                TLS Web Server Authentication
    Signature Algorithm: sha256WithRSAEncryption
         8f:19:16:fa:01:50:67:7a:ed:27:9a:23:26:67:77:b0:48:bb:
         84:35:7d:7a:28:08:16:0a:a9:43:12:6d:9e:af:a4:dc:8b:9e:
         1f:78:20:d2:bc:86:b0:3e:3a:e4:b9:09:85:1a:78:68:85:b7:
         63:0f:bd:ec:e8:58:c4:89:30:6b:fc:61:6e:6d:13:76:e4:b7:
         08:1d:e8:e5:8e:ab:a6:09:d8:55:2b:0e:d8:76:c7:cd:09:a0:
         8f:dc:cd:e9:95:38:1f:d8:9b:0b:51:21:38:49:42:e2:f5:0f:
         d9:ed:48:36:28:b0:73:df:24:93:84:5c:9c:18:08:ec:41:b9:
         6b:8f:62:8b:d5:12:08:75:14:59:5e:9d:39:51:b0:5a:be:6e:
         19:fb:fd:49:2e:f0:82:4c:e9:b1:83:84:9b:27:05:b6:50:65:
         80:d4:9a:84:a4:a8:33:da:c4:ce:36:f1:84:53:d4:40:48:8e:
         b8:7f:70:57:df:b6:f6:16:5a:da:58:03:d0:e6:65:02:8e:e9:
         35:95:14:12:ae:41:b5:22:75:31:61:65:3c:47:46:46:ea:22:
         74:ec:bc:bc:55:fd:e2:1e:38:f8:82:ef:96:e4:78:aa:01:47:
         1d:e3:aa:ad:1c:27:44:b5:52:9f:c7:ea:b7:a7:74:11:43:62:
         a4:8b:72:8e
-----BEGIN CERTIFICATE-----
MIIEGTCCAwGgAwIBAgIEEAAA0zANBgkqhkiG9w0BAQsFADBEMQswCQYDVQQGEwJE
RTEPMA0GA1UECAwGSGVzc2VuMRQwEgYDVQQKDAtwcml2YWN5aWRlYTEOMAwGA1UE
AwwFQ0EwMDEwHhcNMTkxMDI4MTAxMjEzWhcNMjAxMDI3MTAxMjEzWjBHMQswCQYD
VQQGEwJERTEPMA0GA1UECAwGSGVzc2VuMRQwEgYDVQQKDAtwcml2YWN5aWRlYTER
MA8GA1UEAwwIdXNlcmNlcnQwggEiMA0GCSqGSIb3DQEBAQUAA4IBDwAwggEKAoIB
AQDcL9FfKZfUfMNTyDC9S2dwLCRruF7rIXpIElZ8gVxIdbZo6/bymE5QUdF/bHPz
Cqeuvkhe5dbh2Sp8Mm5O/Qj2WlRJI3PDuQcY0e+zrPiK3JSWpJA6jnTf5g03G71b
tyUaVjnab5GqXhx08/l8FAGDEmV2x7v+NluV6XJlg+0+mDBx+ofdozZaMAMuJuBh
0b8CP7YGH0qJKBxcov9OvpTmjODagvGdKTJIMHO0BPZCHr734jIyJzydiS9wPoWa
b1zFCcCMMi9yIsnSlR+2rHJgcreCTWvOW+MA0NIvWMbgEOVRyk07LuZ+q4TWVvGT
NaCTZCaBdS+RtRYGOAvbzC0HAgMBAAGjggEOMIIBCjALBgNVHQ8EBAMCBaAwCQYD
VR0TBAIwADARBglghkgBhvhCAQEEBAMCBkAwMwYJYIZIAYb4QgENBCYWJE9wZW5T
U0wgR2VuZXJhdGVkIFNlcnZlciBDZXJ0aWZpY2F0ZTAdBgNVHQ4EFgQU/BTR8EuN
AJDy9bhxnk6Xw5JUrQswdAYDVR0jBG0wa4AU9KfAzJFGr2TzkfIn+Miyb4qHMnOh
SKRGMEQxCzAJBgNVBAYTAkRFMQ8wDQYDVQQIDAZIZXNzZW4xFDASBgNVBAoMC3By
aXZhY3lpZGVhMQ4wDAYDVQQDDAVDQTAwMYIJAPvI66yDzRIHMBMGA1UdJQQMMAoG
CCsGAQUFBwMBMA0GCSqGSIb3DQEBCwUAA4IBAQCPGRb6AVBneu0nmiMmZ3ewSLuE
NX16KAgWCqlDEm2er6Tci54feCDSvIawPjrkuQmFGnhohbdjD73s6FjEiTBr/GFu
bRN25LcIHejljqumCdhVKw7YdsfNCaCP3M3plTgf2JsLUSE4SULi9Q/Z7Ug2KLBz
3ySThFycGAjsQblrj2KL1RIIdRRZXp05UbBavm4Z+/1JLvCCTOmxg4SbJwW2UGWA
1JqEpKgz2sTONvGEU9RASI64f3BX37b2FlraWAPQ5mUCjuk1lRQSrkG1InUxYWU8
R0ZG6iJ07Ly8Vf3iHjj4gu+W5HiqAUcd46qtHCdEtVKfx+q3p3QRQ2Kki3KO
-----END CERTIFICATE-----
