Certificate:
    Data:
        Version: 3 (0x2)
        Serial Number: 268435670 (0x100000d6)
        Signature Algorithm: sha256WithRSAEncryption
        Issuer: C=DE, ST=Hessen, O=privacyidea, CN=CA001
        Validity
            Not Before: Oct 28 10:14:33 2019 GMT
            Not After : Oct 27 10:14:33 2020 GMT
        Subject: C=DE, ST=Hessen, O=privacyidea, CN=requester.localdomain
        Subject Public Key Info:
            Public Key Algorithm: rsaEncryption
                RSA Public-Key: (2048 bit)
                Modulus:
                    00:cd:be:14:4f:fa:ce:01:3f:42:22:1b:1d:9c:af:
                    dd:92:d2:7f:db:6c:b7:3e:39:43:43:6b:13:03:f1:
                    05:f4:07:74:bc:76:69:28:0b:af:19:8e:d7:fc:e3:
                    cd:c6:58:f2:ca:7f:08:6d:53:fc:07:02:44:24:c6:
                    b4:34:4c:8c:04:fe:33:0e:40:e2:20:ba:02:73:5a:
                    f7:f5:4f:63:6e:cc:c6:b6:df:54:1d:37:39:7d:51:
                    36:26:5f:bd:dc:3f:a8:8b:6b:a2:ae:b6:9d:d6:21:
                    e7:df:41:b8:7a:28:2a:68:48:ca:a8:2d:ed:e1:e9:
                    46:5e:5a:72:6d:b4:84:38:87:91:fd:94:11:0b:28:
                    84:c6:c2:2f:2a:fb:01:f9:36:7a:09:75:d1:33:88:
                    3c:73:41:5b:c8:bf:94:89:70:a1:f0:c0:b9:2e:50:
                    53:1e:b1:17:64:69:f4:2d:81:e0:a9:0d:0e:32:e9:
                    ba:55:8a:85:f1:1b:6f:49:79:b4:7f:88:c3:0d:3e:
                    54:88:9b:3d:1f:38:8c:04:f3:ee:6a:63:2b:f5:c6:
                    db:b4:83:aa:c4:78:41:3a:7d:4b:e1:c8:3e:71:ca:
                    1b:61:59:ea:c6:c4:ca:32:5e:c9:e9:bf:12:29:e6:
                    c6:c3:63:fe:a0:55:da:7a:f1:60:98:4d:26:ed:fa:
                    70:2d
                Exponent: 65537 (0x10001)
        X509v3 extensions:
            X509v3 Key Usage: 
                Digital Signature, Key Encipherment
            X509v3 Basic Constraints: 
                CA:FALSE
            Netscape Cert Type: 
                SSL Server
            Netscape Comment: 
                OpenSSL Generated Server Certificate
            X509v3 Subject Key Identifier: 
                53:3F:ED:5D:09:07:B3:65:7B:AB:45:C9:24:5B:09:77:80:0A:96:ED
            X509v3 Authority Key Identifier: 
                keyid:F4:A7:C0:CC:91:46:AF:64:F3:91:F2:27:F8:C8:B2:6F:8A:87:32:73
                DirName:/C=DE/ST=Hessen/O=privacyidea/CN=CA001
                serial:FB:C8:EB:AC:83:CD:12:07

            X509v3 Extended Key Usage: 
                TLS Web Server Authentication
    Signature Algorithm: sha256WithRSAEncryption
         0d:24:64:c1:8d:b4:8a:8f:e1:ca:44:98:b2:05:ad:41:83:f6:
         dc:b7:0e:fc:58:ea:3d:c5:57:d4:f9:7c:32:ce:c5:dc:9b:c5:
         ce:26:08:e8:18:69:84:9d:ae:5a:43:92:63:9b:5f:3d:a5:86:
         53:e4:fd:78:40:39:0b:f0:9d:f4:9f:7a:ea:81:ad:b2:fe:23:
         ea:3c:ad:5f:ac:5c:99:b6:1b:50:f2:23:1d:01:a6:b5:ed:8a:
         cc:9c:80:97:3f:b0:12:e2:9d:5b:da:72:fd:a1:f6:a2:4c:9e:
         f6:27:11:a3:34:ad:d6:96:fc:ad:af:fb:92:1e:51:e0:57:29:
         7c:69:04:72:28:57:c1:af:e1:a5:79:65:7e:7b:1d:5f:cf:16:
         f3:17:95:a1:e7:27:66:89:05:6c:c8:ba:48:77:e5:38:ce:0a:
         cb:7d:10:41:1d:6d:b5:5a:5a:21:59:17:c6:73:a6:21:8a:e0:
         93:e3:46:65:a3:6e:38:5d:82:4a:0c:d2:4a:01:bb:fa:ab:d7:
         36:81:e7:57:ca:68:11:58:92:f2:c8:e9:17:c5:e3:5d:55:7d:
         bc:38:60:f7:d6:fa:3d:cc:ac:47:37:b5:d7:17:58:a8:fb:90:
         1c:3b:bf:65:23:3e:0e:e5:f9:87:cc:b0:29:64:62:92:47:d8:
         1c:7e:dc:58
-----BEGIN CERTIFICATE-----
MIIEJjCCAw6gAwIBAgIEEAAA1jANBgkqhkiG9w0BAQsFADBEMQswCQYDVQQGEwJE
RTEPMA0GA1UECAwGSGVzc2VuMRQwEgYDVQQKDAtwcml2YWN5aWRlYTEOMAwGA1UE
AwwFQ0EwMDEwHhcNMTkxMDI4MTAxNDMzWhcNMjAxMDI3MTAxNDMzWjBUMQswCQYD
VQQGEwJERTEPMA0GA1UECAwGSGVzc2VuMRQwEgYDVQQKDAtwcml2YWN5aWRlYTEe
MBwGA1UEAwwVcmVxdWVzdGVyLmxvY2FsZG9tYWluMIIBIjANBgkqhkiG9w0BAQEF
AAOCAQ8AMIIBCgKCAQEAzb4UT/rOAT9CIhsdnK/dktJ/22y3PjlDQ2sTA/EF9Ad0
vHZpKAuvGY7X/OPNxljyyn8IbVP8BwJEJMa0NEyMBP4zDkDiILoCc1r39U9jbszG
tt9UHTc5fVE2Jl+93D+oi2uirrad1iHn30G4eigqaEjKqC3t4elGXlpybbSEOIeR
/ZQRCyiExsIvKvsB+TZ6CXXRM4g8c0FbyL+UiXCh8MC5LlBTHrEXZGn0LYHgqQ0O
Mum6VYqF8RtvSXm0f4jDDT5UiJs9HziMBPPuamMr9cbbtIOqxHhBOn1L4cg+ccob
YVnqxsTKMl7J6b8SKebGw2P+oFXaevFgmE0m7fpwLQIDAQABo4IBDjCCAQowCwYD
VR0PBAQDAgWgMAkGA1UdEwQCMAAwEQYJYIZIAYb4QgEBBAQDAgZAMDMGCWCGSAGG
+EIBDQQmFiRPcGVuU1NMIEdlbmVyYXRlZCBTZXJ2ZXIgQ2VydGlmaWNhdGUwHQYD
VR0OBBYEFFM/7V0JB7Nle6tFySRbCXeACpbtMHQGA1UdIwRtMGuAFPSnwMyRRq9k
85HyJ/jIsm+KhzJzoUikRjBEMQswCQYDVQQGEwJERTEPMA0GA1UECAwGSGVzc2Vu
MRQwEgYDVQQKDAtwcml2YWN5aWRlYTEOMAwGA1UEAwwFQ0EwMDGCCQD7yOusg80S
BzATBgNVHSUEDDAKBggrBgEFBQcDATANBgkqhkiG9w0BAQsFAAOCAQEADSRkwY20
io/hykSYsgWtQYP23LcO/FjqPcVX1Pl8Ms7F3JvFziYI6BhphJ2uWkOSY5tfPaWG
U+T9eEA5C/Cd9J966oGtsv4j6jytX6xcmbYbUPIjHQGmte2KzJyAlz+wEuKdW9py
/aH2okye9icRozSt1pb8ra/7kh5R4FcpfGkEcihXwa/hpXllfnsdX88W8xeVoecn
ZokFbMi6SHflOM4Ky30QQR1ttVpaIVkXxnOmIYrgk+NGZaNuOF2CSgzSSgG7+qvX
NoHnV8poEViS8sjpF8XjXVV9vDhg99b6PcysRze11xdYqPuQHDu/ZSM+DuX5h8yw
KWRikkfYHH7cWA==
-----END CERTIFICATE-----
