(dp0
S'doc'
p1
NsS'is_builtin'
p2
I01
sS'childs'
p3
(lp4
(dp5
g2
I01
sS'type'
p6
I5
sS'name'
p7
S'DATABASE_FILE'
p8
sa(dp9
g2
I01
sg6
I5
sg7
S'GetLastUpdateTime'
p10
sa(dp11
g2
I01
sg6
I5
sg7
S'ISO_8601_DATETIME_FORMAT'
p12
sa(dp13
g2
I01
sg6
I5
sg7
S'ISO_8601_DATE_FORMAT'
p14
sa(dp15
g2
I01
sg6
I5
sg7
S'ISO_8601_TIME_FORMAT'
p16
sa(dp17
g2
I01
sg6
I5
sg7
S'LoadDatabaseVersion'
p18
sa(dp19
g2
I01
sg6
I5
sg7
S'NeedRenewDatabase'
p20
sa(dp21
g2
I01
sg6
I5
sg7
S'SaveDatabaseVersion'
p22
sa(dp23
g2
I01
sg6
I5
sg7
S'SaveLastUpdateTime'
p24
sa(dp25
g2
I01
sg6
I5
sg7
S'UPDATE_FILE'
p26
sa(dp27
g2
I01
sg6
I5
sg7
S'__builtins__'
p28
sa(dp29
g2
I01
sg6
I5
sg7
S'__doc__'
p30
sa(dp31
g2
I01
sg6
I5
sg7
S'__file__'
p32
sa(dp33
g2
I01
sg6
I5
sg7
S'__name__'
p34
sa(dp35
g2
I01
sg6
I5
sg7
S'__package__'
p36
sa(dp37
g2
I01
sg6
I5
sg7
S'config'
p38
sa(dp39
g2
I01
sg6
I5
sg7
S'datetime'
p40
sa(dp41
g2
I01
sg6
I5
sg7
S'fileparser'
p42
sa(dp43
g2
I01
sg6
I5
sg7
S'functools'
p44
sa(dp45
g2
I01
sg6
I5
sg7
S'generate_builtin_data'
p46
sa(dp47
g2
I01
sg6
I5
sg7
S'generate_intelligent_data_by_pool'
p48
sa(dp49
g2
I01
sg6
I5
sg7
S'get_python_version'
p50
sa(dp51
g2
I01
sg6
I5
sg7
S'is_test_dir'
p52
sa(dp53
g2
I01
sg6
I5
sg7
S'json'
p54
sa(dp55
g2
I01
sg6
I5
sg7
S'multiprocessing'
p56
sa(dp57
g2
I01
sg6
I5
sg7
S'os'
p58
sa(dp59
g2
I01
sg6
I5
sg7
S'pickle'
p60
sa(dp61
g2
I01
sg6
I5
sg7
S'print_function'
p62
sa(dp63
g2
I01
sg6
I5
sg7
S'process_sys_modules'
p64
sa(dp65
g2
I01
sg6
I5
sg7
S'scan_sys_path'
p66
sa(dp67
g2
I01
sg6
I5
sg7
S'sys'
p68
sa(dp69
g2
I01
sg6
I5
sg7
S'time'
p70
sa(dp71
g2
I01
sg6
I5
sg7
S'types'
p72
sa(dp73
g2
I01
sg6
I5
sg7
S'utils'
p74
sasg6
I1
sg7
S'__main__'
p75
s.