(dp0
Vis_builtin
p1
I01
sVchilds
p2
(lp3
(dp4
g1
I01
sVname
p5
VMAXYEAR
p6
sVtype
p7
L5L
sa(dp8
g1
I01
sg5
VMINYEAR
p9
sg7
L5L
sa(dp10
g1
I01
sg5
V__doc__
p11
sg7
L5L
sa(dp12
g1
I01
sg2
(lp13
(dp14
g1
I01
sg5
V__delattr__
p15
sg7
L5L
sa(dp16
g1
I01
sg5
V__dict__
p17
sg7
L5L
sa(dp18
g1
I01
sVdoc
p19
V__dir__() -> list\u000adefault dir() implementation
p20
sg5
V__dir__
p21
sg7
L2L
sa(dp22
g1
I01
sg5
g11
sg7
L5L
sa(dp23
g1
I01
sg5
V__eq__
p24
sg7
L5L
sa(dp25
g1
I01
sg19
Vdefault object formatter
p26
sg5
V__format__
p27
sg7
L2L
sa(dp28
g1
I01
sg5
V__ge__
p29
sg7
L5L
sa(dp30
g1
I01
sg5
V__getattribute__
p31
sg7
L5L
sa(dp32
g1
I01
sg5
V__gt__
p33
sg7
L5L
sa(dp34
g1
I01
sg5
V__hash__
p35
sg7
L5L
sa(dp36
g1
I01
sg5
V__init__
p37
sg7
L5L
sa(dp38
g1
I01
sg5
V__le__
p39
sg7
L5L
sa(dp40
g1
I01
sg5
V__lt__
p41
sg7
L5L
sa(dp42
g1
I01
sg5
V__module__
p43
sg7
L5L
sa(dp44
g1
I01
sg5
V__ne__
p45
sg7
L5L
sa(dp46
g1
I01
sg19
VCreate and return a new object.  See help(type) for accurate signature.
p47
sg5
V__new__
p48
sg7
L2L
sa(dp49
g1
I01
sg19
Vhelper for pickle
p50
sg5
V__reduce__
p51
sg7
L2L
sa(dp52
g1
I01
sg19
Vhelper for pickle
p53
sg5
V__reduce_ex__
p54
sg7
L2L
sa(dp55
g1
I01
sg5
V__repr__
p56
sg7
L5L
sa(dp57
g1
I01
sg5
V__setattr__
p58
sg7
L5L
sa(dp59
g1
I01
sg19
V__sizeof__() -> int\u000asize of object in memory, in bytes
p60
sg5
V__sizeof__
p61
sg7
L2L
sa(dp62
g1
I01
sg5
V__str__
p63
sg7
L5L
sa(dp64
g1
I01
sg19
VAbstract classes can override this to customize issubclass().\u000a\u000aThis is invoked early on by abc.ABCMeta.__subclasscheck__().\u000aIt should return True, False or NotImplemented.  If it returns\u000aNotImplemented, the normal algorithm is used.  Otherwise, it\u000aoverrides the normal algorithm (and the outcome is cached).\u000a
p65
sg5
V__subclasshook__
p66
sg7
L2L
sa(dp67
g1
I01
sg5
V__weakref__
p68
sg7
L5L
sa(dp69
g1
I01
sg5
Vcreate_module
p70
sg7
L5L
sa(dp71
g1
I01
sg5
Vexec_module
p72
sg7
L5L
sa(dp73
g1
I01
sg5
Vfind_module
p74
sg7
L5L
sa(dp75
g1
I01
sg5
Vfind_spec
p76
sg7
L5L
sa(dp77
g1
I01
sg5
Vget_code
p78
sg7
L5L
sa(dp79
g1
I01
sg5
Vget_source
p80
sg7
L5L
sa(dp81
g1
I01
sg5
Vis_package
p82
sg7
L5L
sa(dp83
g1
I01
sg5
Vload_module
p84
sg7
L5L
sa(dp85
g1
I01
sg5
Vmodule_repr
p86
sg7
L5L
sasg19
VMeta path import for built-in modules.\u000a\u000a    All methods are either class or static methods to avoid the need to\u000a    instantiate the class.\u000a\u000a    
p87
sg5
V__loader__
p88
sg7
L3L
sa(dp89
g1
I01
sg5
V__name__
p90
sg7
L5L
sa(dp91
g1
I01
sg5
V__package__
p92
sg7
L5L
sa(dp93
g1
I01
sg5
V__spec__
p94
sg7
L5L
sa(dp95
g1
I01
sg2
(lp96
(dp97
g1
I01
sg5
V__add__
p98
sg7
L5L
sa(dp99
g1
I01
sg5
g15
sg7
L5L
sa(dp100
g1
I01
sg19
V__dir__() -> list\u000adefault dir() implementation
p101
sg5
g21
sg7
L2L
sa(dp102
g1
I01
sg5
g11
sg7
L5L
sa(dp103
g1
I01
sg5
g24
sg7
L5L
sa(dp104
g1
I01
sg19
VFormats self with strftime.
p105
sg5
g27
sg7
L2L
sa(dp106
g1
I01
sg5
g29
sg7
L5L
sa(dp107
g1
I01
sg5
g31
sg7
L5L
sa(dp108
g1
I01
sg5
g33
sg7
L5L
sa(dp109
g1
I01
sg5
g35
sg7
L5L
sa(dp110
g1
I01
sg5
g37
sg7
L5L
sa(dp111
g1
I01
sg5
g39
sg7
L5L
sa(dp112
g1
I01
sg5
g41
sg7
L5L
sa(dp113
g1
I01
sg5
g45
sg7
L5L
sa(dp114
g1
I01
sg19
VCreate and return a new object.  See help(type) for accurate signature.
p115
sg5
g48
sg7
L2L
sa(dp116
g1
I01
sg5
V__radd__
p117
sg7
L5L
sa(dp118
g1
I01
sg19
V__reduce__() -> (cls, state)
p119
sg5
g51
sg7
L2L
sa(dp120
g1
I01
sg19
Vhelper for pickle
p121
sg5
g54
sg7
L2L
sa(dp122
g1
I01
sg5
g56
sg7
L5L
sa(dp123
g1
I01
sg5
V__rsub__
p124
sg7
L5L
sa(dp125
g1
I01
sg5
g58
sg7
L5L
sa(dp126
g1
I01
sg19
V__sizeof__() -> int\u000asize of object in memory, in bytes
p127
sg5
g61
sg7
L2L
sa(dp128
g1
I01
sg5
g63
sg7
L5L
sa(dp129
g1
I01
sg5
V__sub__
p130
sg7
L5L
sa(dp131
g1
I01
sg19
VAbstract classes can override this to customize issubclass().\u000a\u000aThis is invoked early on by abc.ABCMeta.__subclasscheck__().\u000aIt should return True, False or NotImplemented.  If it returns\u000aNotImplemented, the normal algorithm is used.  Otherwise, it\u000aoverrides the normal algorithm (and the outcome is cached).\u000a
p132
sg5
g66
sg7
L2L
sa(dp133
g1
I01
sg19
VReturn ctime() style string.
p134
sg5
Vctime
p135
sg7
L2L
sa(dp136
g1
I01
sg5
Vday
p137
sg7
L5L
sa(dp138
g1
I01
sg19
Vint -> date corresponding to a proleptic Gregorian ordinal.
p139
sg5
Vfromordinal
p140
sg7
L2L
sa(dp141
g1
I01
sg19
Vtimestamp -> local date from a POSIX timestamp (like time.time()).
p142
sg5
Vfromtimestamp
p143
sg7
L2L
sa(dp144
g1
I01
sg19
VReturn a 3-tuple containing ISO year, week number, and weekday.
p145
sg5
Visocalendar
p146
sg7
L2L
sa(dp147
g1
I01
sg19
VReturn string in ISO 8601 format, YYYY-MM-DD.
p148
sg5
Visoformat
p149
sg7
L2L
sa(dp150
g1
I01
sg19
VReturn the day of the week represented by the date.\u000aMonday == 1 ... Sunday == 7
p151
sg5
Visoweekday
p152
sg7
L2L
sa(dp153
g1
I01
sg5
Vmax
p154
sg7
L5L
sa(dp155
g1
I01
sg5
Vmin
p156
sg7
L5L
sa(dp157
g1
I01
sg5
Vmonth
p158
sg7
L5L
sa(dp159
g1
I01
sg19
VReturn date with new specified fields.
p160
sg5
Vreplace
p161
sg7
L2L
sa(dp162
g1
I01
sg5
Vresolution
p163
sg7
L5L
sa(dp164
g1
I01
sg19
Vformat -> strftime() style string.
p165
sg5
Vstrftime
p166
sg7
L2L
sa(dp167
g1
I01
sg19
VReturn time tuple, compatible with time.localtime().
p168
sg5
Vtimetuple
p169
sg7
L2L
sa(dp170
g1
I01
sg19
VCurrent date or datetime:  same as self.__class__.fromtimestamp(time.time()).
p171
sg5
Vtoday
p172
sg7
L2L
sa(dp173
g1
I01
sg19
VReturn proleptic Gregorian ordinal.  January 1 of year 1 is day 1.
p174
sg5
Vtoordinal
p175
sg7
L2L
sa(dp176
g1
I01
sg19
VReturn the day of the week represented by the date.\u000aMonday == 0 ... Sunday == 6
p177
sg5
Vweekday
p178
sg7
L2L
sa(dp179
g1
I01
sg5
Vyear
p180
sg7
L5L
sasg19
Vdate(year, month, day) --> date object
p181
sg5
Vdate
p182
sg7
L3L
sa(dp183
g1
I01
sg2
(lp184
(dp185
g1
I01
sg5
g98
sg7
L5L
sa(dp186
g1
I01
sg5
g15
sg7
L5L
sa(dp187
g1
I01
sg19
V__dir__() -> list\u000adefault dir() implementation
p188
sg5
g21
sg7
L2L
sa(dp189
g1
I01
sg5
g11
sg7
L5L
sa(dp190
g1
I01
sg5
g24
sg7
L5L
sa(dp191
g1
I01
sg19
VFormats self with strftime.
p192
sg5
g27
sg7
L2L
sa(dp193
g1
I01
sg5
g29
sg7
L5L
sa(dp194
g1
I01
sg5
g31
sg7
L5L
sa(dp195
g1
I01
sg5
g33
sg7
L5L
sa(dp196
g1
I01
sg5
g35
sg7
L5L
sa(dp197
g1
I01
sg5
g37
sg7
L5L
sa(dp198
g1
I01
sg5
g39
sg7
L5L
sa(dp199
g1
I01
sg5
g41
sg7
L5L
sa(dp200
g1
I01
sg5
g45
sg7
L5L
sa(dp201
g1
I01
sg19
VCreate and return a new object.  See help(type) for accurate signature.
p202
sg5
g48
sg7
L2L
sa(dp203
g1
I01
sg5
g117
sg7
L5L
sa(dp204
g1
I01
sg19
V__reduce__() -> (cls, state)
p205
sg5
g51
sg7
L2L
sa(dp206
g1
I01
sg19
Vhelper for pickle
p207
sg5
g54
sg7
L2L
sa(dp208
g1
I01
sg5
g56
sg7
L5L
sa(dp209
g1
I01
sg5
g124
sg7
L5L
sa(dp210
g1
I01
sg5
g58
sg7
L5L
sa(dp211
g1
I01
sg19
V__sizeof__() -> int\u000asize of object in memory, in bytes
p212
sg5
g61
sg7
L2L
sa(dp213
g1
I01
sg5
g63
sg7
L5L
sa(dp214
g1
I01
sg5
g130
sg7
L5L
sa(dp215
g1
I01
sg19
VAbstract classes can override this to customize issubclass().\u000a\u000aThis is invoked early on by abc.ABCMeta.__subclasscheck__().\u000aIt should return True, False or NotImplemented.  If it returns\u000aNotImplemented, the normal algorithm is used.  Otherwise, it\u000aoverrides the normal algorithm (and the outcome is cached).\u000a
p216
sg5
g66
sg7
L2L
sa(dp217
g1
I01
sg19
Vtz -> convert to local time in new timezone tz\u000a
p218
sg5
Vastimezone
p219
sg7
L2L
sa(dp220
g1
I01
sg19
Vdate, time -> datetime with same date and time fields
p221
sg5
Vcombine
p222
sg7
L2L
sa(dp223
g1
I01
sg19
VReturn ctime() style string.
p224
sg5
g135
sg7
L2L
sa(dp225
g1
I01
sg19
VReturn date object with same year, month and day.
p226
sg5
g182
sg7
L2L
sa(dp227
g1
I01
sg5
g137
sg7
L5L
sa(dp228
g1
I01
sg19
VReturn self.tzinfo.dst(self).
p229
sg5
Vdst
p230
sg7
L2L
sa(dp231
g1
I01
sg19
Vint -> date corresponding to a proleptic Gregorian ordinal.
p232
sg5
g140
sg7
L2L
sa(dp233
g1
I01
sg19
Vtimestamp[, tz] -> tz's local time from POSIX timestamp.
p234
sg5
g143
sg7
L2L
sa(dp235
g1
I01
sg5
Vhour
p236
sg7
L5L
sa(dp237
g1
I01
sg19
VReturn a 3-tuple containing ISO year, week number, and weekday.
p238
sg5
g146
sg7
L2L
sa(dp239
g1
I01
sg19
V[sep] -> string in ISO 8601 format, YYYY-MM-DDTHH:MM:SS[.mmmmmm][+HH:MM].\u000a\u000asep is used to separate the year from the time, and defaults to 'T'.
p240
sg5
g149
sg7
L2L
sa(dp241
g1
I01
sg19
VReturn the day of the week represented by the date.\u000aMonday == 1 ... Sunday == 7
p242
sg5
g152
sg7
L2L
sa(dp243
g1
I01
sg5
g154
sg7
L5L
sa(dp244
g1
I01
sg5
Vmicrosecond
p245
sg7
L5L
sa(dp246
g1
I01
sg5
g156
sg7
L5L
sa(dp247
g1
I01
sg5
Vminute
p248
sg7
L5L
sa(dp249
g1
I01
sg5
g158
sg7
L5L
sa(dp250
g1
I01
sg19
VReturns new datetime object representing current time local to tz.\u000a\u000a  tz\u000a    Timezone object.\u000a\u000aIf no tz is specified, uses local timezone.
p251
sg5
Vnow
p252
sg7
L2L
sa(dp253
g1
I01
sg19
VReturn datetime with new specified fields.
p254
sg5
g161
sg7
L2L
sa(dp255
g1
I01
sg5
g163
sg7
L5L
sa(dp256
g1
I01
sg5
Vsecond
p257
sg7
L5L
sa(dp258
g1
I01
sg19
Vformat -> strftime() style string.
p259
sg5
g166
sg7
L2L
sa(dp260
g1
I01
sg19
Vstring, format -> new datetime parsed from a string (like time.strptime()).
p261
sg5
Vstrptime
p262
sg7
L2L
sa(dp263
g1
I01
sg19
VReturn time object with same time but with tzinfo=None.
p264
sg5
Vtime
p265
sg7
L2L
sa(dp266
g1
I01
sg19
VReturn POSIX timestamp as float.
p267
sg5
Vtimestamp
p268
sg7
L2L
sa(dp269
g1
I01
sg19
VReturn time tuple, compatible with time.localtime().
p270
sg5
g169
sg7
L2L
sa(dp271
g1
I01
sg19
VReturn time object with same time and tzinfo.
p272
sg5
Vtimetz
p273
sg7
L2L
sa(dp274
g1
I01
sg19
VCurrent date or datetime:  same as self.__class__.fromtimestamp(time.time()).
p275
sg5
g172
sg7
L2L
sa(dp276
g1
I01
sg19
VReturn proleptic Gregorian ordinal.  January 1 of year 1 is day 1.
p277
sg5
g175
sg7
L2L
sa(dp278
g1
I01
sg5
Vtzinfo
p279
sg7
L5L
sa(dp280
g1
I01
sg19
VReturn self.tzinfo.tzname(self).
p281
sg5
Vtzname
p282
sg7
L2L
sa(dp283
g1
I01
sg19
VConstruct a naive UTC datetime from a POSIX timestamp.
p284
sg5
Vutcfromtimestamp
p285
sg7
L2L
sa(dp286
g1
I01
sg19
VReturn a new datetime representing UTC day and time.
p287
sg5
Vutcnow
p288
sg7
L2L
sa(dp289
g1
I01
sg19
VReturn self.tzinfo.utcoffset(self).
p290
sg5
Vutcoffset
p291
sg7
L2L
sa(dp292
g1
I01
sg19
VReturn UTC time tuple, compatible with time.localtime().
p293
sg5
Vutctimetuple
p294
sg7
L2L
sa(dp295
g1
I01
sg19
VReturn the day of the week represented by the date.\u000aMonday == 0 ... Sunday == 6
p296
sg5
g178
sg7
L2L
sa(dp297
g1
I01
sg5
g180
sg7
L5L
sasg19
Vdatetime(year, month, day[, hour[, minute[, second[, microsecond[,tzinfo]]]]])\u000a\u000aThe year, month and day arguments are required. tzinfo may be None, or an\u000ainstance of a tzinfo subclass. The remaining arguments may be ints.\u000a
p298
sg5
Vdatetime
p299
sg7
L3L
sa(dp300
g1
I01
sg5
Vdatetime_CAPI
p301
sg7
L5L
sa(dp302
g1
I01
sg2
(lp303
(dp304
g1
I01
sg5
g15
sg7
L5L
sa(dp305
g1
I01
sg19
V__dir__() -> list\u000adefault dir() implementation
p306
sg5
g21
sg7
L2L
sa(dp307
g1
I01
sg5
g11
sg7
L5L
sa(dp308
g1
I01
sg5
g24
sg7
L5L
sa(dp309
g1
I01
sg19
VFormats self with strftime.
p310
sg5
g27
sg7
L2L
sa(dp311
g1
I01
sg5
g29
sg7
L5L
sa(dp312
g1
I01
sg5
g31
sg7
L5L
sa(dp313
g1
I01
sg5
g33
sg7
L5L
sa(dp314
g1
I01
sg5
g35
sg7
L5L
sa(dp315
g1
I01
sg5
g37
sg7
L5L
sa(dp316
g1
I01
sg5
g39
sg7
L5L
sa(dp317
g1
I01
sg5
g41
sg7
L5L
sa(dp318
g1
I01
sg5
g45
sg7
L5L
sa(dp319
g1
I01
sg19
VCreate and return a new object.  See help(type) for accurate signature.
p320
sg5
g48
sg7
L2L
sa(dp321
g1
I01
sg19
V__reduce__() -> (cls, state)
p322
sg5
g51
sg7
L2L
sa(dp323
g1
I01
sg19
Vhelper for pickle
p324
sg5
g54
sg7
L2L
sa(dp325
g1
I01
sg5
g56
sg7
L5L
sa(dp326
g1
I01
sg5
g58
sg7
L5L
sa(dp327
g1
I01
sg19
V__sizeof__() -> int\u000asize of object in memory, in bytes
p328
sg5
g61
sg7
L2L
sa(dp329
g1
I01
sg5
g63
sg7
L5L
sa(dp330
g1
I01
sg19
VAbstract classes can override this to customize issubclass().\u000a\u000aThis is invoked early on by abc.ABCMeta.__subclasscheck__().\u000aIt should return True, False or NotImplemented.  If it returns\u000aNotImplemented, the normal algorithm is used.  Otherwise, it\u000aoverrides the normal algorithm (and the outcome is cached).\u000a
p331
sg5
g66
sg7
L2L
sa(dp332
g1
I01
sg19
VReturn self.tzinfo.dst(self).
p333
sg5
g230
sg7
L2L
sa(dp334
g1
I01
sg5
g236
sg7
L5L
sa(dp335
g1
I01
sg19
VReturn string in ISO 8601 format, HH:MM:SS[.mmmmmm][+HH:MM].
p336
sg5
g149
sg7
L2L
sa(dp337
g1
I01
sg5
g154
sg7
L5L
sa(dp338
g1
I01
sg5
g245
sg7
L5L
sa(dp339
g1
I01
sg5
g156
sg7
L5L
sa(dp340
g1
I01
sg5
g248
sg7
L5L
sa(dp341
g1
I01
sg19
VReturn time with new specified fields.
p342
sg5
g161
sg7
L2L
sa(dp343
g1
I01
sg5
g163
sg7
L5L
sa(dp344
g1
I01
sg5
g257
sg7
L5L
sa(dp345
g1
I01
sg19
Vformat -> strftime() style string.
p346
sg5
g166
sg7
L2L
sa(dp347
g1
I01
sg5
g279
sg7
L5L
sa(dp348
g1
I01
sg19
VReturn self.tzinfo.tzname(self).
p349
sg5
g282
sg7
L2L
sa(dp350
g1
I01
sg19
VReturn self.tzinfo.utcoffset(self).
p351
sg5
g291
sg7
L2L
sasg19
Vtime([hour[, minute[, second[, microsecond[, tzinfo]]]]]) --> a time object\u000a\u000aAll arguments are optional. tzinfo may be None, or an instance of\u000aa tzinfo subclass. The remaining arguments may be ints.\u000a
p352
sg5
g265
sg7
L3L
sa(dp353
g1
I01
sg2
(lp354
(dp355
g1
I01
sg5
V__abs__
p356
sg7
L5L
sa(dp357
g1
I01
sg5
g98
sg7
L5L
sa(dp358
g1
I01
sg5
V__bool__
p359
sg7
L5L
sa(dp360
g1
I01
sg5
g15
sg7
L5L
sa(dp361
g1
I01
sg19
V__dir__() -> list\u000adefault dir() implementation
p362
sg5
g21
sg7
L2L
sa(dp363
g1
I01
sg5
V__divmod__
p364
sg7
L5L
sa(dp365
g1
I01
sg5
g11
sg7
L5L
sa(dp366
g1
I01
sg5
g24
sg7
L5L
sa(dp367
g1
I01
sg5
V__floordiv__
p368
sg7
L5L
sa(dp369
g1
I01
sg19
Vdefault object formatter
p370
sg5
g27
sg7
L2L
sa(dp371
g1
I01
sg5
g29
sg7
L5L
sa(dp372
g1
I01
sg5
g31
sg7
L5L
sa(dp373
g1
I01
sg5
g33
sg7
L5L
sa(dp374
g1
I01
sg5
g35
sg7
L5L
sa(dp375
g1
I01
sg5
g37
sg7
L5L
sa(dp376
g1
I01
sg5
g39
sg7
L5L
sa(dp377
g1
I01
sg5
g41
sg7
L5L
sa(dp378
g1
I01
sg5
V__mod__
p379
sg7
L5L
sa(dp380
g1
I01
sg5
V__mul__
p381
sg7
L5L
sa(dp382
g1
I01
sg5
g45
sg7
L5L
sa(dp383
g1
I01
sg5
V__neg__
p384
sg7
L5L
sa(dp385
g1
I01
sg19
VCreate and return a new object.  See help(type) for accurate signature.
p386
sg5
g48
sg7
L2L
sa(dp387
g1
I01
sg5
V__pos__
p388
sg7
L5L
sa(dp389
g1
I01
sg5
g117
sg7
L5L
sa(dp390
g1
I01
sg5
V__rdivmod__
p391
sg7
L5L
sa(dp392
g1
I01
sg19
V__reduce__() -> (cls, state)
p393
sg5
g51
sg7
L2L
sa(dp394
g1
I01
sg19
Vhelper for pickle
p395
sg5
g54
sg7
L2L
sa(dp396
g1
I01
sg5
g56
sg7
L5L
sa(dp397
g1
I01
sg5
V__rfloordiv__
p398
sg7
L5L
sa(dp399
g1
I01
sg5
V__rmod__
p400
sg7
L5L
sa(dp401
g1
I01
sg5
V__rmul__
p402
sg7
L5L
sa(dp403
g1
I01
sg5
g124
sg7
L5L
sa(dp404
g1
I01
sg5
V__rtruediv__
p405
sg7
L5L
sa(dp406
g1
I01
sg5
g58
sg7
L5L
sa(dp407
g1
I01
sg19
V__sizeof__() -> int\u000asize of object in memory, in bytes
p408
sg5
g61
sg7
L2L
sa(dp409
g1
I01
sg5
g63
sg7
L5L
sa(dp410
g1
I01
sg5
g130
sg7
L5L
sa(dp411
g1
I01
sg19
VAbstract classes can override this to customize issubclass().\u000a\u000aThis is invoked early on by abc.ABCMeta.__subclasscheck__().\u000aIt should return True, False or NotImplemented.  If it returns\u000aNotImplemented, the normal algorithm is used.  Otherwise, it\u000aoverrides the normal algorithm (and the outcome is cached).\u000a
p412
sg5
g66
sg7
L2L
sa(dp413
g1
I01
sg5
V__truediv__
p414
sg7
L5L
sa(dp415
g1
I01
sg5
Vdays
p416
sg7
L5L
sa(dp417
g1
I01
sg5
g154
sg7
L5L
sa(dp418
g1
I01
sg5
Vmicroseconds
p419
sg7
L5L
sa(dp420
g1
I01
sg5
g156
sg7
L5L
sa(dp421
g1
I01
sg5
g163
sg7
L5L
sa(dp422
g1
I01
sg5
Vseconds
p423
sg7
L5L
sa(dp424
g1
I01
sg19
VTotal seconds in the duration.
p425
sg5
Vtotal_seconds
p426
sg7
L2L
sasg19
VDifference between two datetime values.
p427
sg5
Vtimedelta
p428
sg7
L3L
sa(dp429
g1
I01
sg2
(lp430
(dp431
g1
I01
sg5
g15
sg7
L5L
sa(dp432
g1
I01
sg19
V__dir__() -> list\u000adefault dir() implementation
p433
sg5
g21
sg7
L2L
sa(dp434
g1
I01
sg5
g11
sg7
L5L
sa(dp435
g1
I01
sg5
g24
sg7
L5L
sa(dp436
g1
I01
sg19
Vdefault object formatter
p437
sg5
g27
sg7
L2L
sa(dp438
g1
I01
sg5
g29
sg7
L5L
sa(dp439
g1
I01
sg5
g31
sg7
L5L
sa(dp440
g1
I01
sg19
Vpickle support
p441
sg5
V__getinitargs__
p442
sg7
L2L
sa(dp443
g1
I01
sg5
g33
sg7
L5L
sa(dp444
g1
I01
sg5
g35
sg7
L5L
sa(dp445
g1
I01
sg5
g37
sg7
L5L
sa(dp446
g1
I01
sg5
g39
sg7
L5L
sa(dp447
g1
I01
sg5
g41
sg7
L5L
sa(dp448
g1
I01
sg5
g45
sg7
L5L
sa(dp449
g1
I01
sg19
VCreate and return a new object.  See help(type) for accurate signature.
p450
sg5
g48
sg7
L2L
sa(dp451
g1
I01
sg19
V-> (cls, state)
p452
sg5
g51
sg7
L2L
sa(dp453
g1
I01
sg19
Vhelper for pickle
p454
sg5
g54
sg7
L2L
sa(dp455
g1
I01
sg5
g56
sg7
L5L
sa(dp456
g1
I01
sg5
g58
sg7
L5L
sa(dp457
g1
I01
sg19
V__sizeof__() -> int\u000asize of object in memory, in bytes
p458
sg5
g61
sg7
L2L
sa(dp459
g1
I01
sg5
g63
sg7
L5L
sa(dp460
g1
I01
sg19
VAbstract classes can override this to customize issubclass().\u000a\u000aThis is invoked early on by abc.ABCMeta.__subclasscheck__().\u000aIt should return True, False or NotImplemented.  If it returns\u000aNotImplemented, the normal algorithm is used.  Otherwise, it\u000aoverrides the normal algorithm (and the outcome is cached).\u000a
p461
sg5
g66
sg7
L2L
sa(dp462
g1
I01
sg19
VReturn None.
p463
sg5
g230
sg7
L2L
sa(dp464
g1
I01
sg19
Vdatetime in UTC -> datetime in local time.
p465
sg5
Vfromutc
p466
sg7
L2L
sa(dp467
g1
I01
sg5
g154
sg7
L5L
sa(dp468
g1
I01
sg5
g156
sg7
L5L
sa(dp469
g1
I01
sg19
VIf name is specified when timezone is created, returns the name.  Otherwise returns offset as 'UTC(+|-)HH:MM'.
p470
sg5
g282
sg7
L2L
sa(dp471
g1
I01
sg5
Vutc
p472
sg7
L5L
sa(dp473
g1
I01
sg19
VReturn fixed offset.
p474
sg5
g291
sg7
L2L
sasg19
VFixed offset from UTC implementation of tzinfo.
p475
sg5
Vtimezone
p476
sg7
L3L
sa(dp477
g1
I01
sg2
(lp478
(dp479
g1
I01
sg5
g15
sg7
L5L
sa(dp480
g1
I01
sg19
V__dir__() -> list\u000adefault dir() implementation
p481
sg5
g21
sg7
L2L
sa(dp482
g1
I01
sg5
g11
sg7
L5L
sa(dp483
g1
I01
sg5
g24
sg7
L5L
sa(dp484
g1
I01
sg19
Vdefault object formatter
p485
sg5
g27
sg7
L2L
sa(dp486
g1
I01
sg5
g29
sg7
L5L
sa(dp487
g1
I01
sg5
g31
sg7
L5L
sa(dp488
g1
I01
sg5
g33
sg7
L5L
sa(dp489
g1
I01
sg5
g35
sg7
L5L
sa(dp490
g1
I01
sg5
g37
sg7
L5L
sa(dp491
g1
I01
sg5
g39
sg7
L5L
sa(dp492
g1
I01
sg5
g41
sg7
L5L
sa(dp493
g1
I01
sg5
g45
sg7
L5L
sa(dp494
g1
I01
sg19
VCreate and return a new object.  See help(type) for accurate signature.
p495
sg5
g48
sg7
L2L
sa(dp496
g1
I01
sg19
V-> (cls, state)
p497
sg5
g51
sg7
L2L
sa(dp498
g1
I01
sg19
Vhelper for pickle
p499
sg5
g54
sg7
L2L
sa(dp500
g1
I01
sg5
g56
sg7
L5L
sa(dp501
g1
I01
sg5
g58
sg7
L5L
sa(dp502
g1
I01
sg19
V__sizeof__() -> int\u000asize of object in memory, in bytes
p503
sg5
g61
sg7
L2L
sa(dp504
g1
I01
sg5
g63
sg7
L5L
sa(dp505
g1
I01
sg19
VAbstract classes can override this to customize issubclass().\u000a\u000aThis is invoked early on by abc.ABCMeta.__subclasscheck__().\u000aIt should return True, False or NotImplemented.  If it returns\u000aNotImplemented, the normal algorithm is used.  Otherwise, it\u000aoverrides the normal algorithm (and the outcome is cached).\u000a
p506
sg5
g66
sg7
L2L
sa(dp507
g1
I01
sg19
Vdatetime -> DST offset in minutes east of UTC.
p508
sg5
g230
sg7
L2L
sa(dp509
g1
I01
sg19
Vdatetime in UTC -> datetime in local time.
p510
sg5
g466
sg7
L2L
sa(dp511
g1
I01
sg19
Vdatetime -> string name of time zone.
p512
sg5
g282
sg7
L2L
sa(dp513
g1
I01
sg19
Vdatetime -> timedelta showing offset from UTC, negative values indicating West of UTC
p514
sg5
g291
sg7
L2L
sasg19
VAbstract base class for time zone info objects.
p515
sg5
g279
sg7
L3L
sasg19
VFast implementation of the datetime type.
p516
sg5
V_datetime
p517
sg7
L1L
s.