(dp0
Vis_builtin
p1
I01
sVchilds
p2
(lp3
(dp4
g1
I01
sg2
(lp5
(dp6
g1
I01
sVdoc
p7
NsVname
p8
V__copy__
p9
sVtype
p10
L2L
sa(dp11
g1
I01
sg7
Nsg8
V__deepcopy__
p12
sg10
L2L
sa(dp13
g1
I01
sg8
V__delattr__
p14
sg10
L5L
sa(dp15
g1
I01
sg8
V__delitem__
p16
sg10
L5L
sa(dp17
g1
I01
sg7
V__dir__() -> list\u000adefault dir() implementation
p18
sg8
V__dir__
p19
sg10
L2L
sa(dp20
g1
I01
sg8
V__doc__
p21
sg10
L5L
sa(dp22
g1
I01
sg8
V__eq__
p23
sg10
L5L
sa(dp24
g1
I01
sg7
Vdefault object formatter
p25
sg8
V__format__
p26
sg10
L2L
sa(dp27
g1
I01
sg8
V__ge__
p28
sg10
L5L
sa(dp29
g1
I01
sg8
V__getattribute__
p30
sg10
L5L
sa(dp31
g1
I01
sg8
V__getitem__
p32
sg10
L5L
sa(dp33
g1
I01
sg7
Nsg8
V__getstate__
p34
sg10
L2L
sa(dp35
g1
I01
sg8
V__gt__
p36
sg10
L5L
sa(dp37
g1
I01
sg8
V__hash__
p38
sg10
L5L
sa(dp39
g1
I01
sg8
V__init__
p40
sg10
L5L
sa(dp41
g1
I01
sg8
V__le__
p42
sg10
L5L
sa(dp43
g1
I01
sg8
V__len__
p44
sg10
L5L
sa(dp45
g1
I01
sg8
V__lt__
p46
sg10
L5L
sa(dp47
g1
I01
sg8
V__ne__
p48
sg10
L5L
sa(dp49
g1
I01
sg7
VCreate and return a new object.  See help(type) for accurate signature.
p50
sg8
V__new__
p51
sg10
L2L
sa(dp52
g1
I01
sg7
Vhelper for pickle
p53
sg8
V__reduce__
p54
sg10
L2L
sa(dp55
g1
I01
sg7
Vhelper for pickle
p56
sg8
V__reduce_ex__
p57
sg10
L2L
sa(dp58
g1
I01
sg8
V__repr__
p59
sg10
L5L
sa(dp60
g1
I01
sg8
V__setattr__
p61
sg10
L5L
sa(dp62
g1
I01
sg8
V__setitem__
p63
sg10
L5L
sa(dp64
g1
I01
sg7
Nsg8
V__setstate__
p65
sg10
L2L
sa(dp66
g1
I01
sg7
Nsg8
V__sizeof__
p67
sg10
L2L
sa(dp68
g1
I01
sg8
V__str__
p69
sg10
L5L
sa(dp70
g1
I01
sg7
VAbstract classes can override this to customize issubclass().\u000a\u000aThis is invoked early on by abc.ABCMeta.__subclasscheck__().\u000aIt should return True, False or NotImplemented.  If it returns\u000aNotImplemented, the normal algorithm is used.  Otherwise, it\u000aoverrides the normal algorithm (and the outcome is cached).\u000a
p71
sg8
V__subclasshook__
p72
sg10
L2L
sa(dp73
g1
I01
sg7
Nsg8
Vappend
p74
sg10
L2L
sa(dp75
g1
I01
sg7
Nsg8
Vclear
p76
sg10
L2L
sa(dp77
g1
I01
sg7
Nsg8
Vextend
p78
sg10
L2L
sa(dp79
g1
I01
sg7
Nsg8
Vfind
p80
sg10
L2L
sa(dp81
g1
I01
sg7
Nsg8
Vfindall
p82
sg10
L2L
sa(dp83
g1
I01
sg7
Nsg8
Vfindtext
p84
sg10
L2L
sa(dp85
g1
I01
sg7
Nsg8
Vget
p86
sg10
L2L
sa(dp87
g1
I01
sg7
Nsg8
Vgetchildren
p88
sg10
L2L
sa(dp89
g1
I01
sg7
Viter($self, /, tag=None)\u000a--\u000a\u000a
p90
sg8
Vgetiterator
p91
sg10
L2L
sa(dp92
g1
I01
sg7
Nsg8
Vinsert
p93
sg10
L2L
sa(dp94
g1
I01
sg7
Nsg8
Vitems
p95
sg10
L2L
sa(dp96
g1
I01
sg7
Nsg8
Viter
p97
sg10
L2L
sa(dp98
g1
I01
sg7
Nsg8
Viterfind
p99
sg10
L2L
sa(dp100
g1
I01
sg7
Nsg8
Vitertext
p101
sg10
L2L
sa(dp102
g1
I01
sg7
Nsg8
Vkeys
p103
sg10
L2L
sa(dp104
g1
I01
sg7
Nsg8
Vmakeelement
p105
sg10
L2L
sa(dp106
g1
I01
sg7
Nsg8
Vremove
p107
sg10
L2L
sa(dp108
g1
I01
sg7
Nsg8
Vset
p109
sg10
L2L
sasg7
Nsg8
VElement
p110
sg10
L3L
sa(dp111
g1
I01
sg2
(lp112
(dp113
g1
I01
sg8
V__cause__
p114
sg10
L5L
sa(dp115
g1
I01
sg8
V__context__
p116
sg10
L5L
sa(dp117
g1
I01
sg8
g14
sg10
L5L
sa(dp118
g1
I01
sg8
V__dict__
p119
sg10
L5L
sa(dp120
g1
I01
sg7
V__dir__() -> list\u000adefault dir() implementation
p121
sg8
g19
sg10
L2L
sa(dp122
g1
I01
sg8
g21
sg10
L5L
sa(dp123
g1
I01
sg8
g23
sg10
L5L
sa(dp124
g1
I01
sg7
Vdefault object formatter
p125
sg8
g26
sg10
L2L
sa(dp126
g1
I01
sg8
g28
sg10
L5L
sa(dp127
g1
I01
sg8
g30
sg10
L5L
sa(dp128
g1
I01
sg8
g36
sg10
L5L
sa(dp129
g1
I01
sg8
g38
sg10
L5L
sa(dp130
g1
I01
sg8
g40
sg10
L5L
sa(dp131
g1
I01
sg8
g42
sg10
L5L
sa(dp132
g1
I01
sg8
g46
sg10
L5L
sa(dp133
g1
I01
sg8
V__module__
p134
sg10
L5L
sa(dp135
g1
I01
sg8
g48
sg10
L5L
sa(dp136
g1
I01
sg7
VCreate and return a new object.  See help(type) for accurate signature.
p137
sg8
g51
sg10
L2L
sa(dp138
g1
I01
sg7
Nsg8
g54
sg10
L2L
sa(dp139
g1
I01
sg7
Vhelper for pickle
p140
sg8
g57
sg10
L2L
sa(dp141
g1
I01
sg8
g59
sg10
L5L
sa(dp142
g1
I01
sg8
g61
sg10
L5L
sa(dp143
g1
I01
sg7
Nsg8
g65
sg10
L2L
sa(dp144
g1
I01
sg7
V__sizeof__() -> int\u000asize of object in memory, in bytes
p145
sg8
g67
sg10
L2L
sa(dp146
g1
I01
sg8
g69
sg10
L5L
sa(dp147
g1
I01
sg7
VAbstract classes can override this to customize issubclass().\u000a\u000aThis is invoked early on by abc.ABCMeta.__subclasscheck__().\u000aIt should return True, False or NotImplemented.  If it returns\u000aNotImplemented, the normal algorithm is used.  Otherwise, it\u000aoverrides the normal algorithm (and the outcome is cached).\u000a
p148
sg8
g72
sg10
L2L
sa(dp149
g1
I01
sg8
V__suppress_context__
p150
sg10
L5L
sa(dp151
g1
I01
sg8
V__traceback__
p152
sg10
L5L
sa(dp153
g1
I01
sg8
V__weakref__
p154
sg10
L5L
sa(dp155
g1
I01
sg8
Vargs
p156
sg10
L5L
sa(dp157
g1
I01
sg8
Vfilename
p158
sg10
L5L
sa(dp159
g1
I01
sg8
Vlineno
p160
sg10
L5L
sa(dp161
g1
I01
sg8
Vmsg
p162
sg10
L5L
sa(dp163
g1
I01
sg8
Voffset
p164
sg10
L5L
sa(dp165
g1
I01
sg8
Vprint_file_and_line
p166
sg10
L5L
sa(dp167
g1
I01
sg8
Vtext
p168
sg10
L5L
sa(dp169
g1
I01
sg7
VException.with_traceback(tb) --\u000a    set self.__traceback__ to tb and return self.
p170
sg8
Vwith_traceback
p171
sg10
L2L
sasg7
Nsg8
VParseError
p172
sg10
L3L
sa(dp173
g1
I01
sg7
Nsg8
VSubElement
p174
sg10
L2L
sa(dp175
g1
I01
sg2
(lp176
(dp177
g1
I01
sg8
g14
sg10
L5L
sa(dp178
g1
I01
sg7
V__dir__() -> list\u000adefault dir() implementation
p179
sg8
g19
sg10
L2L
sa(dp180
g1
I01
sg8
g21
sg10
L5L
sa(dp181
g1
I01
sg8
g23
sg10
L5L
sa(dp182
g1
I01
sg7
Vdefault object formatter
p183
sg8
g26
sg10
L2L
sa(dp184
g1
I01
sg8
g28
sg10
L5L
sa(dp185
g1
I01
sg8
g30
sg10
L5L
sa(dp186
g1
I01
sg8
g36
sg10
L5L
sa(dp187
g1
I01
sg8
g38
sg10
L5L
sa(dp188
g1
I01
sg8
g40
sg10
L5L
sa(dp189
g1
I01
sg8
g42
sg10
L5L
sa(dp190
g1
I01
sg8
g46
sg10
L5L
sa(dp191
g1
I01
sg8
g48
sg10
L5L
sa(dp192
g1
I01
sg7
VCreate and return a new object.  See help(type) for accurate signature.
p193
sg8
g51
sg10
L2L
sa(dp194
g1
I01
sg7
Vhelper for pickle
p195
sg8
g54
sg10
L2L
sa(dp196
g1
I01
sg7
Vhelper for pickle
p197
sg8
g57
sg10
L2L
sa(dp198
g1
I01
sg8
g59
sg10
L5L
sa(dp199
g1
I01
sg8
g61
sg10
L5L
sa(dp200
g1
I01
sg7
V__sizeof__() -> int\u000asize of object in memory, in bytes
p201
sg8
g67
sg10
L2L
sa(dp202
g1
I01
sg8
g69
sg10
L5L
sa(dp203
g1
I01
sg7
VAbstract classes can override this to customize issubclass().\u000a\u000aThis is invoked early on by abc.ABCMeta.__subclasscheck__().\u000aIt should return True, False or NotImplemented.  If it returns\u000aNotImplemented, the normal algorithm is used.  Otherwise, it\u000aoverrides the normal algorithm (and the outcome is cached).\u000a
p204
sg8
g72
sg10
L2L
sa(dp205
g1
I01
sg7
Nsg8
Vclose
p206
sg10
L2L
sa(dp207
g1
I01
sg7
Nsg8
Vdata
p208
sg10
L2L
sa(dp209
g1
I01
sg7
Nsg8
Vend
p210
sg10
L2L
sa(dp211
g1
I01
sg7
Nsg8
Vstart
p212
sg10
L2L
sasg7
Nsg8
VTreeBuilder
p213
sg10
L3L
sa(dp214
g1
I01
sg2
(lp215
(dp216
g1
I01
sg8
g14
sg10
L5L
sa(dp217
g1
I01
sg7
V__dir__() -> list\u000adefault dir() implementation
p218
sg8
g19
sg10
L2L
sa(dp219
g1
I01
sg8
g21
sg10
L5L
sa(dp220
g1
I01
sg8
g23
sg10
L5L
sa(dp221
g1
I01
sg7
Vdefault object formatter
p222
sg8
g26
sg10
L2L
sa(dp223
g1
I01
sg8
g28
sg10
L5L
sa(dp224
g1
I01
sg8
g30
sg10
L5L
sa(dp225
g1
I01
sg8
g36
sg10
L5L
sa(dp226
g1
I01
sg8
g38
sg10
L5L
sa(dp227
g1
I01
sg8
g40
sg10
L5L
sa(dp228
g1
I01
sg8
g42
sg10
L5L
sa(dp229
g1
I01
sg8
g46
sg10
L5L
sa(dp230
g1
I01
sg8
g48
sg10
L5L
sa(dp231
g1
I01
sg7
VCreate and return a new object.  See help(type) for accurate signature.
p232
sg8
g51
sg10
L2L
sa(dp233
g1
I01
sg7
Vhelper for pickle
p234
sg8
g54
sg10
L2L
sa(dp235
g1
I01
sg7
Vhelper for pickle
p236
sg8
g57
sg10
L2L
sa(dp237
g1
I01
sg8
g59
sg10
L5L
sa(dp238
g1
I01
sg8
g61
sg10
L5L
sa(dp239
g1
I01
sg7
V__sizeof__() -> int\u000asize of object in memory, in bytes
p240
sg8
g67
sg10
L2L
sa(dp241
g1
I01
sg8
g69
sg10
L5L
sa(dp242
g1
I01
sg7
VAbstract classes can override this to customize issubclass().\u000a\u000aThis is invoked early on by abc.ABCMeta.__subclasscheck__().\u000aIt should return True, False or NotImplemented.  If it returns\u000aNotImplemented, the normal algorithm is used.  Otherwise, it\u000aoverrides the normal algorithm (and the outcome is cached).\u000a
p243
sg8
g72
sg10
L2L
sa(dp244
g1
I01
sg7
Nsg8
V_parse_whole
p245
sg10
L2L
sa(dp246
g1
I01
sg7
Nsg8
V_setevents
p247
sg10
L2L
sa(dp248
g1
I01
sg7
Nsg8
g206
sg10
L2L
sa(dp249
g1
I01
sg7
Nsg8
Vdoctype
p250
sg10
L2L
sa(dp251
g1
I01
sg7
Nsg8
Vfeed
p252
sg10
L2L
sasg7
Nsg8
VXMLParser
p253
sg10
L3L
sa(dp254
g1
I01
sg8
g21
sg10
L5L
sa(dp255
g1
I01
sg2
(lp256
(dp257
g1
I01
sg8
g14
sg10
L5L
sa(dp258
g1
I01
sg8
g119
sg10
L5L
sa(dp259
g1
I01
sg7
V__dir__() -> list\u000adefault dir() implementation
p260
sg8
g19
sg10
L2L
sa(dp261
g1
I01
sg8
g21
sg10
L5L
sa(dp262
g1
I01
sg8
g23
sg10
L5L
sa(dp263
g1
I01
sg7
Vdefault object formatter
p264
sg8
g26
sg10
L2L
sa(dp265
g1
I01
sg8
g28
sg10
L5L
sa(dp266
g1
I01
sg8
g30
sg10
L5L
sa(dp267
g1
I01
sg8
g36
sg10
L5L
sa(dp268
g1
I01
sg8
g38
sg10
L5L
sa(dp269
g1
I01
sg8
g40
sg10
L5L
sa(dp270
g1
I01
sg8
g42
sg10
L5L
sa(dp271
g1
I01
sg8
g46
sg10
L5L
sa(dp272
g1
I01
sg8
g134
sg10
L5L
sa(dp273
g1
I01
sg8
g48
sg10
L5L
sa(dp274
g1
I01
sg7
VCreate and return a new object.  See help(type) for accurate signature.
p275
sg8
g51
sg10
L2L
sa(dp276
g1
I01
sg7
Vhelper for pickle
p277
sg8
g54
sg10
L2L
sa(dp278
g1
I01
sg7
Vhelper for pickle
p279
sg8
g57
sg10
L2L
sa(dp280
g1
I01
sg8
g59
sg10
L5L
sa(dp281
g1
I01
sg8
g61
sg10
L5L
sa(dp282
g1
I01
sg7
V__sizeof__() -> int\u000asize of object in memory, in bytes
p283
sg8
g67
sg10
L2L
sa(dp284
g1
I01
sg8
g69
sg10
L5L
sa(dp285
g1
I01
sg7
VAbstract classes can override this to customize issubclass().\u000a\u000aThis is invoked early on by abc.ABCMeta.__subclasscheck__().\u000aIt should return True, False or NotImplemented.  If it returns\u000aNotImplemented, the normal algorithm is used.  Otherwise, it\u000aoverrides the normal algorithm (and the outcome is cached).\u000a
p286
sg8
g72
sg10
L2L
sa(dp287
g1
I01
sg8
g154
sg10
L5L
sa(dp288
g1
I01
sg8
Vcreate_module
p289
sg10
L5L
sa(dp290
g1
I01
sg8
Vexec_module
p291
sg10
L5L
sa(dp292
g1
I01
sg8
Vfind_module
p293
sg10
L5L
sa(dp294
g1
I01
sg8
Vfind_spec
p295
sg10
L5L
sa(dp296
g1
I01
sg8
Vget_code
p297
sg10
L5L
sa(dp298
g1
I01
sg8
Vget_source
p299
sg10
L5L
sa(dp300
g1
I01
sg8
Vis_package
p301
sg10
L5L
sa(dp302
g1
I01
sg8
Vload_module
p303
sg10
L5L
sa(dp304
g1
I01
sg8
Vmodule_repr
p305
sg10
L5L
sasg7
VMeta path import for built-in modules.\u000a\u000a    All methods are either class or static methods to avoid the need to\u000a    instantiate the class.\u000a\u000a    
p306
sg8
V__loader__
p307
sg10
L3L
sa(dp308
g1
I01
sg8
V__name__
p309
sg10
L5L
sa(dp310
g1
I01
sg8
V__package__
p311
sg10
L5L
sa(dp312
g1
I01
sg8
V__spec__
p313
sg10
L5L
sasg7
Nsg8
V_elementtree
p314
sg10
L1L
s.