(dp0
Vis_builtin
p1
I01
sVchilds
p2
(lp3
(dp4
g1
I01
sVname
p5
V__doc__
p6
sVtype
p7
L5L
sa(dp8
g1
I01
sg2
(lp9
(dp10
g1
I01
sg5
V__delattr__
p11
sg7
L5L
sa(dp12
g1
I01
sg5
V__dict__
p13
sg7
L5L
sa(dp14
g1
I01
sVdoc
p15
V__dir__() -> list\u000adefault dir() implementation
p16
sg5
V__dir__
p17
sg7
L2L
sa(dp18
g1
I01
sg5
g6
sg7
L5L
sa(dp19
g1
I01
sg5
V__eq__
p20
sg7
L5L
sa(dp21
g1
I01
sg15
Vdefault object formatter
p22
sg5
V__format__
p23
sg7
L2L
sa(dp24
g1
I01
sg5
V__ge__
p25
sg7
L5L
sa(dp26
g1
I01
sg5
V__getattribute__
p27
sg7
L5L
sa(dp28
g1
I01
sg5
V__gt__
p29
sg7
L5L
sa(dp30
g1
I01
sg5
V__hash__
p31
sg7
L5L
sa(dp32
g1
I01
sg5
V__init__
p33
sg7
L5L
sa(dp34
g1
I01
sg5
V__le__
p35
sg7
L5L
sa(dp36
g1
I01
sg5
V__lt__
p37
sg7
L5L
sa(dp38
g1
I01
sg5
V__module__
p39
sg7
L5L
sa(dp40
g1
I01
sg5
V__ne__
p41
sg7
L5L
sa(dp42
g1
I01
sg15
VCreate and return a new object.  See help(type) for accurate signature.
p43
sg5
V__new__
p44
sg7
L2L
sa(dp45
g1
I01
sg15
Vhelper for pickle
p46
sg5
V__reduce__
p47
sg7
L2L
sa(dp48
g1
I01
sg15
Vhelper for pickle
p49
sg5
V__reduce_ex__
p50
sg7
L2L
sa(dp51
g1
I01
sg5
V__repr__
p52
sg7
L5L
sa(dp53
g1
I01
sg5
V__setattr__
p54
sg7
L5L
sa(dp55
g1
I01
sg15
V__sizeof__() -> int\u000asize of object in memory, in bytes
p56
sg5
V__sizeof__
p57
sg7
L2L
sa(dp58
g1
I01
sg5
V__str__
p59
sg7
L5L
sa(dp60
g1
I01
sg15
VAbstract classes can override this to customize issubclass().\u000a\u000aThis is invoked early on by abc.ABCMeta.__subclasscheck__().\u000aIt should return True, False or NotImplemented.  If it returns\u000aNotImplemented, the normal algorithm is used.  Otherwise, it\u000aoverrides the normal algorithm (and the outcome is cached).\u000a
p61
sg5
V__subclasshook__
p62
sg7
L2L
sa(dp63
g1
I01
sg5
V__weakref__
p64
sg7
L5L
sa(dp65
g1
I01
sg5
Vcreate_module
p66
sg7
L5L
sa(dp67
g1
I01
sg5
Vexec_module
p68
sg7
L5L
sa(dp69
g1
I01
sg5
Vfind_module
p70
sg7
L5L
sa(dp71
g1
I01
sg5
Vfind_spec
p72
sg7
L5L
sa(dp73
g1
I01
sg5
Vget_code
p74
sg7
L5L
sa(dp75
g1
I01
sg5
Vget_source
p76
sg7
L5L
sa(dp77
g1
I01
sg5
Vis_package
p78
sg7
L5L
sa(dp79
g1
I01
sg5
Vload_module
p80
sg7
L5L
sa(dp81
g1
I01
sg5
Vmodule_repr
p82
sg7
L5L
sasg15
VMeta path import for built-in modules.\u000a\u000a    All methods are either class or static methods to avoid the need to\u000a    instantiate the class.\u000a\u000a    
p83
sg5
V__loader__
p84
sg7
L3L
sa(dp85
g1
I01
sg5
V__name__
p86
sg7
L5L
sa(dp87
g1
I01
sg5
V__package__
p88
sg7
L5L
sa(dp89
g1
I01
sg5
V__spec__
p90
sg7
L5L
sa(dp91
g1
I01
sg2
(lp92
(dp93
g1
I01
sg5
V__call__
p94
sg7
L5L
sa(dp95
g1
I01
sg15
Nsg5
V__copy__
p96
sg7
L2L
sa(dp97
g1
I01
sg15
Nsg5
V__deepcopy__
p98
sg7
L2L
sa(dp99
g1
I01
sg5
g11
sg7
L5L
sa(dp100
g1
I01
sg5
g13
sg7
L5L
sa(dp101
g1
I01
sg15
V__dir__() -> list\u000adefault dir() implementation
p102
sg5
g17
sg7
L2L
sa(dp103
g1
I01
sg5
g6
sg7
L5L
sa(dp104
g1
I01
sg5
g20
sg7
L5L
sa(dp105
g1
I01
sg15
Vdefault object formatter
p106
sg5
g23
sg7
L2L
sa(dp107
g1
I01
sg5
g25
sg7
L5L
sa(dp108
g1
I01
sg5
V__get__
p109
sg7
L5L
sa(dp110
g1
I01
sg5
g27
sg7
L5L
sa(dp111
g1
I01
sg5
g29
sg7
L5L
sa(dp112
g1
I01
sg5
g31
sg7
L5L
sa(dp113
g1
I01
sg5
g33
sg7
L5L
sa(dp114
g1
I01
sg5
g35
sg7
L5L
sa(dp115
g1
I01
sg5
g37
sg7
L5L
sa(dp116
g1
I01
sg5
g41
sg7
L5L
sa(dp117
g1
I01
sg15
VCreate and return a new object.  See help(type) for accurate signature.
p118
sg5
g44
sg7
L2L
sa(dp119
g1
I01
sg15
Nsg5
g47
sg7
L2L
sa(dp120
g1
I01
sg15
Vhelper for pickle
p121
sg5
g50
sg7
L2L
sa(dp122
g1
I01
sg5
g52
sg7
L5L
sa(dp123
g1
I01
sg5
g54
sg7
L5L
sa(dp124
g1
I01
sg15
V__sizeof__() -> int\u000asize of object in memory, in bytes
p125
sg5
g57
sg7
L2L
sa(dp126
g1
I01
sg5
g59
sg7
L5L
sa(dp127
g1
I01
sg15
VAbstract classes can override this to customize issubclass().\u000a\u000aThis is invoked early on by abc.ABCMeta.__subclasscheck__().\u000aIt should return True, False or NotImplemented.  If it returns\u000aNotImplemented, the normal algorithm is used.  Otherwise, it\u000aoverrides the normal algorithm (and the outcome is cached).\u000a
p128
sg5
g62
sg7
L2L
sa(dp129
g1
I01
sg15
Nsg5
Vcache_clear
p130
sg7
L2L
sa(dp131
g1
I01
sg15
Nsg5
Vcache_info
p132
sg7
L2L
sasg15
VCreate a cached callable that wraps another function.\u000a\u000auser_function:      the function being cached\u000a\u000amaxsize:  0         for no caching\u000a          None      for unlimited cache size\u000a          n         for a bounded cache\u000a\u000atyped:    False     cache f(3) and f(3.0) as identical calls\u000a          True      cache f(3) and f(3.0) as distinct calls\u000a\u000acache_info_type:    namedtuple class with the fields:\u000a                        hits misses currsize maxsize\u000a
p133
sg5
V_lru_cache_wrapper
p134
sg7
L3L
sa(dp135
g1
I01
sg15
VConvert a cmp= function into a key= function.
p136
sg5
Vcmp_to_key
p137
sg7
L2L
sa(dp138
g1
I01
sg2
(lp139
(dp140
g1
I01
sg5
g94
sg7
L5L
sa(dp141
g1
I01
sg5
g11
sg7
L5L
sa(dp142
g1
I01
sg5
g13
sg7
L5L
sa(dp143
g1
I01
sg15
V__dir__() -> list\u000adefault dir() implementation
p144
sg5
g17
sg7
L2L
sa(dp145
g1
I01
sg5
g6
sg7
L5L
sa(dp146
g1
I01
sg5
g20
sg7
L5L
sa(dp147
g1
I01
sg15
Vdefault object formatter
p148
sg5
g23
sg7
L2L
sa(dp149
g1
I01
sg5
g25
sg7
L5L
sa(dp150
g1
I01
sg5
g27
sg7
L5L
sa(dp151
g1
I01
sg5
g29
sg7
L5L
sa(dp152
g1
I01
sg5
g31
sg7
L5L
sa(dp153
g1
I01
sg5
g33
sg7
L5L
sa(dp154
g1
I01
sg5
g35
sg7
L5L
sa(dp155
g1
I01
sg5
g37
sg7
L5L
sa(dp156
g1
I01
sg5
g41
sg7
L5L
sa(dp157
g1
I01
sg15
VCreate and return a new object.  See help(type) for accurate signature.
p158
sg5
g44
sg7
L2L
sa(dp159
g1
I01
sg15
Nsg5
g47
sg7
L2L
sa(dp160
g1
I01
sg15
Vhelper for pickle
p161
sg5
g50
sg7
L2L
sa(dp162
g1
I01
sg5
g52
sg7
L5L
sa(dp163
g1
I01
sg5
g54
sg7
L5L
sa(dp164
g1
I01
sg15
Nsg5
V__setstate__
p165
sg7
L2L
sa(dp166
g1
I01
sg15
V__sizeof__() -> int\u000asize of object in memory, in bytes
p167
sg5
g57
sg7
L2L
sa(dp168
g1
I01
sg5
g59
sg7
L5L
sa(dp169
g1
I01
sg15
VAbstract classes can override this to customize issubclass().\u000a\u000aThis is invoked early on by abc.ABCMeta.__subclasscheck__().\u000aIt should return True, False or NotImplemented.  If it returns\u000aNotImplemented, the normal algorithm is used.  Otherwise, it\u000aoverrides the normal algorithm (and the outcome is cached).\u000a
p170
sg5
g62
sg7
L2L
sa(dp171
g1
I01
sg5
Vargs
p172
sg7
L5L
sa(dp173
g1
I01
sg5
Vfunc
p174
sg7
L5L
sa(dp175
g1
I01
sg5
Vkeywords
p176
sg7
L5L
sasg15
Vpartial(func, *args, **keywords) - new function with partial application\u000a    of the given arguments and keywords.\u000a
p177
sg5
Vpartial
p178
sg7
L3L
sa(dp179
g1
I01
sg15
Vreduce(function, sequence[, initial]) -> value\u000a\u000aApply a function of two arguments cumulatively to the items of a sequence,\u000afrom left to right, so as to reduce the sequence to a single value.\u000aFor example, reduce(lambda x, y: x+y, [1, 2, 3, 4, 5]) calculates\u000a((((1+2)+3)+4)+5).  If initial is present, it is placed before the items\u000aof the sequence in the calculation, and serves as a default when the\u000asequence is empty.
p180
sg5
Vreduce
p181
sg7
L2L
sasg15
VTools that operate on functions.
p182
sg5
V_functools
p183
sg7
L1L
s.