(dp0
Vis_builtin
p1
I01
sVchilds
p2
(lp3
(dp4
g1
I01
sVname
p5
VABDAY_1
p6
sVtype
p7
L5L
sa(dp8
g1
I01
sg5
VABDAY_2
p9
sg7
L5L
sa(dp10
g1
I01
sg5
VABDAY_3
p11
sg7
L5L
sa(dp12
g1
I01
sg5
VABDAY_4
p13
sg7
L5L
sa(dp14
g1
I01
sg5
VABDAY_5
p15
sg7
L5L
sa(dp16
g1
I01
sg5
VABDAY_6
p17
sg7
L5L
sa(dp18
g1
I01
sg5
VABDAY_7
p19
sg7
L5L
sa(dp20
g1
I01
sg5
VABMON_1
p21
sg7
L5L
sa(dp22
g1
I01
sg5
VABMON_10
p23
sg7
L5L
sa(dp24
g1
I01
sg5
VABMON_11
p25
sg7
L5L
sa(dp26
g1
I01
sg5
VABMON_12
p27
sg7
L5L
sa(dp28
g1
I01
sg5
VABMON_2
p29
sg7
L5L
sa(dp30
g1
I01
sg5
VABMON_3
p31
sg7
L5L
sa(dp32
g1
I01
sg5
VABMON_4
p33
sg7
L5L
sa(dp34
g1
I01
sg5
VABMON_5
p35
sg7
L5L
sa(dp36
g1
I01
sg5
VABMON_6
p37
sg7
L5L
sa(dp38
g1
I01
sg5
VABMON_7
p39
sg7
L5L
sa(dp40
g1
I01
sg5
VABMON_8
p41
sg7
L5L
sa(dp42
g1
I01
sg5
VABMON_9
p43
sg7
L5L
sa(dp44
g1
I01
sg5
VALT_DIGITS
p45
sg7
L5L
sa(dp46
g1
I01
sg5
VAM_STR
p47
sg7
L5L
sa(dp48
g1
I01
sg5
VCHAR_MAX
p49
sg7
L5L
sa(dp50
g1
I01
sg5
VCODESET
p51
sg7
L5L
sa(dp52
g1
I01
sg5
VCRNCYSTR
p53
sg7
L5L
sa(dp54
g1
I01
sg5
VDAY_1
p55
sg7
L5L
sa(dp56
g1
I01
sg5
VDAY_2
p57
sg7
L5L
sa(dp58
g1
I01
sg5
VDAY_3
p59
sg7
L5L
sa(dp60
g1
I01
sg5
VDAY_4
p61
sg7
L5L
sa(dp62
g1
I01
sg5
VDAY_5
p63
sg7
L5L
sa(dp64
g1
I01
sg5
VDAY_6
p65
sg7
L5L
sa(dp66
g1
I01
sg5
VDAY_7
p67
sg7
L5L
sa(dp68
g1
I01
sg5
VD_FMT
p69
sg7
L5L
sa(dp70
g1
I01
sg5
VD_T_FMT
p71
sg7
L5L
sa(dp72
g1
I01
sg5
VERA
p73
sg7
L5L
sa(dp74
g1
I01
sg5
VERA_D_FMT
p75
sg7
L5L
sa(dp76
g1
I01
sg5
VERA_D_T_FMT
p77
sg7
L5L
sa(dp78
g1
I01
sg5
VERA_T_FMT
p79
sg7
L5L
sa(dp80
g1
I01
sg2
(lp81
(dp82
g1
I01
sg5
V__cause__
p83
sg7
L5L
sa(dp84
g1
I01
sg5
V__context__
p85
sg7
L5L
sa(dp86
g1
I01
sg5
V__delattr__
p87
sg7
L5L
sa(dp88
g1
I01
sg5
V__dict__
p89
sg7
L5L
sa(dp90
g1
I01
sVdoc
p91
V__dir__() -> list\u000adefault dir() implementation
p92
sg5
V__dir__
p93
sg7
L2L
sa(dp94
g1
I01
sg5
V__doc__
p95
sg7
L5L
sa(dp96
g1
I01
sg5
V__eq__
p97
sg7
L5L
sa(dp98
g1
I01
sg91
Vdefault object formatter
p99
sg5
V__format__
p100
sg7
L2L
sa(dp101
g1
I01
sg5
V__ge__
p102
sg7
L5L
sa(dp103
g1
I01
sg5
V__getattribute__
p104
sg7
L5L
sa(dp105
g1
I01
sg5
V__gt__
p106
sg7
L5L
sa(dp107
g1
I01
sg5
V__hash__
p108
sg7
L5L
sa(dp109
g1
I01
sg5
V__init__
p110
sg7
L5L
sa(dp111
g1
I01
sg5
V__le__
p112
sg7
L5L
sa(dp113
g1
I01
sg5
V__lt__
p114
sg7
L5L
sa(dp115
g1
I01
sg5
V__module__
p116
sg7
L5L
sa(dp117
g1
I01
sg5
V__ne__
p118
sg7
L5L
sa(dp119
g1
I01
sg91
VCreate and return a new object.  See help(type) for accurate signature.
p120
sg5
V__new__
p121
sg7
L2L
sa(dp122
g1
I01
sg91
Nsg5
V__reduce__
p123
sg7
L2L
sa(dp124
g1
I01
sg91
Vhelper for pickle
p125
sg5
V__reduce_ex__
p126
sg7
L2L
sa(dp127
g1
I01
sg5
V__repr__
p128
sg7
L5L
sa(dp129
g1
I01
sg5
V__setattr__
p130
sg7
L5L
sa(dp131
g1
I01
sg91
Nsg5
V__setstate__
p132
sg7
L2L
sa(dp133
g1
I01
sg91
V__sizeof__() -> int\u000asize of object in memory, in bytes
p134
sg5
V__sizeof__
p135
sg7
L2L
sa(dp136
g1
I01
sg5
V__str__
p137
sg7
L5L
sa(dp138
g1
I01
sg91
VAbstract classes can override this to customize issubclass().\u000a\u000aThis is invoked early on by abc.ABCMeta.__subclasscheck__().\u000aIt should return True, False or NotImplemented.  If it returns\u000aNotImplemented, the normal algorithm is used.  Otherwise, it\u000aoverrides the normal algorithm (and the outcome is cached).\u000a
p139
sg5
V__subclasshook__
p140
sg7
L2L
sa(dp141
g1
I01
sg5
V__suppress_context__
p142
sg7
L5L
sa(dp143
g1
I01
sg5
V__traceback__
p144
sg7
L5L
sa(dp145
g1
I01
sg5
V__weakref__
p146
sg7
L5L
sa(dp147
g1
I01
sg5
Vargs
p148
sg7
L5L
sa(dp149
g1
I01
sg91
VException.with_traceback(tb) --\u000a    set self.__traceback__ to tb and return self.
p150
sg5
Vwith_traceback
p151
sg7
L2L
sasg91
Nsg5
VError
p152
sg7
L3L
sa(dp153
g1
I01
sg5
VLC_ALL
p154
sg7
L5L
sa(dp155
g1
I01
sg5
VLC_COLLATE
p156
sg7
L5L
sa(dp157
g1
I01
sg5
VLC_CTYPE
p158
sg7
L5L
sa(dp159
g1
I01
sg5
VLC_MESSAGES
p160
sg7
L5L
sa(dp161
g1
I01
sg5
VLC_MONETARY
p162
sg7
L5L
sa(dp163
g1
I01
sg5
VLC_NUMERIC
p164
sg7
L5L
sa(dp165
g1
I01
sg5
VLC_TIME
p166
sg7
L5L
sa(dp167
g1
I01
sg5
VMON_1
p168
sg7
L5L
sa(dp169
g1
I01
sg5
VMON_10
p170
sg7
L5L
sa(dp171
g1
I01
sg5
VMON_11
p172
sg7
L5L
sa(dp173
g1
I01
sg5
VMON_12
p174
sg7
L5L
sa(dp175
g1
I01
sg5
VMON_2
p176
sg7
L5L
sa(dp177
g1
I01
sg5
VMON_3
p178
sg7
L5L
sa(dp179
g1
I01
sg5
VMON_4
p180
sg7
L5L
sa(dp181
g1
I01
sg5
VMON_5
p182
sg7
L5L
sa(dp183
g1
I01
sg5
VMON_6
p184
sg7
L5L
sa(dp185
g1
I01
sg5
VMON_7
p186
sg7
L5L
sa(dp187
g1
I01
sg5
VMON_8
p188
sg7
L5L
sa(dp189
g1
I01
sg5
VMON_9
p190
sg7
L5L
sa(dp191
g1
I01
sg5
VNOEXPR
p192
sg7
L5L
sa(dp193
g1
I01
sg5
VPM_STR
p194
sg7
L5L
sa(dp195
g1
I01
sg5
VRADIXCHAR
p196
sg7
L5L
sa(dp197
g1
I01
sg5
VTHOUSEP
p198
sg7
L5L
sa(dp199
g1
I01
sg5
VT_FMT
p200
sg7
L5L
sa(dp201
g1
I01
sg5
VT_FMT_AMPM
p202
sg7
L5L
sa(dp203
g1
I01
sg5
VYESEXPR
p204
sg7
L5L
sa(dp205
g1
I01
sg5
V_DATE_FMT
p206
sg7
L5L
sa(dp207
g1
I01
sg5
g95
sg7
L5L
sa(dp208
g1
I01
sg2
(lp209
(dp210
g1
I01
sg5
g87
sg7
L5L
sa(dp211
g1
I01
sg5
g89
sg7
L5L
sa(dp212
g1
I01
sg91
V__dir__() -> list\u000adefault dir() implementation
p213
sg5
g93
sg7
L2L
sa(dp214
g1
I01
sg5
g95
sg7
L5L
sa(dp215
g1
I01
sg5
g97
sg7
L5L
sa(dp216
g1
I01
sg91
Vdefault object formatter
p217
sg5
g100
sg7
L2L
sa(dp218
g1
I01
sg5
g102
sg7
L5L
sa(dp219
g1
I01
sg5
g104
sg7
L5L
sa(dp220
g1
I01
sg5
g106
sg7
L5L
sa(dp221
g1
I01
sg5
g108
sg7
L5L
sa(dp222
g1
I01
sg5
g110
sg7
L5L
sa(dp223
g1
I01
sg5
g112
sg7
L5L
sa(dp224
g1
I01
sg5
g114
sg7
L5L
sa(dp225
g1
I01
sg5
g116
sg7
L5L
sa(dp226
g1
I01
sg5
g118
sg7
L5L
sa(dp227
g1
I01
sg91
VCreate and return a new object.  See help(type) for accurate signature.
p228
sg5
g121
sg7
L2L
sa(dp229
g1
I01
sg91
Vhelper for pickle
p230
sg5
g123
sg7
L2L
sa(dp231
g1
I01
sg91
Vhelper for pickle
p232
sg5
g126
sg7
L2L
sa(dp233
g1
I01
sg5
g128
sg7
L5L
sa(dp234
g1
I01
sg5
g130
sg7
L5L
sa(dp235
g1
I01
sg91
V__sizeof__() -> int\u000asize of object in memory, in bytes
p236
sg5
g135
sg7
L2L
sa(dp237
g1
I01
sg5
g137
sg7
L5L
sa(dp238
g1
I01
sg91
VAbstract classes can override this to customize issubclass().\u000a\u000aThis is invoked early on by abc.ABCMeta.__subclasscheck__().\u000aIt should return True, False or NotImplemented.  If it returns\u000aNotImplemented, the normal algorithm is used.  Otherwise, it\u000aoverrides the normal algorithm (and the outcome is cached).\u000a
p239
sg5
g140
sg7
L2L
sa(dp240
g1
I01
sg5
g146
sg7
L5L
sa(dp241
g1
I01
sg5
Vcreate_module
p242
sg7
L5L
sa(dp243
g1
I01
sg5
Vexec_module
p244
sg7
L5L
sa(dp245
g1
I01
sg5
Vfind_module
p246
sg7
L5L
sa(dp247
g1
I01
sg5
Vfind_spec
p248
sg7
L5L
sa(dp249
g1
I01
sg5
Vget_code
p250
sg7
L5L
sa(dp251
g1
I01
sg5
Vget_source
p252
sg7
L5L
sa(dp253
g1
I01
sg5
Vis_package
p254
sg7
L5L
sa(dp255
g1
I01
sg5
Vload_module
p256
sg7
L5L
sa(dp257
g1
I01
sg5
Vmodule_repr
p258
sg7
L5L
sasg91
VMeta path import for built-in modules.\u000a\u000a    All methods are either class or static methods to avoid the need to\u000a    instantiate the class.\u000a\u000a    
p259
sg5
V__loader__
p260
sg7
L3L
sa(dp261
g1
I01
sg5
V__name__
p262
sg7
L5L
sa(dp263
g1
I01
sg5
V__package__
p264
sg7
L5L
sa(dp265
g1
I01
sg5
V__spec__
p266
sg7
L5L
sa(dp267
g1
I01
sg91
Vbind_textdomain_codeset(domain, codeset) -> string\u000aBind the C library's domain to codeset.
p268
sg5
Vbind_textdomain_codeset
p269
sg7
L2L
sa(dp270
g1
I01
sg91
Vbindtextdomain(domain, dir) -> string\u000aBind the C library's domain to dir.
p271
sg5
Vbindtextdomain
p272
sg7
L2L
sa(dp273
g1
I01
sg91
Vdcgettext(domain, msg, category) -> string\u000aReturn translation of msg in domain and category.
p274
sg5
Vdcgettext
p275
sg7
L2L
sa(dp276
g1
I01
sg91
Vdgettext(domain, msg) -> string\u000aReturn translation of msg in domain.
p277
sg5
Vdgettext
p278
sg7
L2L
sa(dp279
g1
I01
sg91
Vgettext(msg) -> string\u000aReturn translation of msg.
p280
sg5
Vgettext
p281
sg7
L2L
sa(dp282
g1
I01
sg91
V() -> dict. Returns numeric and monetary locale-specific parameters.
p283
sg5
Vlocaleconv
p284
sg7
L2L
sa(dp285
g1
I01
sg91
Vnl_langinfo(key) -> string\u000aReturn the value for the locale information associated with key.
p286
sg5
Vnl_langinfo
p287
sg7
L2L
sa(dp288
g1
I01
sg91
V(integer,string=None) -> string. Activates/queries locale processing.
p289
sg5
Vsetlocale
p290
sg7
L2L
sa(dp291
g1
I01
sg91
Vstring,string -> int. Compares two strings according to the locale.
p292
sg5
Vstrcoll
p293
sg7
L2L
sa(dp294
g1
I01
sg91
Vstrxfrm(string) -> string.\u000a\u000aReturn a string that can be used as a key for locale-aware comparisons.
p295
sg5
Vstrxfrm
p296
sg7
L2L
sa(dp297
g1
I01
sg91
Vtextdomain(domain) -> string\u000aSet the C library's textdmain to domain, returning the new domain.
p298
sg5
Vtextdomain
p299
sg7
L2L
sasg91
VSupport for POSIX locales.
p300
sg5
V_locale
p301
sg7
L1L
s.