(dp0
Vis_builtin
p1
I01
sVchilds
p2
(lp3
(dp4
g1
I01
sg2
(lp5
(dp6
g1
I01
sVname
p7
V__delattr__
p8
sVtype
p9
L5L
sa(dp10
g1
I01
sVdoc
p11
V__dir__() -> list\u000adefault dir() implementation
p12
sg7
V__dir__
p13
sg9
L2L
sa(dp14
g1
I01
sg7
V__doc__
p15
sg9
L5L
sa(dp16
g1
I01
sg7
V__eq__
p17
sg9
L5L
sa(dp18
g1
I01
sg11
Vdefault object formatter
p19
sg7
V__format__
p20
sg9
L2L
sa(dp21
g1
I01
sg7
V__ge__
p22
sg9
L5L
sa(dp23
g1
I01
sg7
V__getattribute__
p24
sg9
L5L
sa(dp25
g1
I01
sg7
V__gt__
p26
sg9
L5L
sa(dp27
g1
I01
sg7
V__hash__
p28
sg9
L5L
sa(dp29
g1
I01
sg7
V__init__
p30
sg9
L5L
sa(dp31
g1
I01
sg7
V__le__
p32
sg9
L5L
sa(dp33
g1
I01
sg7
V__lt__
p34
sg9
L5L
sa(dp35
g1
I01
sg7
V__ne__
p36
sg9
L5L
sa(dp37
g1
I01
sg11
VCreate and return a new object.  See help(type) for accurate signature.
p38
sg7
V__new__
p39
sg9
L2L
sa(dp40
g1
I01
sg11
Vhelper for pickle
p41
sg7
V__reduce__
p42
sg9
L2L
sa(dp43
g1
I01
sg11
Vhelper for pickle
p44
sg7
V__reduce_ex__
p45
sg9
L2L
sa(dp46
g1
I01
sg7
V__repr__
p47
sg9
L5L
sa(dp48
g1
I01
sg7
V__setattr__
p49
sg9
L5L
sa(dp50
g1
I01
sg11
V__sizeof__() -> int\u000asize of object in memory, in bytes
p51
sg7
V__sizeof__
p52
sg9
L2L
sa(dp53
g1
I01
sg7
V__str__
p54
sg9
L5L
sa(dp55
g1
I01
sg11
VAbstract classes can override this to customize issubclass().\u000a\u000aThis is invoked early on by abc.ABCMeta.__subclasscheck__().\u000aIt should return True, False or NotImplemented.  If it returns\u000aNotImplemented, the normal algorithm is used.  Otherwise, it\u000aoverrides the normal algorithm (and the outcome is cached).\u000a
p56
sg7
V__subclasshook__
p57
sg9
L2L
sa(dp58
g1
I01
sg7
Vblock_size
p59
sg9
L5L
sa(dp60
g1
I01
sg11
VReturn a copy of the hash object.
p61
sg7
Vcopy
p62
sg9
L2L
sa(dp63
g1
I01
sg11
VReturn the digest value as a string of binary data.
p64
sg7
Vdigest
p65
sg9
L2L
sa(dp66
g1
I01
sg7
Vdigest_size
p67
sg9
L5L
sa(dp68
g1
I01
sg11
VReturn the digest value as a string of hexadecimal digits.
p69
sg7
Vhexdigest
p70
sg9
L2L
sa(dp71
g1
I01
sg7
g7
sg9
L5L
sa(dp72
g1
I01
sg11
VUpdate this hash object's state with the provided string.
p73
sg7
Vupdate
p74
sg9
L2L
sasg11
Nsg7
VMD5Type
p75
sg9
L3L
sa(dp76
g1
I01
sg7
g15
sg9
L5L
sa(dp77
g1
I01
sg2
(lp78
(dp79
g1
I01
sg7
g8
sg9
L5L
sa(dp80
g1
I01
sg7
V__dict__
p81
sg9
L5L
sa(dp82
g1
I01
sg11
V__dir__() -> list\u000adefault dir() implementation
p83
sg7
g13
sg9
L2L
sa(dp84
g1
I01
sg7
g15
sg9
L5L
sa(dp85
g1
I01
sg7
g17
sg9
L5L
sa(dp86
g1
I01
sg11
Vdefault object formatter
p87
sg7
g20
sg9
L2L
sa(dp88
g1
I01
sg7
g22
sg9
L5L
sa(dp89
g1
I01
sg7
g24
sg9
L5L
sa(dp90
g1
I01
sg7
g26
sg9
L5L
sa(dp91
g1
I01
sg7
g28
sg9
L5L
sa(dp92
g1
I01
sg7
g30
sg9
L5L
sa(dp93
g1
I01
sg7
g32
sg9
L5L
sa(dp94
g1
I01
sg7
g34
sg9
L5L
sa(dp95
g1
I01
sg7
V__module__
p96
sg9
L5L
sa(dp97
g1
I01
sg7
g36
sg9
L5L
sa(dp98
g1
I01
sg11
VCreate and return a new object.  See help(type) for accurate signature.
p99
sg7
g39
sg9
L2L
sa(dp100
g1
I01
sg11
Vhelper for pickle
p101
sg7
g42
sg9
L2L
sa(dp102
g1
I01
sg11
Vhelper for pickle
p103
sg7
g45
sg9
L2L
sa(dp104
g1
I01
sg7
g47
sg9
L5L
sa(dp105
g1
I01
sg7
g49
sg9
L5L
sa(dp106
g1
I01
sg11
V__sizeof__() -> int\u000asize of object in memory, in bytes
p107
sg7
g52
sg9
L2L
sa(dp108
g1
I01
sg7
g54
sg9
L5L
sa(dp109
g1
I01
sg11
VAbstract classes can override this to customize issubclass().\u000a\u000aThis is invoked early on by abc.ABCMeta.__subclasscheck__().\u000aIt should return True, False or NotImplemented.  If it returns\u000aNotImplemented, the normal algorithm is used.  Otherwise, it\u000aoverrides the normal algorithm (and the outcome is cached).\u000a
p110
sg7
g57
sg9
L2L
sa(dp111
g1
I01
sg7
V__weakref__
p112
sg9
L5L
sa(dp113
g1
I01
sg7
Vcreate_module
p114
sg9
L5L
sa(dp115
g1
I01
sg7
Vexec_module
p116
sg9
L5L
sa(dp117
g1
I01
sg7
Vfind_module
p118
sg9
L5L
sa(dp119
g1
I01
sg7
Vfind_spec
p120
sg9
L5L
sa(dp121
g1
I01
sg7
Vget_code
p122
sg9
L5L
sa(dp123
g1
I01
sg7
Vget_source
p124
sg9
L5L
sa(dp125
g1
I01
sg7
Vis_package
p126
sg9
L5L
sa(dp127
g1
I01
sg7
Vload_module
p128
sg9
L5L
sa(dp129
g1
I01
sg7
Vmodule_repr
p130
sg9
L5L
sasg11
VMeta path import for built-in modules.\u000a\u000a    All methods are either class or static methods to avoid the need to\u000a    instantiate the class.\u000a\u000a    
p131
sg7
V__loader__
p132
sg9
L3L
sa(dp133
g1
I01
sg7
V__name__
p134
sg9
L5L
sa(dp135
g1
I01
sg7
V__package__
p136
sg9
L5L
sa(dp137
g1
I01
sg7
V__spec__
p138
sg9
L5L
sa(dp139
g1
I01
sg11
VReturn a new MD5 hash object; optionally initialized with a string.
p140
sg7
Vmd5
p141
sg9
L2L
sasg11
Nsg7
V_md5
p142
sg9
L1L
s.