(dp0
Vis_builtin
p1
I01
sVchilds
p2
(lp3
(dp4
g1
I01
sg2
(lp5
(dp6
g1
I01
sVname
p7
V__delattr__
p8
sVtype
p9
L5L
sa(dp10
g1
I01
sVdoc
p11
V__dir__() -> list\u000adefault dir() implementation
p12
sg7
V__dir__
p13
sg9
L2L
sa(dp14
g1
I01
sg7
V__doc__
p15
sg9
L5L
sa(dp16
g1
I01
sg7
V__eq__
p17
sg9
L5L
sa(dp18
g1
I01
sg11
Vdefault object formatter
p19
sg7
V__format__
p20
sg9
L2L
sa(dp21
g1
I01
sg7
V__ge__
p22
sg9
L5L
sa(dp23
g1
I01
sg7
V__getattribute__
p24
sg9
L5L
sa(dp25
g1
I01
sg7
V__gt__
p26
sg9
L5L
sa(dp27
g1
I01
sg7
V__hash__
p28
sg9
L5L
sa(dp29
g1
I01
sg7
V__init__
p30
sg9
L5L
sa(dp31
g1
I01
sg7
V__le__
p32
sg9
L5L
sa(dp33
g1
I01
sg7
V__lt__
p34
sg9
L5L
sa(dp35
g1
I01
sg7
V__ne__
p36
sg9
L5L
sa(dp37
g1
I01
sg11
VCreate and return a new object.  See help(type) for accurate signature.
p38
sg7
V__new__
p39
sg9
L2L
sa(dp40
g1
I01
sg11
Vhelper for pickle
p41
sg7
V__reduce__
p42
sg9
L2L
sa(dp43
g1
I01
sg11
Vhelper for pickle
p44
sg7
V__reduce_ex__
p45
sg9
L2L
sa(dp46
g1
I01
sg7
V__repr__
p47
sg9
L5L
sa(dp48
g1
I01
sg7
V__setattr__
p49
sg9
L5L
sa(dp50
g1
I01
sg11
V__sizeof__() -> int\u000asize of object in memory, in bytes
p51
sg7
V__sizeof__
p52
sg9
L2L
sa(dp53
g1
I01
sg7
V__str__
p54
sg9
L5L
sa(dp55
g1
I01
sg11
VAbstract classes can override this to customize issubclass().\u000a\u000aThis is invoked early on by abc.ABCMeta.__subclasscheck__().\u000aIt should return True, False or NotImplemented.  If it returns\u000aNotImplemented, the normal algorithm is used.  Otherwise, it\u000aoverrides the normal algorithm (and the outcome is cached).\u000a
p56
sg7
V__subclasshook__
p57
sg9
L2L
sa(dp58
g1
I01
sg7
Vblock_size
p59
sg9
L5L
sa(dp60
g1
I01
sg11
VReturn a copy of the hash object.
p61
sg7
Vcopy
p62
sg9
L2L
sa(dp63
g1
I01
sg11
VReturn the digest value as a string of binary data.
p64
sg7
Vdigest
p65
sg9
L2L
sa(dp66
g1
I01
sg7
Vdigest_size
p67
sg9
L5L
sa(dp68
g1
I01
sg11
VReturn the digest value as a string of hexadecimal digits.
p69
sg7
Vhexdigest
p70
sg9
L2L
sa(dp71
g1
I01
sg7
g7
sg9
L5L
sa(dp72
g1
I01
sg11
VUpdate this hash object's state with the provided string.
p73
sg7
Vupdate
p74
sg9
L2L
sasg11
Nsg7
VSHA384Type
p75
sg9
L3L
sa(dp76
g1
I01
sg2
(lp77
(dp78
g1
I01
sg7
g8
sg9
L5L
sa(dp79
g1
I01
sg11
V__dir__() -> list\u000adefault dir() implementation
p80
sg7
g13
sg9
L2L
sa(dp81
g1
I01
sg7
g15
sg9
L5L
sa(dp82
g1
I01
sg7
g17
sg9
L5L
sa(dp83
g1
I01
sg11
Vdefault object formatter
p84
sg7
g20
sg9
L2L
sa(dp85
g1
I01
sg7
g22
sg9
L5L
sa(dp86
g1
I01
sg7
g24
sg9
L5L
sa(dp87
g1
I01
sg7
g26
sg9
L5L
sa(dp88
g1
I01
sg7
g28
sg9
L5L
sa(dp89
g1
I01
sg7
g30
sg9
L5L
sa(dp90
g1
I01
sg7
g32
sg9
L5L
sa(dp91
g1
I01
sg7
g34
sg9
L5L
sa(dp92
g1
I01
sg7
g36
sg9
L5L
sa(dp93
g1
I01
sg11
VCreate and return a new object.  See help(type) for accurate signature.
p94
sg7
g39
sg9
L2L
sa(dp95
g1
I01
sg11
Vhelper for pickle
p96
sg7
g42
sg9
L2L
sa(dp97
g1
I01
sg11
Vhelper for pickle
p98
sg7
g45
sg9
L2L
sa(dp99
g1
I01
sg7
g47
sg9
L5L
sa(dp100
g1
I01
sg7
g49
sg9
L5L
sa(dp101
g1
I01
sg11
V__sizeof__() -> int\u000asize of object in memory, in bytes
p102
sg7
g52
sg9
L2L
sa(dp103
g1
I01
sg7
g54
sg9
L5L
sa(dp104
g1
I01
sg11
VAbstract classes can override this to customize issubclass().\u000a\u000aThis is invoked early on by abc.ABCMeta.__subclasscheck__().\u000aIt should return True, False or NotImplemented.  If it returns\u000aNotImplemented, the normal algorithm is used.  Otherwise, it\u000aoverrides the normal algorithm (and the outcome is cached).\u000a
p105
sg7
g57
sg9
L2L
sa(dp106
g1
I01
sg7
g59
sg9
L5L
sa(dp107
g1
I01
sg11
VReturn a copy of the hash object.
p108
sg7
g62
sg9
L2L
sa(dp109
g1
I01
sg11
VReturn the digest value as a string of binary data.
p110
sg7
g65
sg9
L2L
sa(dp111
g1
I01
sg7
g67
sg9
L5L
sa(dp112
g1
I01
sg11
VReturn the digest value as a string of hexadecimal digits.
p113
sg7
g70
sg9
L2L
sa(dp114
g1
I01
sg7
g7
sg9
L5L
sa(dp115
g1
I01
sg11
VUpdate this hash object's state with the provided string.
p116
sg7
g74
sg9
L2L
sasg11
Nsg7
VSHA512Type
p117
sg9
L3L
sa(dp118
g1
I01
sg7
g15
sg9
L5L
sa(dp119
g1
I01
sg2
(lp120
(dp121
g1
I01
sg7
g8
sg9
L5L
sa(dp122
g1
I01
sg7
V__dict__
p123
sg9
L5L
sa(dp124
g1
I01
sg11
V__dir__() -> list\u000adefault dir() implementation
p125
sg7
g13
sg9
L2L
sa(dp126
g1
I01
sg7
g15
sg9
L5L
sa(dp127
g1
I01
sg7
g17
sg9
L5L
sa(dp128
g1
I01
sg11
Vdefault object formatter
p129
sg7
g20
sg9
L2L
sa(dp130
g1
I01
sg7
g22
sg9
L5L
sa(dp131
g1
I01
sg7
g24
sg9
L5L
sa(dp132
g1
I01
sg7
g26
sg9
L5L
sa(dp133
g1
I01
sg7
g28
sg9
L5L
sa(dp134
g1
I01
sg7
g30
sg9
L5L
sa(dp135
g1
I01
sg7
g32
sg9
L5L
sa(dp136
g1
I01
sg7
g34
sg9
L5L
sa(dp137
g1
I01
sg7
V__module__
p138
sg9
L5L
sa(dp139
g1
I01
sg7
g36
sg9
L5L
sa(dp140
g1
I01
sg11
VCreate and return a new object.  See help(type) for accurate signature.
p141
sg7
g39
sg9
L2L
sa(dp142
g1
I01
sg11
Vhelper for pickle
p143
sg7
g42
sg9
L2L
sa(dp144
g1
I01
sg11
Vhelper for pickle
p145
sg7
g45
sg9
L2L
sa(dp146
g1
I01
sg7
g47
sg9
L5L
sa(dp147
g1
I01
sg7
g49
sg9
L5L
sa(dp148
g1
I01
sg11
V__sizeof__() -> int\u000asize of object in memory, in bytes
p149
sg7
g52
sg9
L2L
sa(dp150
g1
I01
sg7
g54
sg9
L5L
sa(dp151
g1
I01
sg11
VAbstract classes can override this to customize issubclass().\u000a\u000aThis is invoked early on by abc.ABCMeta.__subclasscheck__().\u000aIt should return True, False or NotImplemented.  If it returns\u000aNotImplemented, the normal algorithm is used.  Otherwise, it\u000aoverrides the normal algorithm (and the outcome is cached).\u000a
p152
sg7
g57
sg9
L2L
sa(dp153
g1
I01
sg7
V__weakref__
p154
sg9
L5L
sa(dp155
g1
I01
sg7
Vcreate_module
p156
sg9
L5L
sa(dp157
g1
I01
sg7
Vexec_module
p158
sg9
L5L
sa(dp159
g1
I01
sg7
Vfind_module
p160
sg9
L5L
sa(dp161
g1
I01
sg7
Vfind_spec
p162
sg9
L5L
sa(dp163
g1
I01
sg7
Vget_code
p164
sg9
L5L
sa(dp165
g1
I01
sg7
Vget_source
p166
sg9
L5L
sa(dp167
g1
I01
sg7
Vis_package
p168
sg9
L5L
sa(dp169
g1
I01
sg7
Vload_module
p170
sg9
L5L
sa(dp171
g1
I01
sg7
Vmodule_repr
p172
sg9
L5L
sasg11
VMeta path import for built-in modules.\u000a\u000a    All methods are either class or static methods to avoid the need to\u000a    instantiate the class.\u000a\u000a    
p173
sg7
V__loader__
p174
sg9
L3L
sa(dp175
g1
I01
sg7
V__name__
p176
sg9
L5L
sa(dp177
g1
I01
sg7
V__package__
p178
sg9
L5L
sa(dp179
g1
I01
sg7
V__spec__
p180
sg9
L5L
sa(dp181
g1
I01
sg11
VReturn a new SHA-384 hash object; optionally initialized with a string.
p182
sg7
Vsha384
p183
sg9
L2L
sa(dp184
g1
I01
sg11
VReturn a new SHA-512 hash object; optionally initialized with a string.
p185
sg7
Vsha512
p186
sg9
L2L
sasg11
Nsg7
V_sha512
p187
sg9
L1L
s.