(dp0
Vis_builtin
p1
I01
sVchilds
p2
(lp3
(dp4
g1
I01
sg2
(lp5
(dp6
g1
I01
sVname
p7
V__cause__
p8
sVtype
p9
L5L
sa(dp10
g1
I01
sg7
V__context__
p11
sg9
L5L
sa(dp12
g1
I01
sg7
V__delattr__
p13
sg9
L5L
sa(dp14
g1
I01
sg7
V__dict__
p15
sg9
L5L
sa(dp16
g1
I01
sVdoc
p17
V__dir__() -> list\u000adefault dir() implementation
p18
sg7
V__dir__
p19
sg9
L2L
sa(dp20
g1
I01
sg7
V__doc__
p21
sg9
L5L
sa(dp22
g1
I01
sg7
V__eq__
p23
sg9
L5L
sa(dp24
g1
I01
sg17
Vdefault object formatter
p25
sg7
V__format__
p26
sg9
L2L
sa(dp27
g1
I01
sg7
V__ge__
p28
sg9
L5L
sa(dp29
g1
I01
sg7
V__getattribute__
p30
sg9
L5L
sa(dp31
g1
I01
sg7
V__gt__
p32
sg9
L5L
sa(dp33
g1
I01
sg7
V__hash__
p34
sg9
L5L
sa(dp35
g1
I01
sg7
V__init__
p36
sg9
L5L
sa(dp37
g1
I01
sg7
V__le__
p38
sg9
L5L
sa(dp39
g1
I01
sg7
V__lt__
p40
sg9
L5L
sa(dp41
g1
I01
sg7
V__module__
p42
sg9
L5L
sa(dp43
g1
I01
sg7
V__ne__
p44
sg9
L5L
sa(dp45
g1
I01
sg17
VCreate and return a new object.  See help(type) for accurate signature.
p46
sg7
V__new__
p47
sg9
L2L
sa(dp48
g1
I01
sg17
Nsg7
V__reduce__
p49
sg9
L2L
sa(dp50
g1
I01
sg17
Vhelper for pickle
p51
sg7
V__reduce_ex__
p52
sg9
L2L
sa(dp53
g1
I01
sg7
V__repr__
p54
sg9
L5L
sa(dp55
g1
I01
sg7
V__setattr__
p56
sg9
L5L
sa(dp57
g1
I01
sg17
Nsg7
V__setstate__
p58
sg9
L2L
sa(dp59
g1
I01
sg17
V__sizeof__() -> int\u000asize of object in memory, in bytes
p60
sg7
V__sizeof__
p61
sg9
L2L
sa(dp62
g1
I01
sg7
V__str__
p63
sg9
L5L
sa(dp64
g1
I01
sg17
VAbstract classes can override this to customize issubclass().\u000a\u000aThis is invoked early on by abc.ABCMeta.__subclasscheck__().\u000aIt should return True, False or NotImplemented.  If it returns\u000aNotImplemented, the normal algorithm is used.  Otherwise, it\u000aoverrides the normal algorithm (and the outcome is cached).\u000a
p65
sg7
V__subclasshook__
p66
sg9
L2L
sa(dp67
g1
I01
sg7
V__suppress_context__
p68
sg9
L5L
sa(dp69
g1
I01
sg7
V__traceback__
p70
sg9
L5L
sa(dp71
g1
I01
sg7
V__weakref__
p72
sg9
L5L
sa(dp73
g1
I01
sg7
Vargs
p74
sg9
L5L
sa(dp75
g1
I01
sg17
VException.with_traceback(tb) --\u000a    set self.__traceback__ to tb and return self.
p76
sg7
Vwith_traceback
p77
sg9
L2L
sasg17
Nsg7
VError
p78
sg9
L3L
sa(dp79
g1
I01
sg2
(lp80
(dp81
g1
I01
sg7
g8
sg9
L5L
sa(dp82
g1
I01
sg7
g11
sg9
L5L
sa(dp83
g1
I01
sg7
g13
sg9
L5L
sa(dp84
g1
I01
sg7
g15
sg9
L5L
sa(dp85
g1
I01
sg17
V__dir__() -> list\u000adefault dir() implementation
p86
sg7
g19
sg9
L2L
sa(dp87
g1
I01
sg7
g21
sg9
L5L
sa(dp88
g1
I01
sg7
g23
sg9
L5L
sa(dp89
g1
I01
sg17
Vdefault object formatter
p90
sg7
g26
sg9
L2L
sa(dp91
g1
I01
sg7
g28
sg9
L5L
sa(dp92
g1
I01
sg7
g30
sg9
L5L
sa(dp93
g1
I01
sg7
g32
sg9
L5L
sa(dp94
g1
I01
sg7
g34
sg9
L5L
sa(dp95
g1
I01
sg7
g36
sg9
L5L
sa(dp96
g1
I01
sg7
g38
sg9
L5L
sa(dp97
g1
I01
sg7
g40
sg9
L5L
sa(dp98
g1
I01
sg7
g42
sg9
L5L
sa(dp99
g1
I01
sg7
g44
sg9
L5L
sa(dp100
g1
I01
sg17
VCreate and return a new object.  See help(type) for accurate signature.
p101
sg7
g47
sg9
L2L
sa(dp102
g1
I01
sg17
Nsg7
g49
sg9
L2L
sa(dp103
g1
I01
sg17
Vhelper for pickle
p104
sg7
g52
sg9
L2L
sa(dp105
g1
I01
sg7
g54
sg9
L5L
sa(dp106
g1
I01
sg7
g56
sg9
L5L
sa(dp107
g1
I01
sg17
Nsg7
g58
sg9
L2L
sa(dp108
g1
I01
sg17
V__sizeof__() -> int\u000asize of object in memory, in bytes
p109
sg7
g61
sg9
L2L
sa(dp110
g1
I01
sg7
g63
sg9
L5L
sa(dp111
g1
I01
sg17
VAbstract classes can override this to customize issubclass().\u000a\u000aThis is invoked early on by abc.ABCMeta.__subclasscheck__().\u000aIt should return True, False or NotImplemented.  If it returns\u000aNotImplemented, the normal algorithm is used.  Otherwise, it\u000aoverrides the normal algorithm (and the outcome is cached).\u000a
p112
sg7
g66
sg9
L2L
sa(dp113
g1
I01
sg7
g68
sg9
L5L
sa(dp114
g1
I01
sg7
g70
sg9
L5L
sa(dp115
g1
I01
sg7
g72
sg9
L5L
sa(dp116
g1
I01
sg7
g74
sg9
L5L
sa(dp117
g1
I01
sg17
VException.with_traceback(tb) --\u000a    set self.__traceback__ to tb and return self.
p118
sg7
g77
sg9
L2L
sasg17
Nsg7
VIncomplete
p119
sg9
L3L
sa(dp120
g1
I01
sg7
g21
sg9
L5L
sa(dp121
g1
I01
sg2
(lp122
(dp123
g1
I01
sg7
g13
sg9
L5L
sa(dp124
g1
I01
sg7
g15
sg9
L5L
sa(dp125
g1
I01
sg17
V__dir__() -> list\u000adefault dir() implementation
p126
sg7
g19
sg9
L2L
sa(dp127
g1
I01
sg7
g21
sg9
L5L
sa(dp128
g1
I01
sg7
g23
sg9
L5L
sa(dp129
g1
I01
sg17
Vdefault object formatter
p130
sg7
g26
sg9
L2L
sa(dp131
g1
I01
sg7
g28
sg9
L5L
sa(dp132
g1
I01
sg7
g30
sg9
L5L
sa(dp133
g1
I01
sg7
g32
sg9
L5L
sa(dp134
g1
I01
sg7
g34
sg9
L5L
sa(dp135
g1
I01
sg7
g36
sg9
L5L
sa(dp136
g1
I01
sg7
g38
sg9
L5L
sa(dp137
g1
I01
sg7
g40
sg9
L5L
sa(dp138
g1
I01
sg7
g42
sg9
L5L
sa(dp139
g1
I01
sg7
g44
sg9
L5L
sa(dp140
g1
I01
sg17
VCreate and return a new object.  See help(type) for accurate signature.
p141
sg7
g47
sg9
L2L
sa(dp142
g1
I01
sg17
Vhelper for pickle
p143
sg7
g49
sg9
L2L
sa(dp144
g1
I01
sg17
Vhelper for pickle
p145
sg7
g52
sg9
L2L
sa(dp146
g1
I01
sg7
g54
sg9
L5L
sa(dp147
g1
I01
sg7
g56
sg9
L5L
sa(dp148
g1
I01
sg17
V__sizeof__() -> int\u000asize of object in memory, in bytes
p149
sg7
g61
sg9
L2L
sa(dp150
g1
I01
sg7
g63
sg9
L5L
sa(dp151
g1
I01
sg17
VAbstract classes can override this to customize issubclass().\u000a\u000aThis is invoked early on by abc.ABCMeta.__subclasscheck__().\u000aIt should return True, False or NotImplemented.  If it returns\u000aNotImplemented, the normal algorithm is used.  Otherwise, it\u000aoverrides the normal algorithm (and the outcome is cached).\u000a
p152
sg7
g66
sg9
L2L
sa(dp153
g1
I01
sg7
g72
sg9
L5L
sa(dp154
g1
I01
sg7
Vcreate_module
p155
sg9
L5L
sa(dp156
g1
I01
sg7
Vexec_module
p157
sg9
L5L
sa(dp158
g1
I01
sg7
Vfind_module
p159
sg9
L5L
sa(dp160
g1
I01
sg7
Vfind_spec
p161
sg9
L5L
sa(dp162
g1
I01
sg7
Vget_code
p163
sg9
L5L
sa(dp164
g1
I01
sg7
Vget_source
p165
sg9
L5L
sa(dp166
g1
I01
sg7
Vis_package
p167
sg9
L5L
sa(dp168
g1
I01
sg7
Vload_module
p169
sg9
L5L
sa(dp170
g1
I01
sg7
Vmodule_repr
p171
sg9
L5L
sasg17
VMeta path import for built-in modules.\u000a\u000a    All methods are either class or static methods to avoid the need to\u000a    instantiate the class.\u000a\u000a    
p172
sg7
V__loader__
p173
sg9
L3L
sa(dp174
g1
I01
sg7
V__name__
p175
sg9
L5L
sa(dp176
g1
I01
sg7
V__package__
p177
sg9
L5L
sa(dp178
g1
I01
sg7
V__spec__
p179
sg9
L5L
sa(dp180
g1
I01
sg17
VDecode a line of base64 data.
p181
sg7
Va2b_base64
p182
sg9
L2L
sa(dp183
g1
I01
sg17
VBinary data of hexadecimal representation.\u000a\u000ahexstr must contain an even number of hex digits (upper or lower case).\u000aThis function is also available as "unhexlify()".
p184
sg7
Va2b_hex
p185
sg9
L2L
sa(dp186
g1
I01
sg17
VDecode .hqx coding.
p187
sg7
Va2b_hqx
p188
sg9
L2L
sa(dp189
g1
I01
sg17
VDecode a string of qp-encoded data.
p190
sg7
Va2b_qp
p191
sg9
L2L
sa(dp192
g1
I01
sg17
VDecode a line of uuencoded data.
p193
sg7
Va2b_uu
p194
sg9
L2L
sa(dp195
g1
I01
sg17
VBase64-code line of data.
p196
sg7
Vb2a_base64
p197
sg9
L2L
sa(dp198
g1
I01
sg17
VHexadecimal representation of binary data.\u000a\u000aThe return value is a bytes object.  This function is also\u000aavailable as "hexlify()".
p199
sg7
Vb2a_hex
p200
sg9
L2L
sa(dp201
g1
I01
sg17
VEncode .hqx data.
p202
sg7
Vb2a_hqx
p203
sg9
L2L
sa(dp204
g1
I01
sg17
VEncode a string using quoted-printable encoding.\u000a\u000aOn encoding, when istext is set, newlines are not encoded, and white\u000aspace at end of lines is.  When istext is not set, \u005cr and \u005cn (CR/LF)\u000aare both encoded.  When quotetabs is set, space and tabs are encoded.
p205
sg7
Vb2a_qp
p206
sg9
L2L
sa(dp207
g1
I01
sg17
VUuencode line of data.
p208
sg7
Vb2a_uu
p209
sg9
L2L
sa(dp210
g1
I01
sg17
VCompute CRC-32 incrementally.
p211
sg7
Vcrc32
p212
sg9
L2L
sa(dp213
g1
I01
sg17
VCompute hqx CRC incrementally.
p214
sg7
Vcrc_hqx
p215
sg9
L2L
sa(dp216
g1
I01
sg17
VHexadecimal representation of binary data.\u000a\u000aThe return value is a bytes object.
p217
sg7
Vhexlify
p218
sg9
L2L
sa(dp219
g1
I01
sg17
VBinhex RLE-code binary data.
p220
sg7
Vrlecode_hqx
p221
sg9
L2L
sa(dp222
g1
I01
sg17
VDecode hexbin RLE-coded string.
p223
sg7
Vrledecode_hqx
p224
sg9
L2L
sa(dp225
g1
I01
sg17
VBinary data of hexadecimal representation.\u000a\u000ahexstr must contain an even number of hex digits (upper or lower case).
p226
sg7
Vunhexlify
p227
sg9
L2L
sasg17
VConversion between binary data and ASCII
p228
sg7
Vbinascii
p229
sg9
L1L
s.