(dp0
Vis_builtin
p1
I01
sVchilds
p2
(lp3
(dp4
g1
I01
sVname
p5
VE2BIG
p6
sVtype
p7
L5L
sa(dp8
g1
I01
sg5
VEACCES
p9
sg7
L5L
sa(dp10
g1
I01
sg5
VEADDRINUSE
p11
sg7
L5L
sa(dp12
g1
I01
sg5
VEADDRNOTAVAIL
p13
sg7
L5L
sa(dp14
g1
I01
sg5
VEADV
p15
sg7
L5L
sa(dp16
g1
I01
sg5
VEAFNOSUPPORT
p17
sg7
L5L
sa(dp18
g1
I01
sg5
VEAGAIN
p19
sg7
L5L
sa(dp20
g1
I01
sg5
VEALREADY
p21
sg7
L5L
sa(dp22
g1
I01
sg5
VEBADE
p23
sg7
L5L
sa(dp24
g1
I01
sg5
VEBADF
p25
sg7
L5L
sa(dp26
g1
I01
sg5
VEBADFD
p27
sg7
L5L
sa(dp28
g1
I01
sg5
VEBADMSG
p29
sg7
L5L
sa(dp30
g1
I01
sg5
VEBADR
p31
sg7
L5L
sa(dp32
g1
I01
sg5
VEBADRQC
p33
sg7
L5L
sa(dp34
g1
I01
sg5
VEBADSLT
p35
sg7
L5L
sa(dp36
g1
I01
sg5
VEBFONT
p37
sg7
L5L
sa(dp38
g1
I01
sg5
VEBUSY
p39
sg7
L5L
sa(dp40
g1
I01
sg5
VECANCELED
p41
sg7
L5L
sa(dp42
g1
I01
sg5
VECHILD
p43
sg7
L5L
sa(dp44
g1
I01
sg5
VECHRNG
p45
sg7
L5L
sa(dp46
g1
I01
sg5
VECOMM
p47
sg7
L5L
sa(dp48
g1
I01
sg5
VECONNABORTED
p49
sg7
L5L
sa(dp50
g1
I01
sg5
VECONNREFUSED
p51
sg7
L5L
sa(dp52
g1
I01
sg5
VECONNRESET
p53
sg7
L5L
sa(dp54
g1
I01
sg5
VEDEADLK
p55
sg7
L5L
sa(dp56
g1
I01
sg5
VEDEADLOCK
p57
sg7
L5L
sa(dp58
g1
I01
sg5
VEDESTADDRREQ
p59
sg7
L5L
sa(dp60
g1
I01
sg5
VEDOM
p61
sg7
L5L
sa(dp62
g1
I01
sg5
VEDOTDOT
p63
sg7
L5L
sa(dp64
g1
I01
sg5
VEDQUOT
p65
sg7
L5L
sa(dp66
g1
I01
sg5
VEEXIST
p67
sg7
L5L
sa(dp68
g1
I01
sg5
VEFAULT
p69
sg7
L5L
sa(dp70
g1
I01
sg5
VEFBIG
p71
sg7
L5L
sa(dp72
g1
I01
sg5
VEHOSTDOWN
p73
sg7
L5L
sa(dp74
g1
I01
sg5
VEHOSTUNREACH
p75
sg7
L5L
sa(dp76
g1
I01
sg5
VEIDRM
p77
sg7
L5L
sa(dp78
g1
I01
sg5
VEILSEQ
p79
sg7
L5L
sa(dp80
g1
I01
sg5
VEINPROGRESS
p81
sg7
L5L
sa(dp82
g1
I01
sg5
VEINTR
p83
sg7
L5L
sa(dp84
g1
I01
sg5
VEINVAL
p85
sg7
L5L
sa(dp86
g1
I01
sg5
VEIO
p87
sg7
L5L
sa(dp88
g1
I01
sg5
VEISCONN
p89
sg7
L5L
sa(dp90
g1
I01
sg5
VEISDIR
p91
sg7
L5L
sa(dp92
g1
I01
sg5
VEISNAM
p93
sg7
L5L
sa(dp94
g1
I01
sg5
VEKEYEXPIRED
p95
sg7
L5L
sa(dp96
g1
I01
sg5
VEKEYREJECTED
p97
sg7
L5L
sa(dp98
g1
I01
sg5
VEKEYREVOKED
p99
sg7
L5L
sa(dp100
g1
I01
sg5
VEL2HLT
p101
sg7
L5L
sa(dp102
g1
I01
sg5
VEL2NSYNC
p103
sg7
L5L
sa(dp104
g1
I01
sg5
VEL3HLT
p105
sg7
L5L
sa(dp106
g1
I01
sg5
VEL3RST
p107
sg7
L5L
sa(dp108
g1
I01
sg5
VELIBACC
p109
sg7
L5L
sa(dp110
g1
I01
sg5
VELIBBAD
p111
sg7
L5L
sa(dp112
g1
I01
sg5
VELIBEXEC
p113
sg7
L5L
sa(dp114
g1
I01
sg5
VELIBMAX
p115
sg7
L5L
sa(dp116
g1
I01
sg5
VELIBSCN
p117
sg7
L5L
sa(dp118
g1
I01
sg5
VELNRNG
p119
sg7
L5L
sa(dp120
g1
I01
sg5
VELOOP
p121
sg7
L5L
sa(dp122
g1
I01
sg5
VEMEDIUMTYPE
p123
sg7
L5L
sa(dp124
g1
I01
sg5
VEMFILE
p125
sg7
L5L
sa(dp126
g1
I01
sg5
VEMLINK
p127
sg7
L5L
sa(dp128
g1
I01
sg5
VEMSGSIZE
p129
sg7
L5L
sa(dp130
g1
I01
sg5
VEMULTIHOP
p131
sg7
L5L
sa(dp132
g1
I01
sg5
VENAMETOOLONG
p133
sg7
L5L
sa(dp134
g1
I01
sg5
VENAVAIL
p135
sg7
L5L
sa(dp136
g1
I01
sg5
VENETDOWN
p137
sg7
L5L
sa(dp138
g1
I01
sg5
VENETRESET
p139
sg7
L5L
sa(dp140
g1
I01
sg5
VENETUNREACH
p141
sg7
L5L
sa(dp142
g1
I01
sg5
VENFILE
p143
sg7
L5L
sa(dp144
g1
I01
sg5
VENOANO
p145
sg7
L5L
sa(dp146
g1
I01
sg5
VENOBUFS
p147
sg7
L5L
sa(dp148
g1
I01
sg5
VENOCSI
p149
sg7
L5L
sa(dp150
g1
I01
sg5
VENODATA
p151
sg7
L5L
sa(dp152
g1
I01
sg5
VENODEV
p153
sg7
L5L
sa(dp154
g1
I01
sg5
VENOENT
p155
sg7
L5L
sa(dp156
g1
I01
sg5
VENOEXEC
p157
sg7
L5L
sa(dp158
g1
I01
sg5
VENOKEY
p159
sg7
L5L
sa(dp160
g1
I01
sg5
VENOLCK
p161
sg7
L5L
sa(dp162
g1
I01
sg5
VENOLINK
p163
sg7
L5L
sa(dp164
g1
I01
sg5
VENOMEDIUM
p165
sg7
L5L
sa(dp166
g1
I01
sg5
VENOMEM
p167
sg7
L5L
sa(dp168
g1
I01
sg5
VENOMSG
p169
sg7
L5L
sa(dp170
g1
I01
sg5
VENONET
p171
sg7
L5L
sa(dp172
g1
I01
sg5
VENOPKG
p173
sg7
L5L
sa(dp174
g1
I01
sg5
VENOPROTOOPT
p175
sg7
L5L
sa(dp176
g1
I01
sg5
VENOSPC
p177
sg7
L5L
sa(dp178
g1
I01
sg5
VENOSR
p179
sg7
L5L
sa(dp180
g1
I01
sg5
VENOSTR
p181
sg7
L5L
sa(dp182
g1
I01
sg5
VENOSYS
p183
sg7
L5L
sa(dp184
g1
I01
sg5
VENOTBLK
p185
sg7
L5L
sa(dp186
g1
I01
sg5
VENOTCONN
p187
sg7
L5L
sa(dp188
g1
I01
sg5
VENOTDIR
p189
sg7
L5L
sa(dp190
g1
I01
sg5
VENOTEMPTY
p191
sg7
L5L
sa(dp192
g1
I01
sg5
VENOTNAM
p193
sg7
L5L
sa(dp194
g1
I01
sg5
VENOTRECOVERABLE
p195
sg7
L5L
sa(dp196
g1
I01
sg5
VENOTSOCK
p197
sg7
L5L
sa(dp198
g1
I01
sg5
VENOTSUP
p199
sg7
L5L
sa(dp200
g1
I01
sg5
VENOTTY
p201
sg7
L5L
sa(dp202
g1
I01
sg5
VENOTUNIQ
p203
sg7
L5L
sa(dp204
g1
I01
sg5
VENXIO
p205
sg7
L5L
sa(dp206
g1
I01
sg5
VEOPNOTSUPP
p207
sg7
L5L
sa(dp208
g1
I01
sg5
VEOVERFLOW
p209
sg7
L5L
sa(dp210
g1
I01
sg5
VEOWNERDEAD
p211
sg7
L5L
sa(dp212
g1
I01
sg5
VEPERM
p213
sg7
L5L
sa(dp214
g1
I01
sg5
VEPFNOSUPPORT
p215
sg7
L5L
sa(dp216
g1
I01
sg5
VEPIPE
p217
sg7
L5L
sa(dp218
g1
I01
sg5
VEPROTO
p219
sg7
L5L
sa(dp220
g1
I01
sg5
VEPROTONOSUPPORT
p221
sg7
L5L
sa(dp222
g1
I01
sg5
VEPROTOTYPE
p223
sg7
L5L
sa(dp224
g1
I01
sg5
VERANGE
p225
sg7
L5L
sa(dp226
g1
I01
sg5
VEREMCHG
p227
sg7
L5L
sa(dp228
g1
I01
sg5
VEREMOTE
p229
sg7
L5L
sa(dp230
g1
I01
sg5
VEREMOTEIO
p231
sg7
L5L
sa(dp232
g1
I01
sg5
VERESTART
p233
sg7
L5L
sa(dp234
g1
I01
sg5
VERFKILL
p235
sg7
L5L
sa(dp236
g1
I01
sg5
VEROFS
p237
sg7
L5L
sa(dp238
g1
I01
sg5
VESHUTDOWN
p239
sg7
L5L
sa(dp240
g1
I01
sg5
VESOCKTNOSUPPORT
p241
sg7
L5L
sa(dp242
g1
I01
sg5
VESPIPE
p243
sg7
L5L
sa(dp244
g1
I01
sg5
VESRCH
p245
sg7
L5L
sa(dp246
g1
I01
sg5
VESRMNT
p247
sg7
L5L
sa(dp248
g1
I01
sg5
VESTALE
p249
sg7
L5L
sa(dp250
g1
I01
sg5
VESTRPIPE
p251
sg7
L5L
sa(dp252
g1
I01
sg5
VETIME
p253
sg7
L5L
sa(dp254
g1
I01
sg5
VETIMEDOUT
p255
sg7
L5L
sa(dp256
g1
I01
sg5
VETOOMANYREFS
p257
sg7
L5L
sa(dp258
g1
I01
sg5
VETXTBSY
p259
sg7
L5L
sa(dp260
g1
I01
sg5
VEUCLEAN
p261
sg7
L5L
sa(dp262
g1
I01
sg5
VEUNATCH
p263
sg7
L5L
sa(dp264
g1
I01
sg5
VEUSERS
p265
sg7
L5L
sa(dp266
g1
I01
sg5
VEWOULDBLOCK
p267
sg7
L5L
sa(dp268
g1
I01
sg5
VEXDEV
p269
sg7
L5L
sa(dp270
g1
I01
sg5
VEXFULL
p271
sg7
L5L
sa(dp272
g1
I01
sg5
V__doc__
p273
sg7
L5L
sa(dp274
g1
I01
sg2
(lp275
(dp276
g1
I01
sg5
V__delattr__
p277
sg7
L5L
sa(dp278
g1
I01
sg5
V__dict__
p279
sg7
L5L
sa(dp280
g1
I01
sVdoc
p281
V__dir__() -> list\u000adefault dir() implementation
p282
sg5
V__dir__
p283
sg7
L2L
sa(dp284
g1
I01
sg5
g273
sg7
L5L
sa(dp285
g1
I01
sg5
V__eq__
p286
sg7
L5L
sa(dp287
g1
I01
sg281
Vdefault object formatter
p288
sg5
V__format__
p289
sg7
L2L
sa(dp290
g1
I01
sg5
V__ge__
p291
sg7
L5L
sa(dp292
g1
I01
sg5
V__getattribute__
p293
sg7
L5L
sa(dp294
g1
I01
sg5
V__gt__
p295
sg7
L5L
sa(dp296
g1
I01
sg5
V__hash__
p297
sg7
L5L
sa(dp298
g1
I01
sg5
V__init__
p299
sg7
L5L
sa(dp300
g1
I01
sg5
V__le__
p301
sg7
L5L
sa(dp302
g1
I01
sg5
V__lt__
p303
sg7
L5L
sa(dp304
g1
I01
sg5
V__module__
p305
sg7
L5L
sa(dp306
g1
I01
sg5
V__ne__
p307
sg7
L5L
sa(dp308
g1
I01
sg281
VCreate and return a new object.  See help(type) for accurate signature.
p309
sg5
V__new__
p310
sg7
L2L
sa(dp311
g1
I01
sg281
Vhelper for pickle
p312
sg5
V__reduce__
p313
sg7
L2L
sa(dp314
g1
I01
sg281
Vhelper for pickle
p315
sg5
V__reduce_ex__
p316
sg7
L2L
sa(dp317
g1
I01
sg5
V__repr__
p318
sg7
L5L
sa(dp319
g1
I01
sg5
V__setattr__
p320
sg7
L5L
sa(dp321
g1
I01
sg281
V__sizeof__() -> int\u000asize of object in memory, in bytes
p322
sg5
V__sizeof__
p323
sg7
L2L
sa(dp324
g1
I01
sg5
V__str__
p325
sg7
L5L
sa(dp326
g1
I01
sg281
VAbstract classes can override this to customize issubclass().\u000a\u000aThis is invoked early on by abc.ABCMeta.__subclasscheck__().\u000aIt should return True, False or NotImplemented.  If it returns\u000aNotImplemented, the normal algorithm is used.  Otherwise, it\u000aoverrides the normal algorithm (and the outcome is cached).\u000a
p327
sg5
V__subclasshook__
p328
sg7
L2L
sa(dp329
g1
I01
sg5
V__weakref__
p330
sg7
L5L
sa(dp331
g1
I01
sg5
Vcreate_module
p332
sg7
L5L
sa(dp333
g1
I01
sg5
Vexec_module
p334
sg7
L5L
sa(dp335
g1
I01
sg5
Vfind_module
p336
sg7
L5L
sa(dp337
g1
I01
sg5
Vfind_spec
p338
sg7
L5L
sa(dp339
g1
I01
sg5
Vget_code
p340
sg7
L5L
sa(dp341
g1
I01
sg5
Vget_source
p342
sg7
L5L
sa(dp343
g1
I01
sg5
Vis_package
p344
sg7
L5L
sa(dp345
g1
I01
sg5
Vload_module
p346
sg7
L5L
sa(dp347
g1
I01
sg5
Vmodule_repr
p348
sg7
L5L
sasg281
VMeta path import for built-in modules.\u000a\u000a    All methods are either class or static methods to avoid the need to\u000a    instantiate the class.\u000a\u000a    
p349
sg5
V__loader__
p350
sg7
L3L
sa(dp351
g1
I01
sg5
V__name__
p352
sg7
L5L
sa(dp353
g1
I01
sg5
V__package__
p354
sg7
L5L
sa(dp355
g1
I01
sg5
V__spec__
p356
sg7
L5L
sa(dp357
g1
I01
sg5
Verrorcode
p358
sg7
L5L
sasg281
VThis module makes available standard errno system symbols.\u000a\u000aThe value of each symbol is the corresponding integer value,\u000ae.g., on most systems, errno.ENOENT equals the integer 2.\u000a\u000aThe dictionary errno.errorcode maps numeric codes to symbol names,\u000ae.g., errno.errorcode[2] could be the string 'ENOENT'.\u000a\u000aSymbols that are not relevant to the underlying system are not defined.\u000a\u000aTo map error codes to error messages, use the function os.strerror(),\u000ae.g. os.strerror(2) could return 'No such file or directory'.
p359
sg5
Verrno
p360
sg7
L1L
s.