(dp0
Vis_builtin
p1
I01
sVchilds
p2
(lp3
(dp4
g1
I01
sVname
p5
VDEBUG_COLLECTABLE
p6
sVtype
p7
L5L
sa(dp8
g1
I01
sg5
VDEBUG_LEAK
p9
sg7
L5L
sa(dp10
g1
I01
sg5
VDEBUG_SAVEALL
p11
sg7
L5L
sa(dp12
g1
I01
sg5
VDEBUG_STATS
p13
sg7
L5L
sa(dp14
g1
I01
sg5
VDEBUG_UNCOLLECTABLE
p15
sg7
L5L
sa(dp16
g1
I01
sg5
V__doc__
p17
sg7
L5L
sa(dp18
g1
I01
sg2
(lp19
(dp20
g1
I01
sg5
V__delattr__
p21
sg7
L5L
sa(dp22
g1
I01
sg5
V__dict__
p23
sg7
L5L
sa(dp24
g1
I01
sVdoc
p25
V__dir__() -> list\u000adefault dir() implementation
p26
sg5
V__dir__
p27
sg7
L2L
sa(dp28
g1
I01
sg5
g17
sg7
L5L
sa(dp29
g1
I01
sg5
V__eq__
p30
sg7
L5L
sa(dp31
g1
I01
sg25
Vdefault object formatter
p32
sg5
V__format__
p33
sg7
L2L
sa(dp34
g1
I01
sg5
V__ge__
p35
sg7
L5L
sa(dp36
g1
I01
sg5
V__getattribute__
p37
sg7
L5L
sa(dp38
g1
I01
sg5
V__gt__
p39
sg7
L5L
sa(dp40
g1
I01
sg5
V__hash__
p41
sg7
L5L
sa(dp42
g1
I01
sg5
V__init__
p43
sg7
L5L
sa(dp44
g1
I01
sg5
V__le__
p45
sg7
L5L
sa(dp46
g1
I01
sg5
V__lt__
p47
sg7
L5L
sa(dp48
g1
I01
sg5
V__module__
p49
sg7
L5L
sa(dp50
g1
I01
sg5
V__ne__
p51
sg7
L5L
sa(dp52
g1
I01
sg25
VCreate and return a new object.  See help(type) for accurate signature.
p53
sg5
V__new__
p54
sg7
L2L
sa(dp55
g1
I01
sg25
Vhelper for pickle
p56
sg5
V__reduce__
p57
sg7
L2L
sa(dp58
g1
I01
sg25
Vhelper for pickle
p59
sg5
V__reduce_ex__
p60
sg7
L2L
sa(dp61
g1
I01
sg5
V__repr__
p62
sg7
L5L
sa(dp63
g1
I01
sg5
V__setattr__
p64
sg7
L5L
sa(dp65
g1
I01
sg25
V__sizeof__() -> int\u000asize of object in memory, in bytes
p66
sg5
V__sizeof__
p67
sg7
L2L
sa(dp68
g1
I01
sg5
V__str__
p69
sg7
L5L
sa(dp70
g1
I01
sg25
VAbstract classes can override this to customize issubclass().\u000a\u000aThis is invoked early on by abc.ABCMeta.__subclasscheck__().\u000aIt should return True, False or NotImplemented.  If it returns\u000aNotImplemented, the normal algorithm is used.  Otherwise, it\u000aoverrides the normal algorithm (and the outcome is cached).\u000a
p71
sg5
V__subclasshook__
p72
sg7
L2L
sa(dp73
g1
I01
sg5
V__weakref__
p74
sg7
L5L
sa(dp75
g1
I01
sg5
Vcreate_module
p76
sg7
L5L
sa(dp77
g1
I01
sg5
Vexec_module
p78
sg7
L5L
sa(dp79
g1
I01
sg5
Vfind_module
p80
sg7
L5L
sa(dp81
g1
I01
sg5
Vfind_spec
p82
sg7
L5L
sa(dp83
g1
I01
sg5
Vget_code
p84
sg7
L5L
sa(dp85
g1
I01
sg5
Vget_source
p86
sg7
L5L
sa(dp87
g1
I01
sg5
Vis_package
p88
sg7
L5L
sa(dp89
g1
I01
sg5
Vload_module
p90
sg7
L5L
sa(dp91
g1
I01
sg5
Vmodule_repr
p92
sg7
L5L
sasg25
VMeta path import for built-in modules.\u000a\u000a    All methods are either class or static methods to avoid the need to\u000a    instantiate the class.\u000a\u000a    
p93
sg5
V__loader__
p94
sg7
L3L
sa(dp95
g1
I01
sg5
V__name__
p96
sg7
L5L
sa(dp97
g1
I01
sg5
V__package__
p98
sg7
L5L
sa(dp99
g1
I01
sg5
V__spec__
p100
sg7
L5L
sa(dp101
g1
I01
sg5
Vcallbacks
p102
sg7
L5L
sa(dp103
g1
I01
sg25
Vcollect([generation]) -> n\u000a\u000aWith no arguments, run a full collection.  The optional argument\u000amay be an integer specifying which generation to collect.  A ValueError\u000ais raised if the generation number is invalid.\u000a\u000aThe number of unreachable objects is returned.\u000a
p104
sg5
Vcollect
p105
sg7
L2L
sa(dp106
g1
I01
sg25
Vdisable() -> None\u000a\u000aDisable automatic garbage collection.\u000a
p107
sg5
Vdisable
p108
sg7
L2L
sa(dp109
g1
I01
sg25
Venable() -> None\u000a\u000aEnable automatic garbage collection.\u000a
p110
sg5
Venable
p111
sg7
L2L
sa(dp112
g1
I01
sg5
Vgarbage
p113
sg7
L5L
sa(dp114
g1
I01
sg25
Vget_count() -> (count0, count1, count2)\u000a\u000aReturn the current collection counts\u000a
p115
sg5
Vget_count
p116
sg7
L2L
sa(dp117
g1
I01
sg25
Vget_debug() -> flags\u000a\u000aGet the garbage collection debugging flags.\u000a
p118
sg5
Vget_debug
p119
sg7
L2L
sa(dp120
g1
I01
sg25
Vget_objects() -> [...]\u000a\u000aReturn a list of objects tracked by the collector (excluding the list\u000areturned).\u000a
p121
sg5
Vget_objects
p122
sg7
L2L
sa(dp123
g1
I01
sg25
Vget_referents(*objs) -> list\u000aReturn the list of objects that are directly referred to by objs.
p124
sg5
Vget_referents
p125
sg7
L2L
sa(dp126
g1
I01
sg25
Vget_referrers(*objs) -> list\u000aReturn the list of objects that directly refer to any of objs.
p127
sg5
Vget_referrers
p128
sg7
L2L
sa(dp129
g1
I01
sg25
Vget_stats() -> [...]\u000a\u000aReturn a list of dictionaries containing per-generation statistics.\u000a
p130
sg5
Vget_stats
p131
sg7
L2L
sa(dp132
g1
I01
sg25
Vget_threshold() -> (threshold0, threshold1, threshold2)\u000a\u000aReturn the current collection thresholds\u000a
p133
sg5
Vget_threshold
p134
sg7
L2L
sa(dp135
g1
I01
sg25
Vis_tracked(obj) -> bool\u000a\u000aReturns true if the object is tracked by the garbage collector.\u000aSimple atomic objects will return false.\u000a
p136
sg5
Vis_tracked
p137
sg7
L2L
sa(dp138
g1
I01
sg25
Visenabled() -> status\u000a\u000aReturns true if automatic garbage collection is enabled.\u000a
p139
sg5
Visenabled
p140
sg7
L2L
sa(dp141
g1
I01
sg25
Vset_debug(flags) -> None\u000a\u000aSet the garbage collection debugging flags. Debugging information is\u000awritten to sys.stderr.\u000a\u000aflags is an integer and can have the following bits turned on:\u000a\u000a  DEBUG_STATS - Print statistics during collection.\u000a  DEBUG_COLLECTABLE - Print collectable objects found.\u000a  DEBUG_UNCOLLECTABLE - Print unreachable but uncollectable objects found.\u000a  DEBUG_SAVEALL - Save objects to gc.garbage rather than freeing them.\u000a  DEBUG_LEAK - Debug leaking programs (everything but STATS).\u000a
p142
sg5
Vset_debug
p143
sg7
L2L
sa(dp144
g1
I01
sg25
Vset_threshold(threshold0, [threshold1, threshold2]) -> None\u000a\u000aSets the collection thresholds.  Setting threshold0 to zero disables\u000acollection.\u000a
p145
sg5
Vset_threshold
p146
sg7
L2L
sasg25
VThis module provides access to the garbage collector for reference cycles.\u000a\u000aenable() -- Enable automatic garbage collection.\u000adisable() -- Disable automatic garbage collection.\u000aisenabled() -- Returns true if automatic collection is enabled.\u000acollect() -- Do a full collection right now.\u000aget_count() -- Return the current collection counts.\u000aget_stats() -- Return list of dictionaries containing per-generation stats.\u000aset_debug() -- Set debugging flags.\u000aget_debug() -- Get debugging flags.\u000aset_threshold() -- Set the collection thresholds.\u000aget_threshold() -- Return the current the collection thresholds.\u000aget_objects() -- Return a list of all objects tracked by the collector.\u000ais_tracked() -- Returns true if a given object is tracked.\u000aget_referrers() -- Return the list of objects that refer to an object.\u000aget_referents() -- Return the list of objects that an object refers to.\u000a
p147
sg5
Vgc
p148
sg7
L1L
s.