(dp0
Vis_builtin
p1
I01
sVchilds
p2
(lp3
(dp4
g1
I01
sVname
p5
V__doc__
p6
sVtype
p7
L5L
sa(dp8
g1
I01
sg2
(lp9
(dp10
g1
I01
sg5
V__delattr__
p11
sg7
L5L
sa(dp12
g1
I01
sg5
V__dict__
p13
sg7
L5L
sa(dp14
g1
I01
sVdoc
p15
V__dir__() -> list\u000adefault dir() implementation
p16
sg5
V__dir__
p17
sg7
L2L
sa(dp18
g1
I01
sg5
g6
sg7
L5L
sa(dp19
g1
I01
sg5
V__eq__
p20
sg7
L5L
sa(dp21
g1
I01
sg15
Vdefault object formatter
p22
sg5
V__format__
p23
sg7
L2L
sa(dp24
g1
I01
sg5
V__ge__
p25
sg7
L5L
sa(dp26
g1
I01
sg5
V__getattribute__
p27
sg7
L5L
sa(dp28
g1
I01
sg5
V__gt__
p29
sg7
L5L
sa(dp30
g1
I01
sg5
V__hash__
p31
sg7
L5L
sa(dp32
g1
I01
sg5
V__init__
p33
sg7
L5L
sa(dp34
g1
I01
sg5
V__le__
p35
sg7
L5L
sa(dp36
g1
I01
sg5
V__lt__
p37
sg7
L5L
sa(dp38
g1
I01
sg5
V__module__
p39
sg7
L5L
sa(dp40
g1
I01
sg5
V__ne__
p41
sg7
L5L
sa(dp42
g1
I01
sg15
VCreate and return a new object.  See help(type) for accurate signature.
p43
sg5
V__new__
p44
sg7
L2L
sa(dp45
g1
I01
sg15
Vhelper for pickle
p46
sg5
V__reduce__
p47
sg7
L2L
sa(dp48
g1
I01
sg15
Vhelper for pickle
p49
sg5
V__reduce_ex__
p50
sg7
L2L
sa(dp51
g1
I01
sg5
V__repr__
p52
sg7
L5L
sa(dp53
g1
I01
sg5
V__setattr__
p54
sg7
L5L
sa(dp55
g1
I01
sg15
V__sizeof__() -> int\u000asize of object in memory, in bytes
p56
sg5
V__sizeof__
p57
sg7
L2L
sa(dp58
g1
I01
sg5
V__str__
p59
sg7
L5L
sa(dp60
g1
I01
sg15
VAbstract classes can override this to customize issubclass().\u000a\u000aThis is invoked early on by abc.ABCMeta.__subclasscheck__().\u000aIt should return True, False or NotImplemented.  If it returns\u000aNotImplemented, the normal algorithm is used.  Otherwise, it\u000aoverrides the normal algorithm (and the outcome is cached).\u000a
p61
sg5
V__subclasshook__
p62
sg7
L2L
sa(dp63
g1
I01
sg5
V__weakref__
p64
sg7
L5L
sa(dp65
g1
I01
sg5
Vcreate_module
p66
sg7
L5L
sa(dp67
g1
I01
sg5
Vexec_module
p68
sg7
L5L
sa(dp69
g1
I01
sg5
Vfind_module
p70
sg7
L5L
sa(dp71
g1
I01
sg5
Vfind_spec
p72
sg7
L5L
sa(dp73
g1
I01
sg5
Vget_code
p74
sg7
L5L
sa(dp75
g1
I01
sg5
Vget_source
p76
sg7
L5L
sa(dp77
g1
I01
sg5
Vis_package
p78
sg7
L5L
sa(dp79
g1
I01
sg5
Vload_module
p80
sg7
L5L
sa(dp81
g1
I01
sg5
Vmodule_repr
p82
sg7
L5L
sasg15
VMeta path import for built-in modules.\u000a\u000a    All methods are either class or static methods to avoid the need to\u000a    instantiate the class.\u000a\u000a    
p83
sg5
V__loader__
p84
sg7
L3L
sa(dp85
g1
I01
sg5
V__name__
p86
sg7
L5L
sa(dp87
g1
I01
sg5
V__package__
p88
sg7
L5L
sa(dp89
g1
I01
sg5
V__spec__
p90
sg7
L5L
sa(dp91
g1
I01
sg15
VReturn a list of all available password database entries, in arbitrary order.\u000a\u000aSee help(pwd) for more on password database entries.
p92
sg5
Vgetpwall
p93
sg7
L2L
sa(dp94
g1
I01
sg15
VReturn the password database entry for the given user name.\u000a\u000aSee `help(pwd)` for more on password database entries.
p95
sg5
Vgetpwnam
p96
sg7
L2L
sa(dp97
g1
I01
sg15
VReturn the password database entry for the given numeric user ID.\u000a\u000aSee `help(pwd)` for more on password database entries.
p98
sg5
Vgetpwuid
p99
sg7
L2L
sa(dp100
g1
I01
sg2
(lp101
(dp102
g1
I01
sg5
V__add__
p103
sg7
L5L
sa(dp104
g1
I01
sg5
V__contains__
p105
sg7
L5L
sa(dp106
g1
I01
sg5
g11
sg7
L5L
sa(dp107
g1
I01
sg15
V__dir__() -> list\u000adefault dir() implementation
p108
sg5
g17
sg7
L2L
sa(dp109
g1
I01
sg5
g6
sg7
L5L
sa(dp110
g1
I01
sg5
g20
sg7
L5L
sa(dp111
g1
I01
sg15
Vdefault object formatter
p112
sg5
g23
sg7
L2L
sa(dp113
g1
I01
sg5
g25
sg7
L5L
sa(dp114
g1
I01
sg5
g27
sg7
L5L
sa(dp115
g1
I01
sg5
V__getitem__
p116
sg7
L5L
sa(dp117
g1
I01
sg15
Nsg5
V__getnewargs__
p118
sg7
L2L
sa(dp119
g1
I01
sg5
g29
sg7
L5L
sa(dp120
g1
I01
sg5
g31
sg7
L5L
sa(dp121
g1
I01
sg5
g33
sg7
L5L
sa(dp122
g1
I01
sg5
V__iter__
p123
sg7
L5L
sa(dp124
g1
I01
sg5
g35
sg7
L5L
sa(dp125
g1
I01
sg5
V__len__
p126
sg7
L5L
sa(dp127
g1
I01
sg5
g37
sg7
L5L
sa(dp128
g1
I01
sg5
V__mul__
p129
sg7
L5L
sa(dp130
g1
I01
sg5
g41
sg7
L5L
sa(dp131
g1
I01
sg15
VCreate and return a new object.  See help(type) for accurate signature.
p132
sg5
g44
sg7
L2L
sa(dp133
g1
I01
sg15
Nsg5
g47
sg7
L2L
sa(dp134
g1
I01
sg15
Vhelper for pickle
p135
sg5
g50
sg7
L2L
sa(dp136
g1
I01
sg5
g52
sg7
L5L
sa(dp137
g1
I01
sg5
V__rmul__
p138
sg7
L5L
sa(dp139
g1
I01
sg5
g54
sg7
L5L
sa(dp140
g1
I01
sg15
V__sizeof__() -> int\u000asize of object in memory, in bytes
p141
sg5
g57
sg7
L2L
sa(dp142
g1
I01
sg5
g59
sg7
L5L
sa(dp143
g1
I01
sg15
VAbstract classes can override this to customize issubclass().\u000a\u000aThis is invoked early on by abc.ABCMeta.__subclasscheck__().\u000aIt should return True, False or NotImplemented.  If it returns\u000aNotImplemented, the normal algorithm is used.  Otherwise, it\u000aoverrides the normal algorithm (and the outcome is cached).\u000a
p144
sg5
g62
sg7
L2L
sa(dp145
g1
I01
sg15
VT.count(value) -> integer -- return number of occurrences of value
p146
sg5
Vcount
p147
sg7
L2L
sa(dp148
g1
I01
sg15
VT.index(value, [start, [stop]]) -> integer -- return first index of value.\u000aRaises ValueError if the value is not present.
p149
sg5
Vindex
p150
sg7
L2L
sa(dp151
g1
I01
sg5
Vn_fields
p152
sg7
L5L
sa(dp153
g1
I01
sg5
Vn_sequence_fields
p154
sg7
L5L
sa(dp155
g1
I01
sg5
Vn_unnamed_fields
p156
sg7
L5L
sa(dp157
g1
I01
sg5
Vpw_dir
p158
sg7
L5L
sa(dp159
g1
I01
sg5
Vpw_gecos
p160
sg7
L5L
sa(dp161
g1
I01
sg5
Vpw_gid
p162
sg7
L5L
sa(dp163
g1
I01
sg5
Vpw_name
p164
sg7
L5L
sa(dp165
g1
I01
sg5
Vpw_passwd
p166
sg7
L5L
sa(dp167
g1
I01
sg5
Vpw_shell
p168
sg7
L5L
sa(dp169
g1
I01
sg5
Vpw_uid
p170
sg7
L5L
sasg15
Vpwd.struct_passwd: Results from getpw*() routines.\u000a\u000aThis object may be accessed either as a tuple of\u000a  (pw_name,pw_passwd,pw_uid,pw_gid,pw_gecos,pw_dir,pw_shell)\u000aor via the object attributes as named in the above tuple.
p171
sg5
Vstruct_passwd
p172
sg7
L3L
sasg15
VThis module provides access to the Unix password database.\u000aIt is available on all Unix versions.\u000a\u000aPassword database entries are reported as 7-tuples containing the following\u000aitems from the password database (see `<pwd.h>'), in order:\u000apw_name, pw_passwd, pw_uid, pw_gid, pw_gecos, pw_dir, pw_shell.\u000aThe uid and gid items are integers, all others are strings. An\u000aexception is raised if the entry asked for cannot be found.
p173
sg5
Vpwd
p174
sg7
L1L
s.