(dp0
Vis_builtin
p1
I01
sVchilds
p2
(lp3
(dp4
g1
I01
sVname
p5
VEXPAT_VERSION
p6
sVtype
p7
L5L
sa(dp8
g1
I01
sVdoc
p9
VReturns string error for given number.
p10
sg5
VErrorString
p11
sg7
L2L
sa(dp12
g1
I01
sg2
(lp13
(dp14
g1
I01
sg5
V__cause__
p15
sg7
L5L
sa(dp16
g1
I01
sg5
V__context__
p17
sg7
L5L
sa(dp18
g1
I01
sg5
V__delattr__
p19
sg7
L5L
sa(dp20
g1
I01
sg5
V__dict__
p21
sg7
L5L
sa(dp22
g1
I01
sg9
V__dir__() -> list\u000adefault dir() implementation
p23
sg5
V__dir__
p24
sg7
L2L
sa(dp25
g1
I01
sg5
V__doc__
p26
sg7
L5L
sa(dp27
g1
I01
sg5
V__eq__
p28
sg7
L5L
sa(dp29
g1
I01
sg9
Vdefault object formatter
p30
sg5
V__format__
p31
sg7
L2L
sa(dp32
g1
I01
sg5
V__ge__
p33
sg7
L5L
sa(dp34
g1
I01
sg5
V__getattribute__
p35
sg7
L5L
sa(dp36
g1
I01
sg5
V__gt__
p37
sg7
L5L
sa(dp38
g1
I01
sg5
V__hash__
p39
sg7
L5L
sa(dp40
g1
I01
sg5
V__init__
p41
sg7
L5L
sa(dp42
g1
I01
sg5
V__le__
p43
sg7
L5L
sa(dp44
g1
I01
sg5
V__lt__
p45
sg7
L5L
sa(dp46
g1
I01
sg5
V__module__
p47
sg7
L5L
sa(dp48
g1
I01
sg5
V__ne__
p49
sg7
L5L
sa(dp50
g1
I01
sg9
VCreate and return a new object.  See help(type) for accurate signature.
p51
sg5
V__new__
p52
sg7
L2L
sa(dp53
g1
I01
sg9
Nsg5
V__reduce__
p54
sg7
L2L
sa(dp55
g1
I01
sg9
Vhelper for pickle
p56
sg5
V__reduce_ex__
p57
sg7
L2L
sa(dp58
g1
I01
sg5
V__repr__
p59
sg7
L5L
sa(dp60
g1
I01
sg5
V__setattr__
p61
sg7
L5L
sa(dp62
g1
I01
sg9
Nsg5
V__setstate__
p63
sg7
L2L
sa(dp64
g1
I01
sg9
V__sizeof__() -> int\u000asize of object in memory, in bytes
p65
sg5
V__sizeof__
p66
sg7
L2L
sa(dp67
g1
I01
sg5
V__str__
p68
sg7
L5L
sa(dp69
g1
I01
sg9
VAbstract classes can override this to customize issubclass().\u000a\u000aThis is invoked early on by abc.ABCMeta.__subclasscheck__().\u000aIt should return True, False or NotImplemented.  If it returns\u000aNotImplemented, the normal algorithm is used.  Otherwise, it\u000aoverrides the normal algorithm (and the outcome is cached).\u000a
p70
sg5
V__subclasshook__
p71
sg7
L2L
sa(dp72
g1
I01
sg5
V__suppress_context__
p73
sg7
L5L
sa(dp74
g1
I01
sg5
V__traceback__
p75
sg7
L5L
sa(dp76
g1
I01
sg5
V__weakref__
p77
sg7
L5L
sa(dp78
g1
I01
sg5
Vargs
p79
sg7
L5L
sa(dp80
g1
I01
sg9
VException.with_traceback(tb) --\u000a    set self.__traceback__ to tb and return self.
p81
sg5
Vwith_traceback
p82
sg7
L2L
sasg9
Nsg5
VExpatError
p83
sg7
L3L
sa(dp84
g1
I01
sg9
VReturn a new XML parser object.
p85
sg5
VParserCreate
p86
sg7
L2L
sa(dp87
g1
I01
sg2
(lp88
(dp89
g1
I01
sg9
VCreate a parser for parsing an external entity based on the information passed to the ExternalEntityRefHandler.
p90
sg5
VExternalEntityParserCreate
p91
sg7
L2L
sa(dp92
g1
I01
sg9
VReturn base URL string for the parser.
p93
sg5
VGetBase
p94
sg7
L2L
sa(dp95
g1
I01
sg9
VReturn the untranslated text of the input that caused the current event.\u000a\u000aIf the event was generated by a large amount of text (such as a start tag\u000afor an element with many attributes), not all of the text may be available.
p96
sg5
VGetInputContext
p97
sg7
L2L
sa(dp98
g1
I01
sg9
VParse XML data.\u000a\u000a`isfinal' should be true at end of input.
p99
sg5
VParse
p100
sg7
L2L
sa(dp101
g1
I01
sg9
VParse XML data from file-like object.
p102
sg5
VParseFile
p103
sg7
L2L
sa(dp104
g1
I01
sg9
VSet the base URL for the parser.
p105
sg5
VSetBase
p106
sg7
L2L
sa(dp107
g1
I01
sg9
VControls parsing of parameter entities (including the external DTD subset).\u000a\u000aPossible flag values are XML_PARAM_ENTITY_PARSING_NEVER,\u000aXML_PARAM_ENTITY_PARSING_UNLESS_STANDALONE and\u000aXML_PARAM_ENTITY_PARSING_ALWAYS. Returns true if setting the flag\u000awas successful.
p108
sg5
VSetParamEntityParsing
p109
sg7
L2L
sa(dp110
g1
I01
sg9
VAllows the application to provide an artificial external subset if one is not specified as part of the document instance.\u000a\u000aThis readily allows the use of a 'default' document type controlled by the\u000aapplication, while still getting the advantage of providing document type\u000ainformation to the parser. 'flag' defaults to True if not provided.
p111
sg5
VUseForeignDTD
p112
sg7
L2L
sa(dp113
g1
I01
sg5
g19
sg7
L5L
sa(dp114
g1
I01
sg9
Nsg5
g24
sg7
L2L
sa(dp115
g1
I01
sg5
g26
sg7
L5L
sa(dp116
g1
I01
sg5
g28
sg7
L5L
sa(dp117
g1
I01
sg9
Vdefault object formatter
p118
sg5
g31
sg7
L2L
sa(dp119
g1
I01
sg5
g33
sg7
L5L
sa(dp120
g1
I01
sg5
g35
sg7
L5L
sa(dp121
g1
I01
sg5
g37
sg7
L5L
sa(dp122
g1
I01
sg5
g39
sg7
L5L
sa(dp123
g1
I01
sg5
g41
sg7
L5L
sa(dp124
g1
I01
sg5
g43
sg7
L5L
sa(dp125
g1
I01
sg5
g45
sg7
L5L
sa(dp126
g1
I01
sg5
g49
sg7
L5L
sa(dp127
g1
I01
sg9
VCreate and return a new object.  See help(type) for accurate signature.
p128
sg5
g52
sg7
L2L
sa(dp129
g1
I01
sg9
Vhelper for pickle
p130
sg5
g54
sg7
L2L
sa(dp131
g1
I01
sg9
Vhelper for pickle
p132
sg5
g57
sg7
L2L
sa(dp133
g1
I01
sg5
g59
sg7
L5L
sa(dp134
g1
I01
sg5
g61
sg7
L5L
sa(dp135
g1
I01
sg9
V__sizeof__() -> int\u000asize of object in memory, in bytes
p136
sg5
g66
sg7
L2L
sa(dp137
g1
I01
sg5
g68
sg7
L5L
sa(dp138
g1
I01
sg9
VAbstract classes can override this to customize issubclass().\u000a\u000aThis is invoked early on by abc.ABCMeta.__subclasscheck__().\u000aIt should return True, False or NotImplemented.  If it returns\u000aNotImplemented, the normal algorithm is used.  Otherwise, it\u000aoverrides the normal algorithm (and the outcome is cached).\u000a
p139
sg5
g71
sg7
L2L
sasg9
VXML parser
p140
sg5
VXMLParserType
p141
sg7
L3L
sa(dp142
g1
I01
sg5
VXML_PARAM_ENTITY_PARSING_ALWAYS
p143
sg7
L5L
sa(dp144
g1
I01
sg5
VXML_PARAM_ENTITY_PARSING_NEVER
p145
sg7
L5L
sa(dp146
g1
I01
sg5
VXML_PARAM_ENTITY_PARSING_UNLESS_STANDALONE
p147
sg7
L5L
sa(dp148
g1
I01
sg5
g26
sg7
L5L
sa(dp149
g1
I01
sg2
(lp150
(dp151
g1
I01
sg5
g19
sg7
L5L
sa(dp152
g1
I01
sg5
g21
sg7
L5L
sa(dp153
g1
I01
sg9
V__dir__() -> list\u000adefault dir() implementation
p154
sg5
g24
sg7
L2L
sa(dp155
g1
I01
sg5
g26
sg7
L5L
sa(dp156
g1
I01
sg5
g28
sg7
L5L
sa(dp157
g1
I01
sg9
Vdefault object formatter
p158
sg5
g31
sg7
L2L
sa(dp159
g1
I01
sg5
g33
sg7
L5L
sa(dp160
g1
I01
sg5
g35
sg7
L5L
sa(dp161
g1
I01
sg5
g37
sg7
L5L
sa(dp162
g1
I01
sg5
g39
sg7
L5L
sa(dp163
g1
I01
sg5
g41
sg7
L5L
sa(dp164
g1
I01
sg5
g43
sg7
L5L
sa(dp165
g1
I01
sg5
g45
sg7
L5L
sa(dp166
g1
I01
sg5
g47
sg7
L5L
sa(dp167
g1
I01
sg5
g49
sg7
L5L
sa(dp168
g1
I01
sg9
VCreate and return a new object.  See help(type) for accurate signature.
p169
sg5
g52
sg7
L2L
sa(dp170
g1
I01
sg9
Vhelper for pickle
p171
sg5
g54
sg7
L2L
sa(dp172
g1
I01
sg9
Vhelper for pickle
p173
sg5
g57
sg7
L2L
sa(dp174
g1
I01
sg5
g59
sg7
L5L
sa(dp175
g1
I01
sg5
g61
sg7
L5L
sa(dp176
g1
I01
sg9
V__sizeof__() -> int\u000asize of object in memory, in bytes
p177
sg5
g66
sg7
L2L
sa(dp178
g1
I01
sg5
g68
sg7
L5L
sa(dp179
g1
I01
sg9
VAbstract classes can override this to customize issubclass().\u000a\u000aThis is invoked early on by abc.ABCMeta.__subclasscheck__().\u000aIt should return True, False or NotImplemented.  If it returns\u000aNotImplemented, the normal algorithm is used.  Otherwise, it\u000aoverrides the normal algorithm (and the outcome is cached).\u000a
p180
sg5
g71
sg7
L2L
sa(dp181
g1
I01
sg5
g77
sg7
L5L
sa(dp182
g1
I01
sg5
Vcreate_module
p183
sg7
L5L
sa(dp184
g1
I01
sg5
Vexec_module
p185
sg7
L5L
sa(dp186
g1
I01
sg5
Vfind_module
p187
sg7
L5L
sa(dp188
g1
I01
sg5
Vfind_spec
p189
sg7
L5L
sa(dp190
g1
I01
sg5
Vget_code
p191
sg7
L5L
sa(dp192
g1
I01
sg5
Vget_source
p193
sg7
L5L
sa(dp194
g1
I01
sg5
Vis_package
p195
sg7
L5L
sa(dp196
g1
I01
sg5
Vload_module
p197
sg7
L5L
sa(dp198
g1
I01
sg5
Vmodule_repr
p199
sg7
L5L
sasg9
VMeta path import for built-in modules.\u000a\u000a    All methods are either class or static methods to avoid the need to\u000a    instantiate the class.\u000a\u000a    
p200
sg5
V__loader__
p201
sg7
L3L
sa(dp202
g1
I01
sg5
V__name__
p203
sg7
L5L
sa(dp204
g1
I01
sg5
V__package__
p205
sg7
L5L
sa(dp206
g1
I01
sg5
V__spec__
p207
sg7
L5L
sa(dp208
g1
I01
sg2
(lp209
(dp210
g1
I01
sg5
g15
sg7
L5L
sa(dp211
g1
I01
sg5
g17
sg7
L5L
sa(dp212
g1
I01
sg5
g19
sg7
L5L
sa(dp213
g1
I01
sg5
g21
sg7
L5L
sa(dp214
g1
I01
sg9
V__dir__() -> list\u000adefault dir() implementation
p215
sg5
g24
sg7
L2L
sa(dp216
g1
I01
sg5
g26
sg7
L5L
sa(dp217
g1
I01
sg5
g28
sg7
L5L
sa(dp218
g1
I01
sg9
Vdefault object formatter
p219
sg5
g31
sg7
L2L
sa(dp220
g1
I01
sg5
g33
sg7
L5L
sa(dp221
g1
I01
sg5
g35
sg7
L5L
sa(dp222
g1
I01
sg5
g37
sg7
L5L
sa(dp223
g1
I01
sg5
g39
sg7
L5L
sa(dp224
g1
I01
sg5
g41
sg7
L5L
sa(dp225
g1
I01
sg5
g43
sg7
L5L
sa(dp226
g1
I01
sg5
g45
sg7
L5L
sa(dp227
g1
I01
sg5
g47
sg7
L5L
sa(dp228
g1
I01
sg5
g49
sg7
L5L
sa(dp229
g1
I01
sg9
VCreate and return a new object.  See help(type) for accurate signature.
p230
sg5
g52
sg7
L2L
sa(dp231
g1
I01
sg9
Nsg5
g54
sg7
L2L
sa(dp232
g1
I01
sg9
Vhelper for pickle
p233
sg5
g57
sg7
L2L
sa(dp234
g1
I01
sg5
g59
sg7
L5L
sa(dp235
g1
I01
sg5
g61
sg7
L5L
sa(dp236
g1
I01
sg9
Nsg5
g63
sg7
L2L
sa(dp237
g1
I01
sg9
V__sizeof__() -> int\u000asize of object in memory, in bytes
p238
sg5
g66
sg7
L2L
sa(dp239
g1
I01
sg5
g68
sg7
L5L
sa(dp240
g1
I01
sg9
VAbstract classes can override this to customize issubclass().\u000a\u000aThis is invoked early on by abc.ABCMeta.__subclasscheck__().\u000aIt should return True, False or NotImplemented.  If it returns\u000aNotImplemented, the normal algorithm is used.  Otherwise, it\u000aoverrides the normal algorithm (and the outcome is cached).\u000a
p241
sg5
g71
sg7
L2L
sa(dp242
g1
I01
sg5
g73
sg7
L5L
sa(dp243
g1
I01
sg5
g75
sg7
L5L
sa(dp244
g1
I01
sg5
g77
sg7
L5L
sa(dp245
g1
I01
sg5
g79
sg7
L5L
sa(dp246
g1
I01
sg9
VException.with_traceback(tb) --\u000a    set self.__traceback__ to tb and return self.
p247
sg5
g82
sg7
L2L
sasg9
Nsg5
Verror
p248
sg7
L3L
sa(dp249
g1
I01
sg5
Verrors
p250
sg7
L5L
sa(dp251
g1
I01
sg5
Vexpat_CAPI
p252
sg7
L5L
sa(dp253
g1
I01
sg5
Vfeatures
p254
sg7
L5L
sa(dp255
g1
I01
sg5
Vmodel
p256
sg7
L5L
sa(dp257
g1
I01
sg5
Vnative_encoding
p258
sg7
L5L
sa(dp259
g1
I01
sg5
Vversion_info
p260
sg7
L5L
sasg9
VPython wrapper for Expat parser.
p261
sg5
Vpyexpat
p262
sg7
L1L
s.