(dp0
Vis_builtin
p1
I01
sVchilds
p2
(lp3
(dp4
g1
I01
sVname
p5
VLOG_ALERT
p6
sVtype
p7
L5L
sa(dp8
g1
I01
sg5
VLOG_AUTH
p9
sg7
L5L
sa(dp10
g1
I01
sg5
VLOG_AUTHPRIV
p11
sg7
L5L
sa(dp12
g1
I01
sg5
VLOG_CONS
p13
sg7
L5L
sa(dp14
g1
I01
sg5
VLOG_CRIT
p15
sg7
L5L
sa(dp16
g1
I01
sg5
VLOG_CRON
p17
sg7
L5L
sa(dp18
g1
I01
sg5
VLOG_DAEMON
p19
sg7
L5L
sa(dp20
g1
I01
sg5
VLOG_DEBUG
p21
sg7
L5L
sa(dp22
g1
I01
sg5
VLOG_EMERG
p23
sg7
L5L
sa(dp24
g1
I01
sg5
VLOG_ERR
p25
sg7
L5L
sa(dp26
g1
I01
sg5
VLOG_INFO
p27
sg7
L5L
sa(dp28
g1
I01
sg5
VLOG_KERN
p29
sg7
L5L
sa(dp30
g1
I01
sg5
VLOG_LOCAL0
p31
sg7
L5L
sa(dp32
g1
I01
sg5
VLOG_LOCAL1
p33
sg7
L5L
sa(dp34
g1
I01
sg5
VLOG_LOCAL2
p35
sg7
L5L
sa(dp36
g1
I01
sg5
VLOG_LOCAL3
p37
sg7
L5L
sa(dp38
g1
I01
sg5
VLOG_LOCAL4
p39
sg7
L5L
sa(dp40
g1
I01
sg5
VLOG_LOCAL5
p41
sg7
L5L
sa(dp42
g1
I01
sg5
VLOG_LOCAL6
p43
sg7
L5L
sa(dp44
g1
I01
sg5
VLOG_LOCAL7
p45
sg7
L5L
sa(dp46
g1
I01
sg5
VLOG_LPR
p47
sg7
L5L
sa(dp48
g1
I01
sg5
VLOG_MAIL
p49
sg7
L5L
sa(dp50
g1
I01
sVdoc
p51
Nsg5
VLOG_MASK
p52
sg7
L2L
sa(dp53
g1
I01
sg5
VLOG_NDELAY
p54
sg7
L5L
sa(dp55
g1
I01
sg5
VLOG_NEWS
p56
sg7
L5L
sa(dp57
g1
I01
sg5
VLOG_NOTICE
p58
sg7
L5L
sa(dp59
g1
I01
sg5
VLOG_NOWAIT
p60
sg7
L5L
sa(dp61
g1
I01
sg5
VLOG_ODELAY
p62
sg7
L5L
sa(dp63
g1
I01
sg5
VLOG_PERROR
p64
sg7
L5L
sa(dp65
g1
I01
sg5
VLOG_PID
p66
sg7
L5L
sa(dp67
g1
I01
sg5
VLOG_SYSLOG
p68
sg7
L5L
sa(dp69
g1
I01
sg51
Nsg5
VLOG_UPTO
p70
sg7
L2L
sa(dp71
g1
I01
sg5
VLOG_USER
p72
sg7
L5L
sa(dp73
g1
I01
sg5
VLOG_UUCP
p74
sg7
L5L
sa(dp75
g1
I01
sg5
VLOG_WARNING
p76
sg7
L5L
sa(dp77
g1
I01
sg5
V__doc__
p78
sg7
L5L
sa(dp79
g1
I01
sg2
(lp80
(dp81
g1
I01
sg5
V__delattr__
p82
sg7
L5L
sa(dp83
g1
I01
sg5
V__dict__
p84
sg7
L5L
sa(dp85
g1
I01
sg51
V__dir__() -> list\u000adefault dir() implementation
p86
sg5
V__dir__
p87
sg7
L2L
sa(dp88
g1
I01
sg5
g78
sg7
L5L
sa(dp89
g1
I01
sg5
V__eq__
p90
sg7
L5L
sa(dp91
g1
I01
sg51
Vdefault object formatter
p92
sg5
V__format__
p93
sg7
L2L
sa(dp94
g1
I01
sg5
V__ge__
p95
sg7
L5L
sa(dp96
g1
I01
sg5
V__getattribute__
p97
sg7
L5L
sa(dp98
g1
I01
sg5
V__gt__
p99
sg7
L5L
sa(dp100
g1
I01
sg5
V__hash__
p101
sg7
L5L
sa(dp102
g1
I01
sg5
V__init__
p103
sg7
L5L
sa(dp104
g1
I01
sg5
V__le__
p105
sg7
L5L
sa(dp106
g1
I01
sg5
V__lt__
p107
sg7
L5L
sa(dp108
g1
I01
sg5
V__module__
p109
sg7
L5L
sa(dp110
g1
I01
sg5
V__ne__
p111
sg7
L5L
sa(dp112
g1
I01
sg51
VCreate and return a new object.  See help(type) for accurate signature.
p113
sg5
V__new__
p114
sg7
L2L
sa(dp115
g1
I01
sg51
Vhelper for pickle
p116
sg5
V__reduce__
p117
sg7
L2L
sa(dp118
g1
I01
sg51
Vhelper for pickle
p119
sg5
V__reduce_ex__
p120
sg7
L2L
sa(dp121
g1
I01
sg5
V__repr__
p122
sg7
L5L
sa(dp123
g1
I01
sg5
V__setattr__
p124
sg7
L5L
sa(dp125
g1
I01
sg51
V__sizeof__() -> int\u000asize of object in memory, in bytes
p126
sg5
V__sizeof__
p127
sg7
L2L
sa(dp128
g1
I01
sg5
V__str__
p129
sg7
L5L
sa(dp130
g1
I01
sg51
VAbstract classes can override this to customize issubclass().\u000a\u000aThis is invoked early on by abc.ABCMeta.__subclasscheck__().\u000aIt should return True, False or NotImplemented.  If it returns\u000aNotImplemented, the normal algorithm is used.  Otherwise, it\u000aoverrides the normal algorithm (and the outcome is cached).\u000a
p131
sg5
V__subclasshook__
p132
sg7
L2L
sa(dp133
g1
I01
sg5
V__weakref__
p134
sg7
L5L
sa(dp135
g1
I01
sg5
Vcreate_module
p136
sg7
L5L
sa(dp137
g1
I01
sg5
Vexec_module
p138
sg7
L5L
sa(dp139
g1
I01
sg5
Vfind_module
p140
sg7
L5L
sa(dp141
g1
I01
sg5
Vfind_spec
p142
sg7
L5L
sa(dp143
g1
I01
sg5
Vget_code
p144
sg7
L5L
sa(dp145
g1
I01
sg5
Vget_source
p146
sg7
L5L
sa(dp147
g1
I01
sg5
Vis_package
p148
sg7
L5L
sa(dp149
g1
I01
sg5
Vload_module
p150
sg7
L5L
sa(dp151
g1
I01
sg5
Vmodule_repr
p152
sg7
L5L
sasg51
VMeta path import for built-in modules.\u000a\u000a    All methods are either class or static methods to avoid the need to\u000a    instantiate the class.\u000a\u000a    
p153
sg5
V__loader__
p154
sg7
L3L
sa(dp155
g1
I01
sg5
V__name__
p156
sg7
L5L
sa(dp157
g1
I01
sg5
V__package__
p158
sg7
L5L
sa(dp159
g1
I01
sg5
V__spec__
p160
sg7
L5L
sa(dp161
g1
I01
sg51
Nsg5
Vcloselog
p162
sg7
L2L
sa(dp163
g1
I01
sg51
Nsg5
Vopenlog
p164
sg7
L2L
sa(dp165
g1
I01
sg51
Nsg5
Vsetlogmask
p166
sg7
L2L
sa(dp167
g1
I01
sg51
Nsg5
Vsyslog
p168
sg7
L2L
sasg51
Nsg5
Vsyslog
p169
sg7
L1L
s.